ARM GAS  /tmp/ccnOyTCl.s 			page 1


   1              		.cpu cortex-m4
   2              		.eabi_attribute 27, 1
   3              		.eabi_attribute 28, 1
   4              		.eabi_attribute 20, 1
   5              		.eabi_attribute 21, 1
   6              		.eabi_attribute 23, 3
   7              		.eabi_attribute 24, 1
   8              		.eabi_attribute 25, 1
   9              		.eabi_attribute 26, 1
  10              		.eabi_attribute 30, 1
  11              		.eabi_attribute 34, 1
  12              		.eabi_attribute 18, 4
  13              		.file	"SEEKFREE_18TFT.c"
  14              		.text
  15              	.Ltext0:
  16              		.cfi_sections	.debug_frame
  17              		.section	.text.lcd_writeIndex,"ax",%progbits
  18              		.align	1
  19              		.global	lcd_writeIndex
  20              		.arch armv7e-m
  21              		.syntax unified
  22              		.thumb
  23              		.thumb_func
  24              		.fpu fpv4-sp-d16
  26              	lcd_writeIndex:
  27              	.LVL0:
  28              	.LFB736:
  29              		.file 1 "./Hardware/LCD/SEEKFREE_18TFT.c"
   1:./Hardware/LCD/SEEKFREE_18TFT.c **** /**************************************************************************************************
   2:./Hardware/LCD/SEEKFREE_18TFT.c ****  * COPYRIGHT NOTICE
   3:./Hardware/LCD/SEEKFREE_18TFT.c ****  * Copyright (c) 2018,逐飞科技
   4:./Hardware/LCD/SEEKFREE_18TFT.c ****  * All rights reserved.
   5:./Hardware/LCD/SEEKFREE_18TFT.c ****  * 技术讨论QQ群：一群：179029047(已满)  二群：244861897
   6:./Hardware/LCD/SEEKFREE_18TFT.c ****  *
   7:./Hardware/LCD/SEEKFREE_18TFT.c ****  * 以下所有内容版权均属逐飞科技所有，未经允许不得用于商业用途，
   8:./Hardware/LCD/SEEKFREE_18TFT.c ****  * 欢迎各位使用并传播本程序，修改内容时必须保留逐飞科技的版权声明。
   9:./Hardware/LCD/SEEKFREE_18TFT.c ****  *
  10:./Hardware/LCD/SEEKFREE_18TFT.c ****  * @file       		TFT
  11:./Hardware/LCD/SEEKFREE_18TFT.c ****  * @company	   		成都逐飞科技有限公司
  12:./Hardware/LCD/SEEKFREE_18TFT.c ****  * @author     		逐飞科技(QQ3184284598)
  13:./Hardware/LCD/SEEKFREE_18TFT.c ****  * @version    		查看doc内version文件 版本说明
  14:./Hardware/LCD/SEEKFREE_18TFT.c ****  * @Software 		IAR 8.3 or MDK 5.26
  15:./Hardware/LCD/SEEKFREE_18TFT.c ****  * @Taobao   		https://seekfree.taobao.com/
  16:./Hardware/LCD/SEEKFREE_18TFT.c ****  * @date       		2018-05-24
  17:./Hardware/LCD/SEEKFREE_18TFT.c ****  * @note		
  18:./Hardware/LCD/SEEKFREE_18TFT.c **** 					接线定义：
  19:./Hardware/LCD/SEEKFREE_18TFT.c **** 					------------------------------------ 
  20:./Hardware/LCD/SEEKFREE_18TFT.c **** 					模块管脚            单片机管脚
  21:./Hardware/LCD/SEEKFREE_18TFT.c **** 					SCL                 查看TFT_SCL宏定义的引脚     硬件SPI引脚不可随意切换
  22:./Hardware/LCD/SEEKFREE_18TFT.c **** 					SDA                 查看TFT_SDA宏定义的引脚     硬件SPI引脚不可随意切换
  23:./Hardware/LCD/SEEKFREE_18TFT.c **** 					RES                 查看REST_PIN宏定义的引脚    
  24:./Hardware/LCD/SEEKFREE_18TFT.c **** 					DC                  查看DC_PIN宏定义的引脚  
  25:./Hardware/LCD/SEEKFREE_18TFT.c **** 					CS                  查看TFT_CS宏定义的引脚      硬件SPI引脚不可随意切换
  26:./Hardware/LCD/SEEKFREE_18TFT.c **** 					
  27:./Hardware/LCD/SEEKFREE_18TFT.c **** 					电源引脚
  28:./Hardware/LCD/SEEKFREE_18TFT.c **** 					BL  3.3V电源（背光控制引脚，也可以接PWM来控制亮度）
  29:./Hardware/LCD/SEEKFREE_18TFT.c **** 					VCC 3.3V电源
ARM GAS  /tmp/ccnOyTCl.s 			page 2


  30:./Hardware/LCD/SEEKFREE_18TFT.c **** 					GND 电源地
  31:./Hardware/LCD/SEEKFREE_18TFT.c **** 					最大分辨率128*160
  32:./Hardware/LCD/SEEKFREE_18TFT.c **** 					------------------------------------ 
  33:./Hardware/LCD/SEEKFREE_18TFT.c **** 
  34:./Hardware/LCD/SEEKFREE_18TFT.c ****  **************************************************************************************************
  35:./Hardware/LCD/SEEKFREE_18TFT.c **** 
  36:./Hardware/LCD/SEEKFREE_18TFT.c **** 
  37:./Hardware/LCD/SEEKFREE_18TFT.c **** 
  38:./Hardware/LCD/SEEKFREE_18TFT.c **** 
  39:./Hardware/LCD/SEEKFREE_18TFT.c **** #include "SEEKFREE_FONT.h"
  40:./Hardware/LCD/SEEKFREE_18TFT.c **** 
  41:./Hardware/LCD/SEEKFREE_18TFT.c **** #include "SEEKFREE_18TFT.h"
  42:./Hardware/LCD/SEEKFREE_18TFT.c **** #include "stm32f4xx_hal.h"
  43:./Hardware/LCD/SEEKFREE_18TFT.c **** 
  44:./Hardware/LCD/SEEKFREE_18TFT.c **** 
  45:./Hardware/LCD/SEEKFREE_18TFT.c **** 
  46:./Hardware/LCD/SEEKFREE_18TFT.c **** 
  47:./Hardware/LCD/SEEKFREE_18TFT.c **** 
  48:./Hardware/LCD/SEEKFREE_18TFT.c **** void  lcd_writeIndex(uint8 dat)			//写命令
  49:./Hardware/LCD/SEEKFREE_18TFT.c **** {	
  30              		.loc 1 49 1 view -0
  31              		.cfi_startproc
  32              		@ args = 0, pretend = 0, frame = 0
  33              		@ frame_needed = 0, uses_anonymous_args = 0
  34              		.loc 1 49 1 is_stmt 0 view .LVU1
  35 0000 70B5     		push	{r4, r5, r6, lr}
  36              	.LCFI0:
  37              		.cfi_def_cfa_offset 16
  38              		.cfi_offset 4, -16
  39              		.cfi_offset 5, -12
  40              		.cfi_offset 6, -8
  41              		.cfi_offset 14, -4
  42 0002 0446     		mov	r4, r0
  50:./Hardware/LCD/SEEKFREE_18TFT.c **** 
  51:./Hardware/LCD/SEEKFREE_18TFT.c **** 	uint8 i=8;
  43              		.loc 1 51 2 is_stmt 1 view .LVU2
  44              	.LVL1:
  52:./Hardware/LCD/SEEKFREE_18TFT.c **** 	
  53:./Hardware/LCD/SEEKFREE_18TFT.c ****     TFT_CS(0);
  45              		.loc 1 53 5 view .LVU3
  46 0004 0022     		movs	r2, #0
  47 0006 4021     		movs	r1, #64
  48 0008 1A48     		ldr	r0, .L8
  49              	.LVL2:
  50              		.loc 1 53 5 is_stmt 0 view .LVU4
  51 000a FFF7FEFF 		bl	HAL_GPIO_WritePin
  52              	.LVL3:
  54:./Hardware/LCD/SEEKFREE_18TFT.c **** 	TFT_DC(0);
  53              		.loc 1 54 2 is_stmt 1 view .LVU5
  54 000e 1A4D     		ldr	r5, .L8+4
  55 0010 0022     		movs	r2, #0
  56 0012 0221     		movs	r1, #2
  57 0014 2846     		mov	r0, r5
  58 0016 FFF7FEFF 		bl	HAL_GPIO_WritePin
  59              	.LVL4:
  55:./Hardware/LCD/SEEKFREE_18TFT.c **** 	TFT_SCL(0);
  60              		.loc 1 55 2 view .LVU6
ARM GAS  /tmp/ccnOyTCl.s 			page 3


  61 001a 0022     		movs	r2, #0
  62 001c 0121     		movs	r1, #1
  63 001e 2846     		mov	r0, r5
  64 0020 FFF7FEFF 		bl	HAL_GPIO_WritePin
  65              	.LVL5:
  56:./Hardware/LCD/SEEKFREE_18TFT.c **** 	
  57:./Hardware/LCD/SEEKFREE_18TFT.c **** 	while(i--)
  66              		.loc 1 57 2 view .LVU7
  51:./Hardware/LCD/SEEKFREE_18TFT.c **** 	
  67              		.loc 1 51 8 is_stmt 0 view .LVU8
  68 0024 0822     		movs	r2, #8
  69              		.loc 1 57 7 view .LVU9
  70 0026 12E0     		b	.L2
  71              	.LVL6:
  72              	.L3:
  58:./Hardware/LCD/SEEKFREE_18TFT.c **** 	{
  59:./Hardware/LCD/SEEKFREE_18TFT.c **** 		if(dat&0x80){TFT_SDA(1);}
  60:./Hardware/LCD/SEEKFREE_18TFT.c **** 		else{TFT_SDA(0);}
  73              		.loc 1 60 8 is_stmt 1 view .LVU10
  74 0028 0022     		movs	r2, #0
  75 002a 2021     		movs	r1, #32
  76 002c 1348     		ldr	r0, .L8+8
  77 002e FFF7FEFF 		bl	HAL_GPIO_WritePin
  78              	.LVL7:
  79              	.L4:
  61:./Hardware/LCD/SEEKFREE_18TFT.c **** 		TFT_SCL(1);
  80              		.loc 1 61 3 view .LVU11
  81 0032 114E     		ldr	r6, .L8+4
  82 0034 0122     		movs	r2, #1
  83 0036 1146     		mov	r1, r2
  84 0038 3046     		mov	r0, r6
  85 003a FFF7FEFF 		bl	HAL_GPIO_WritePin
  86              	.LVL8:
  62:./Hardware/LCD/SEEKFREE_18TFT.c **** 		
  63:./Hardware/LCD/SEEKFREE_18TFT.c **** 		TFT_SCL(0);
  87              		.loc 1 63 3 view .LVU12
  88 003e 0022     		movs	r2, #0
  89 0040 0121     		movs	r1, #1
  90 0042 3046     		mov	r0, r6
  91 0044 FFF7FEFF 		bl	HAL_GPIO_WritePin
  92              	.LVL9:
  64:./Hardware/LCD/SEEKFREE_18TFT.c **** 		dat<<=1;
  93              		.loc 1 64 3 view .LVU13
  94              		.loc 1 64 6 is_stmt 0 view .LVU14
  95 0048 6400     		lsls	r4, r4, #1
  96              	.LVL10:
  97              		.loc 1 64 6 view .LVU15
  98 004a E4B2     		uxtb	r4, r4
  99              	.LVL11:
  57:./Hardware/LCD/SEEKFREE_18TFT.c **** 	{
 100              		.loc 1 57 9 view .LVU16
 101 004c 2A46     		mov	r2, r5
 102              	.LVL12:
 103              	.L2:
  57:./Hardware/LCD/SEEKFREE_18TFT.c **** 	{
 104              		.loc 1 57 7 is_stmt 1 view .LVU17
  57:./Hardware/LCD/SEEKFREE_18TFT.c **** 	{
ARM GAS  /tmp/ccnOyTCl.s 			page 4


 105              		.loc 1 57 9 is_stmt 0 view .LVU18
 106 004e 531E     		subs	r3, r2, #1
 107 0050 DDB2     		uxtb	r5, r3
 108              	.LVL13:
  57:./Hardware/LCD/SEEKFREE_18TFT.c **** 	{
 109              		.loc 1 57 7 view .LVU19
 110 0052 42B1     		cbz	r2, .L7
  59:./Hardware/LCD/SEEKFREE_18TFT.c **** 		else{TFT_SDA(0);}
 111              		.loc 1 59 3 is_stmt 1 view .LVU20
  59:./Hardware/LCD/SEEKFREE_18TFT.c **** 		else{TFT_SDA(0);}
 112              		.loc 1 59 5 is_stmt 0 view .LVU21
 113 0054 14F0800F 		tst	r4, #128
 114 0058 E6D0     		beq	.L3
  59:./Hardware/LCD/SEEKFREE_18TFT.c **** 		else{TFT_SDA(0);}
 115              		.loc 1 59 16 is_stmt 1 discriminator 1 view .LVU22
 116 005a 0122     		movs	r2, #1
 117 005c 2021     		movs	r1, #32
 118 005e 0748     		ldr	r0, .L8+8
 119 0060 FFF7FEFF 		bl	HAL_GPIO_WritePin
 120              	.LVL14:
 121 0064 E5E7     		b	.L4
 122              	.L7:
  65:./Hardware/LCD/SEEKFREE_18TFT.c **** 	}	
  66:./Hardware/LCD/SEEKFREE_18TFT.c ****     TFT_CS(1);
 123              		.loc 1 66 5 view .LVU23
 124 0066 0122     		movs	r2, #1
 125 0068 4021     		movs	r1, #64
 126 006a 0248     		ldr	r0, .L8
 127 006c FFF7FEFF 		bl	HAL_GPIO_WritePin
 128              	.LVL15:
  67:./Hardware/LCD/SEEKFREE_18TFT.c **** }
 129              		.loc 1 67 1 is_stmt 0 view .LVU24
 130 0070 70BD     		pop	{r4, r5, r6, pc}
 131              	.LVL16:
 132              	.L9:
 133              		.loc 1 67 1 view .LVU25
 134 0072 00BF     		.align	2
 135              	.L8:
 136 0074 001C0240 		.word	1073880064
 137 0078 00100240 		.word	1073876992
 138 007c 00080240 		.word	1073874944
 139              		.cfi_endproc
 140              	.LFE736:
 142              		.section	.text.lcd_writeData,"ax",%progbits
 143              		.align	1
 144              		.global	lcd_writeData
 145              		.syntax unified
 146              		.thumb
 147              		.thumb_func
 148              		.fpu fpv4-sp-d16
 150              	lcd_writeData:
 151              	.LVL17:
 152              	.LFB737:
  68:./Hardware/LCD/SEEKFREE_18TFT.c **** 
  69:./Hardware/LCD/SEEKFREE_18TFT.c **** void lcd_writeData(uint8 dat)			//写数据
  70:./Hardware/LCD/SEEKFREE_18TFT.c **** {
 153              		.loc 1 70 1 is_stmt 1 view -0
ARM GAS  /tmp/ccnOyTCl.s 			page 5


 154              		.cfi_startproc
 155              		@ args = 0, pretend = 0, frame = 0
 156              		@ frame_needed = 0, uses_anonymous_args = 0
 157              		.loc 1 70 1 is_stmt 0 view .LVU27
 158 0000 70B5     		push	{r4, r5, r6, lr}
 159              	.LCFI1:
 160              		.cfi_def_cfa_offset 16
 161              		.cfi_offset 4, -16
 162              		.cfi_offset 5, -12
 163              		.cfi_offset 6, -8
 164              		.cfi_offset 14, -4
 165 0002 0446     		mov	r4, r0
  71:./Hardware/LCD/SEEKFREE_18TFT.c **** 	uint8 i=8;
 166              		.loc 1 71 2 is_stmt 1 view .LVU28
 167              	.LVL18:
  72:./Hardware/LCD/SEEKFREE_18TFT.c **** 	
  73:./Hardware/LCD/SEEKFREE_18TFT.c ****     TFT_CS(0);
 168              		.loc 1 73 5 view .LVU29
 169 0004 0022     		movs	r2, #0
 170 0006 4021     		movs	r1, #64
 171 0008 1A48     		ldr	r0, .L17
 172              	.LVL19:
 173              		.loc 1 73 5 is_stmt 0 view .LVU30
 174 000a FFF7FEFF 		bl	HAL_GPIO_WritePin
 175              	.LVL20:
  74:./Hardware/LCD/SEEKFREE_18TFT.c **** 	TFT_DC(1);
 176              		.loc 1 74 2 is_stmt 1 view .LVU31
 177 000e 1A4D     		ldr	r5, .L17+4
 178 0010 0122     		movs	r2, #1
 179 0012 0221     		movs	r1, #2
 180 0014 2846     		mov	r0, r5
 181 0016 FFF7FEFF 		bl	HAL_GPIO_WritePin
 182              	.LVL21:
  75:./Hardware/LCD/SEEKFREE_18TFT.c **** 	TFT_SCL(0);
 183              		.loc 1 75 2 view .LVU32
 184 001a 0022     		movs	r2, #0
 185 001c 0121     		movs	r1, #1
 186 001e 2846     		mov	r0, r5
 187 0020 FFF7FEFF 		bl	HAL_GPIO_WritePin
 188              	.LVL22:
  76:./Hardware/LCD/SEEKFREE_18TFT.c **** 	while(i--)
 189              		.loc 1 76 2 view .LVU33
  71:./Hardware/LCD/SEEKFREE_18TFT.c **** 	
 190              		.loc 1 71 8 is_stmt 0 view .LVU34
 191 0024 0822     		movs	r2, #8
 192              		.loc 1 76 7 view .LVU35
 193 0026 12E0     		b	.L11
 194              	.LVL23:
 195              	.L12:
  77:./Hardware/LCD/SEEKFREE_18TFT.c **** 	{
  78:./Hardware/LCD/SEEKFREE_18TFT.c **** 	  	if(dat&0x80){TFT_SDA(1);}
  79:./Hardware/LCD/SEEKFREE_18TFT.c **** 	  	else{TFT_SDA(0);}
 196              		.loc 1 79 10 is_stmt 1 view .LVU36
 197 0028 0022     		movs	r2, #0
 198 002a 2021     		movs	r1, #32
 199 002c 1348     		ldr	r0, .L17+8
 200 002e FFF7FEFF 		bl	HAL_GPIO_WritePin
ARM GAS  /tmp/ccnOyTCl.s 			page 6


 201              	.LVL24:
 202              	.L13:
  80:./Hardware/LCD/SEEKFREE_18TFT.c **** 	  	TFT_SCL(1);
 203              		.loc 1 80 5 view .LVU37
 204 0032 114E     		ldr	r6, .L17+4
 205 0034 0122     		movs	r2, #1
 206 0036 1146     		mov	r1, r2
 207 0038 3046     		mov	r0, r6
 208 003a FFF7FEFF 		bl	HAL_GPIO_WritePin
 209              	.LVL25:
  81:./Hardware/LCD/SEEKFREE_18TFT.c **** 		
  82:./Hardware/LCD/SEEKFREE_18TFT.c **** 	  	TFT_SCL(0);
 210              		.loc 1 82 5 view .LVU38
 211 003e 0022     		movs	r2, #0
 212 0040 0121     		movs	r1, #1
 213 0042 3046     		mov	r0, r6
 214 0044 FFF7FEFF 		bl	HAL_GPIO_WritePin
 215              	.LVL26:
  83:./Hardware/LCD/SEEKFREE_18TFT.c **** 	  	dat<<=1;
 216              		.loc 1 83 5 view .LVU39
 217              		.loc 1 83 8 is_stmt 0 view .LVU40
 218 0048 6400     		lsls	r4, r4, #1
 219              	.LVL27:
 220              		.loc 1 83 8 view .LVU41
 221 004a E4B2     		uxtb	r4, r4
 222              	.LVL28:
  76:./Hardware/LCD/SEEKFREE_18TFT.c **** 	{
 223              		.loc 1 76 9 view .LVU42
 224 004c 2A46     		mov	r2, r5
 225              	.LVL29:
 226              	.L11:
  76:./Hardware/LCD/SEEKFREE_18TFT.c **** 	{
 227              		.loc 1 76 7 is_stmt 1 view .LVU43
  76:./Hardware/LCD/SEEKFREE_18TFT.c **** 	{
 228              		.loc 1 76 9 is_stmt 0 view .LVU44
 229 004e 531E     		subs	r3, r2, #1
 230 0050 DDB2     		uxtb	r5, r3
 231              	.LVL30:
  76:./Hardware/LCD/SEEKFREE_18TFT.c **** 	{
 232              		.loc 1 76 7 view .LVU45
 233 0052 42B1     		cbz	r2, .L16
  78:./Hardware/LCD/SEEKFREE_18TFT.c **** 	  	else{TFT_SDA(0);}
 234              		.loc 1 78 5 is_stmt 1 view .LVU46
  78:./Hardware/LCD/SEEKFREE_18TFT.c **** 	  	else{TFT_SDA(0);}
 235              		.loc 1 78 7 is_stmt 0 view .LVU47
 236 0054 14F0800F 		tst	r4, #128
 237 0058 E6D0     		beq	.L12
  78:./Hardware/LCD/SEEKFREE_18TFT.c **** 	  	else{TFT_SDA(0);}
 238              		.loc 1 78 18 is_stmt 1 discriminator 1 view .LVU48
 239 005a 0122     		movs	r2, #1
 240 005c 2021     		movs	r1, #32
 241 005e 0748     		ldr	r0, .L17+8
 242 0060 FFF7FEFF 		bl	HAL_GPIO_WritePin
 243              	.LVL31:
 244 0064 E5E7     		b	.L13
 245              	.L16:
  84:./Hardware/LCD/SEEKFREE_18TFT.c **** 	}
ARM GAS  /tmp/ccnOyTCl.s 			page 7


  85:./Hardware/LCD/SEEKFREE_18TFT.c ****     TFT_CS(1);
 246              		.loc 1 85 5 view .LVU49
 247 0066 0122     		movs	r2, #1
 248 0068 4021     		movs	r1, #64
 249 006a 0248     		ldr	r0, .L17
 250 006c FFF7FEFF 		bl	HAL_GPIO_WritePin
 251              	.LVL32:
  86:./Hardware/LCD/SEEKFREE_18TFT.c **** 
  87:./Hardware/LCD/SEEKFREE_18TFT.c **** }
 252              		.loc 1 87 1 is_stmt 0 view .LVU50
 253 0070 70BD     		pop	{r4, r5, r6, pc}
 254              	.LVL33:
 255              	.L18:
 256              		.loc 1 87 1 view .LVU51
 257 0072 00BF     		.align	2
 258              	.L17:
 259 0074 001C0240 		.word	1073880064
 260 0078 00100240 		.word	1073876992
 261 007c 00080240 		.word	1073874944
 262              		.cfi_endproc
 263              	.LFE737:
 265              		.section	.text.lcd_writedata_16bit,"ax",%progbits
 266              		.align	1
 267              		.global	lcd_writedata_16bit
 268              		.syntax unified
 269              		.thumb
 270              		.thumb_func
 271              		.fpu fpv4-sp-d16
 273              	lcd_writedata_16bit:
 274              	.LVL34:
 275              	.LFB738:
  88:./Hardware/LCD/SEEKFREE_18TFT.c **** 
  89:./Hardware/LCD/SEEKFREE_18TFT.c **** void lcd_writedata_16bit(uint16 dat)	//向液晶屏写一个16位数据
  90:./Hardware/LCD/SEEKFREE_18TFT.c **** {
 276              		.loc 1 90 1 is_stmt 1 view -0
 277              		.cfi_startproc
 278              		@ args = 0, pretend = 0, frame = 0
 279              		@ frame_needed = 0, uses_anonymous_args = 0
 280              		.loc 1 90 1 is_stmt 0 view .LVU53
 281 0000 70B5     		push	{r4, r5, r6, lr}
 282              	.LCFI2:
 283              		.cfi_def_cfa_offset 16
 284              		.cfi_offset 4, -16
 285              		.cfi_offset 5, -12
 286              		.cfi_offset 6, -8
 287              		.cfi_offset 14, -4
 288 0002 0446     		mov	r4, r0
  91:./Hardware/LCD/SEEKFREE_18TFT.c **** 
  92:./Hardware/LCD/SEEKFREE_18TFT.c **** 	uint8 i=16;
 289              		.loc 1 92 2 is_stmt 1 view .LVU54
 290              	.LVL35:
  93:./Hardware/LCD/SEEKFREE_18TFT.c ****     TFT_CS(0);
 291              		.loc 1 93 5 view .LVU55
 292 0004 0022     		movs	r2, #0
 293 0006 4021     		movs	r1, #64
 294 0008 1A48     		ldr	r0, .L27
 295              	.LVL36:
ARM GAS  /tmp/ccnOyTCl.s 			page 8


 296              		.loc 1 93 5 is_stmt 0 view .LVU56
 297 000a FFF7FEFF 		bl	HAL_GPIO_WritePin
 298              	.LVL37:
  94:./Hardware/LCD/SEEKFREE_18TFT.c ****     TFT_DC(1);
 299              		.loc 1 94 5 is_stmt 1 view .LVU57
 300 000e 1A4D     		ldr	r5, .L27+4
 301 0010 0122     		movs	r2, #1
 302 0012 0221     		movs	r1, #2
 303 0014 2846     		mov	r0, r5
 304 0016 FFF7FEFF 		bl	HAL_GPIO_WritePin
 305              	.LVL38:
  95:./Hardware/LCD/SEEKFREE_18TFT.c ****     TFT_SCL(0);
 306              		.loc 1 95 5 view .LVU58
 307 001a 0022     		movs	r2, #0
 308 001c 0121     		movs	r1, #1
 309 001e 2846     		mov	r0, r5
 310 0020 FFF7FEFF 		bl	HAL_GPIO_WritePin
 311              	.LVL39:
  96:./Hardware/LCD/SEEKFREE_18TFT.c **** 	while(i--)
 312              		.loc 1 96 2 view .LVU59
  92:./Hardware/LCD/SEEKFREE_18TFT.c ****     TFT_CS(0);
 313              		.loc 1 92 8 is_stmt 0 view .LVU60
 314 0024 1022     		movs	r2, #16
 315              		.loc 1 96 7 view .LVU61
 316 0026 12E0     		b	.L20
 317              	.LVL40:
 318              	.L26:
  97:./Hardware/LCD/SEEKFREE_18TFT.c **** 	{
  98:./Hardware/LCD/SEEKFREE_18TFT.c **** 	  	if(dat&0x8000){TFT_SDA(1);}
 319              		.loc 1 98 20 is_stmt 1 discriminator 1 view .LVU62
 320 0028 0122     		movs	r2, #1
 321 002a 2021     		movs	r1, #32
 322 002c 1348     		ldr	r0, .L27+8
 323 002e FFF7FEFF 		bl	HAL_GPIO_WritePin
 324              	.LVL41:
 325              	.L22:
  99:./Hardware/LCD/SEEKFREE_18TFT.c **** 	  	else{TFT_SDA(0);}
 100:./Hardware/LCD/SEEKFREE_18TFT.c **** 	  	TFT_SCL(1);
 326              		.loc 1 100 5 view .LVU63
 327 0032 114E     		ldr	r6, .L27+4
 328 0034 0122     		movs	r2, #1
 329 0036 1146     		mov	r1, r2
 330 0038 3046     		mov	r0, r6
 331 003a FFF7FEFF 		bl	HAL_GPIO_WritePin
 332              	.LVL42:
 101:./Hardware/LCD/SEEKFREE_18TFT.c **** 		
 102:./Hardware/LCD/SEEKFREE_18TFT.c **** 	  	TFT_SCL(0);
 333              		.loc 1 102 5 view .LVU64
 334 003e 0022     		movs	r2, #0
 335 0040 0121     		movs	r1, #1
 336 0042 3046     		mov	r0, r6
 337 0044 FFF7FEFF 		bl	HAL_GPIO_WritePin
 338              	.LVL43:
 103:./Hardware/LCD/SEEKFREE_18TFT.c **** 	  	dat<<=1;
 339              		.loc 1 103 5 view .LVU65
 340              		.loc 1 103 8 is_stmt 0 view .LVU66
 341 0048 6400     		lsls	r4, r4, #1
ARM GAS  /tmp/ccnOyTCl.s 			page 9


 342              	.LVL44:
 343              		.loc 1 103 8 view .LVU67
 344 004a A4B2     		uxth	r4, r4
 345              	.LVL45:
  96:./Hardware/LCD/SEEKFREE_18TFT.c **** 	{
 346              		.loc 1 96 9 view .LVU68
 347 004c 2A46     		mov	r2, r5
 348              	.LVL46:
 349              	.L20:
  96:./Hardware/LCD/SEEKFREE_18TFT.c **** 	{
 350              		.loc 1 96 7 is_stmt 1 view .LVU69
  96:./Hardware/LCD/SEEKFREE_18TFT.c **** 	{
 351              		.loc 1 96 9 is_stmt 0 view .LVU70
 352 004e 531E     		subs	r3, r2, #1
 353 0050 DDB2     		uxtb	r5, r3
 354              	.LVL47:
  96:./Hardware/LCD/SEEKFREE_18TFT.c **** 	{
 355              		.loc 1 96 7 view .LVU71
 356 0052 42B1     		cbz	r2, .L25
  98:./Hardware/LCD/SEEKFREE_18TFT.c **** 	  	else{TFT_SDA(0);}
 357              		.loc 1 98 5 is_stmt 1 view .LVU72
  98:./Hardware/LCD/SEEKFREE_18TFT.c **** 	  	else{TFT_SDA(0);}
 358              		.loc 1 98 7 is_stmt 0 view .LVU73
 359 0054 14F4004F 		tst	r4, #32768
 360 0058 E6D1     		bne	.L26
  99:./Hardware/LCD/SEEKFREE_18TFT.c **** 	  	TFT_SCL(1);
 361              		.loc 1 99 10 is_stmt 1 view .LVU74
 362 005a 0022     		movs	r2, #0
 363 005c 2021     		movs	r1, #32
 364 005e 0748     		ldr	r0, .L27+8
 365 0060 FFF7FEFF 		bl	HAL_GPIO_WritePin
 366              	.LVL48:
 367 0064 E5E7     		b	.L22
 368              	.L25:
 104:./Hardware/LCD/SEEKFREE_18TFT.c **** 	}
 105:./Hardware/LCD/SEEKFREE_18TFT.c ****     TFT_CS(1);
 369              		.loc 1 105 5 view .LVU75
 370 0066 0122     		movs	r2, #1
 371 0068 4021     		movs	r1, #64
 372 006a 0248     		ldr	r0, .L27
 373 006c FFF7FEFF 		bl	HAL_GPIO_WritePin
 374              	.LVL49:
 106:./Hardware/LCD/SEEKFREE_18TFT.c **** 
 107:./Hardware/LCD/SEEKFREE_18TFT.c **** }
 375              		.loc 1 107 1 is_stmt 0 view .LVU76
 376 0070 70BD     		pop	{r4, r5, r6, pc}
 377              	.LVL50:
 378              	.L28:
 379              		.loc 1 107 1 view .LVU77
 380 0072 00BF     		.align	2
 381              	.L27:
 382 0074 001C0240 		.word	1073880064
 383 0078 00100240 		.word	1073876992
 384 007c 00080240 		.word	1073874944
 385              		.cfi_endproc
 386              	.LFE738:
 388              		.section	.text.lcd_set_region,"ax",%progbits
ARM GAS  /tmp/ccnOyTCl.s 			page 10


 389              		.align	1
 390              		.global	lcd_set_region
 391              		.syntax unified
 392              		.thumb
 393              		.thumb_func
 394              		.fpu fpv4-sp-d16
 396              	lcd_set_region:
 397              	.LVL51:
 398              	.LFB739:
 108:./Hardware/LCD/SEEKFREE_18TFT.c **** 
 109:./Hardware/LCD/SEEKFREE_18TFT.c **** //-------------------------------------------------------------------------------------------------
 110:./Hardware/LCD/SEEKFREE_18TFT.c **** //  @brief      液晶坐标设置
 111:./Hardware/LCD/SEEKFREE_18TFT.c **** //  @param      x_start     	坐标x方向的起点
 112:./Hardware/LCD/SEEKFREE_18TFT.c **** //  @param      y_start     	坐标y方向的起点
 113:./Hardware/LCD/SEEKFREE_18TFT.c **** //  @param      x_end       	坐标x方向的终点
 114:./Hardware/LCD/SEEKFREE_18TFT.c **** //  @param      y_end       	坐标y方向的终点
 115:./Hardware/LCD/SEEKFREE_18TFT.c **** //  @return     void
 116:./Hardware/LCD/SEEKFREE_18TFT.c **** //  @since      v1.0
 117:./Hardware/LCD/SEEKFREE_18TFT.c **** //  Sample usage:               lcd_set_region(0,0,10,10);// x、y的起点都是0，终点都是10
 118:./Hardware/LCD/SEEKFREE_18TFT.c **** //-------------------------------------------------------------------------------------------------
 119:./Hardware/LCD/SEEKFREE_18TFT.c **** void lcd_set_region(unsigned int x_start,unsigned int y_start,unsigned int x_end,unsigned int y_end
 120:./Hardware/LCD/SEEKFREE_18TFT.c **** {	
 399              		.loc 1 120 1 is_stmt 1 view -0
 400              		.cfi_startproc
 401              		@ args = 0, pretend = 0, frame = 0
 402              		@ frame_needed = 0, uses_anonymous_args = 0
 403              		.loc 1 120 1 is_stmt 0 view .LVU79
 404 0000 F8B5     		push	{r3, r4, r5, r6, r7, lr}
 405              	.LCFI3:
 406              		.cfi_def_cfa_offset 24
 407              		.cfi_offset 3, -24
 408              		.cfi_offset 4, -20
 409              		.cfi_offset 5, -16
 410              		.cfi_offset 6, -12
 411              		.cfi_offset 7, -8
 412              		.cfi_offset 14, -4
 413 0002 0746     		mov	r7, r0
 414 0004 0D46     		mov	r5, r1
 415 0006 1646     		mov	r6, r2
 416 0008 1C46     		mov	r4, r3
 121:./Hardware/LCD/SEEKFREE_18TFT.c **** 
 122:./Hardware/LCD/SEEKFREE_18TFT.c ****     
 123:./Hardware/LCD/SEEKFREE_18TFT.c **** #if (0 == TFT_DISPLAY_DIR || 1 == TFT_DISPLAY_DIR)
 124:./Hardware/LCD/SEEKFREE_18TFT.c ****     lcd_writeIndex(0x2a);
 417              		.loc 1 124 5 is_stmt 1 view .LVU80
 418 000a 2A20     		movs	r0, #42
 419              	.LVL52:
 420              		.loc 1 124 5 is_stmt 0 view .LVU81
 421 000c FFF7FEFF 		bl	lcd_writeIndex
 422              	.LVL53:
 125:./Hardware/LCD/SEEKFREE_18TFT.c **** 	lcd_writeData(0x00);
 423              		.loc 1 125 2 is_stmt 1 view .LVU82
 424 0010 0020     		movs	r0, #0
 425 0012 FFF7FEFF 		bl	lcd_writeData
 426              	.LVL54:
 126:./Hardware/LCD/SEEKFREE_18TFT.c **** 	lcd_writeData(x_start+2);
 427              		.loc 1 126 2 view .LVU83
ARM GAS  /tmp/ccnOyTCl.s 			page 11


 428 0016 B81C     		adds	r0, r7, #2
 429 0018 C0B2     		uxtb	r0, r0
 430 001a FFF7FEFF 		bl	lcd_writeData
 431              	.LVL55:
 127:./Hardware/LCD/SEEKFREE_18TFT.c **** 	lcd_writeData(0x00);
 432              		.loc 1 127 2 view .LVU84
 433 001e 0020     		movs	r0, #0
 434 0020 FFF7FEFF 		bl	lcd_writeData
 435              	.LVL56:
 128:./Hardware/LCD/SEEKFREE_18TFT.c **** 	lcd_writeData(x_end+2);
 436              		.loc 1 128 2 view .LVU85
 437 0024 B01C     		adds	r0, r6, #2
 438 0026 C0B2     		uxtb	r0, r0
 439 0028 FFF7FEFF 		bl	lcd_writeData
 440              	.LVL57:
 129:./Hardware/LCD/SEEKFREE_18TFT.c **** 
 130:./Hardware/LCD/SEEKFREE_18TFT.c **** 	lcd_writeIndex(0x2b);
 441              		.loc 1 130 2 view .LVU86
 442 002c 2B20     		movs	r0, #43
 443 002e FFF7FEFF 		bl	lcd_writeIndex
 444              	.LVL58:
 131:./Hardware/LCD/SEEKFREE_18TFT.c **** 	lcd_writeData(0x00);
 445              		.loc 1 131 2 view .LVU87
 446 0032 0020     		movs	r0, #0
 447 0034 FFF7FEFF 		bl	lcd_writeData
 448              	.LVL59:
 132:./Hardware/LCD/SEEKFREE_18TFT.c **** 	lcd_writeData(y_start+1);
 449              		.loc 1 132 2 view .LVU88
 450 0038 681C     		adds	r0, r5, #1
 451 003a C0B2     		uxtb	r0, r0
 452 003c FFF7FEFF 		bl	lcd_writeData
 453              	.LVL60:
 133:./Hardware/LCD/SEEKFREE_18TFT.c **** 	lcd_writeData(0x00);
 454              		.loc 1 133 2 view .LVU89
 455 0040 0020     		movs	r0, #0
 456 0042 FFF7FEFF 		bl	lcd_writeData
 457              	.LVL61:
 134:./Hardware/LCD/SEEKFREE_18TFT.c **** 	lcd_writeData(y_end+1);	
 458              		.loc 1 134 2 view .LVU90
 459 0046 601C     		adds	r0, r4, #1
 460 0048 C0B2     		uxtb	r0, r0
 461 004a FFF7FEFF 		bl	lcd_writeData
 462              	.LVL62:
 135:./Hardware/LCD/SEEKFREE_18TFT.c **** 
 136:./Hardware/LCD/SEEKFREE_18TFT.c **** #elif(2 == TFT_DISPLAY_DIR || 3 == TFT_DISPLAY_DIR)
 137:./Hardware/LCD/SEEKFREE_18TFT.c ****     lcd_writeIndex(0x2a);
 138:./Hardware/LCD/SEEKFREE_18TFT.c **** 	lcd_writeData(0x00);
 139:./Hardware/LCD/SEEKFREE_18TFT.c **** 	lcd_writeData(x_start+1);
 140:./Hardware/LCD/SEEKFREE_18TFT.c **** 	lcd_writeData(0x0);
 141:./Hardware/LCD/SEEKFREE_18TFT.c **** 	lcd_writeData(x_end+1);
 142:./Hardware/LCD/SEEKFREE_18TFT.c **** 
 143:./Hardware/LCD/SEEKFREE_18TFT.c **** 	lcd_writeIndex(0x2b);
 144:./Hardware/LCD/SEEKFREE_18TFT.c **** 	lcd_writeData(0x00);
 145:./Hardware/LCD/SEEKFREE_18TFT.c **** 	lcd_writeData(y_start+2);
 146:./Hardware/LCD/SEEKFREE_18TFT.c **** 	lcd_writeData(0x00);
 147:./Hardware/LCD/SEEKFREE_18TFT.c **** 	lcd_writeData(y_end+2);	
 148:./Hardware/LCD/SEEKFREE_18TFT.c **** 
ARM GAS  /tmp/ccnOyTCl.s 			page 12


 149:./Hardware/LCD/SEEKFREE_18TFT.c **** #endif
 150:./Hardware/LCD/SEEKFREE_18TFT.c ****     
 151:./Hardware/LCD/SEEKFREE_18TFT.c ****     lcd_writeIndex(0x2c);
 463              		.loc 1 151 5 view .LVU91
 464 004e 2C20     		movs	r0, #44
 465 0050 FFF7FEFF 		bl	lcd_writeIndex
 466              	.LVL63:
 152:./Hardware/LCD/SEEKFREE_18TFT.c **** }
 467              		.loc 1 152 1 is_stmt 0 view .LVU92
 468 0054 F8BD     		pop	{r3, r4, r5, r6, r7, pc}
 469              		.loc 1 152 1 view .LVU93
 470              		.cfi_endproc
 471              	.LFE739:
 473              		.section	.text.lcd_clear,"ax",%progbits
 474              		.align	1
 475              		.global	lcd_clear
 476              		.syntax unified
 477              		.thumb
 478              		.thumb_func
 479              		.fpu fpv4-sp-d16
 481              	lcd_clear:
 482              	.LVL64:
 483              	.LFB740:
 153:./Hardware/LCD/SEEKFREE_18TFT.c **** 
 154:./Hardware/LCD/SEEKFREE_18TFT.c **** //-------------------------------------------------------------------------------------------------
 155:./Hardware/LCD/SEEKFREE_18TFT.c **** //  @brief      液晶清屏函数
 156:./Hardware/LCD/SEEKFREE_18TFT.c **** //  @param      color     		颜色设置
 157:./Hardware/LCD/SEEKFREE_18TFT.c **** //  @return     void
 158:./Hardware/LCD/SEEKFREE_18TFT.c **** //  @since      v1.0
 159:./Hardware/LCD/SEEKFREE_18TFT.c **** //  Sample usage:               lcd_clear(YELLOW);// 全屏设置为黄色
 160:./Hardware/LCD/SEEKFREE_18TFT.c **** //-------------------------------------------------------------------------------------------------
 161:./Hardware/LCD/SEEKFREE_18TFT.c **** void lcd_clear(int color)
 162:./Hardware/LCD/SEEKFREE_18TFT.c **** {
 484              		.loc 1 162 1 is_stmt 1 view -0
 485              		.cfi_startproc
 486              		@ args = 0, pretend = 0, frame = 0
 487              		@ frame_needed = 0, uses_anonymous_args = 0
 488              		.loc 1 162 1 is_stmt 0 view .LVU95
 489 0000 70B5     		push	{r4, r5, r6, lr}
 490              	.LCFI4:
 491              		.cfi_def_cfa_offset 16
 492              		.cfi_offset 4, -16
 493              		.cfi_offset 5, -12
 494              		.cfi_offset 6, -8
 495              		.cfi_offset 14, -4
 496 0002 0546     		mov	r5, r0
 163:./Hardware/LCD/SEEKFREE_18TFT.c ****  	uint8 i,j;
 497              		.loc 1 163 3 is_stmt 1 view .LVU96
 164:./Hardware/LCD/SEEKFREE_18TFT.c **** 	lcd_set_region(0,0,TFT_X_MAX-1,TFT_Y_MAX-1);
 498              		.loc 1 164 2 view .LVU97
 499 0004 9F23     		movs	r3, #159
 500 0006 7F22     		movs	r2, #127
 501 0008 0021     		movs	r1, #0
 502 000a 0846     		mov	r0, r1
 503              	.LVL65:
 504              		.loc 1 164 2 is_stmt 0 view .LVU98
 505 000c FFF7FEFF 		bl	lcd_set_region
ARM GAS  /tmp/ccnOyTCl.s 			page 13


 506              	.LVL66:
 165:./Hardware/LCD/SEEKFREE_18TFT.c ****  	for (i=0;i<TFT_Y_MAX;i++)
 507              		.loc 1 165 3 is_stmt 1 view .LVU99
 508              		.loc 1 165 9 is_stmt 0 view .LVU100
 509 0010 0026     		movs	r6, #0
 510              		.loc 1 165 3 view .LVU101
 511 0012 09E0     		b	.L32
 512              	.LVL67:
 513              	.L33:
 166:./Hardware/LCD/SEEKFREE_18TFT.c ****     	for (j=0;j<TFT_X_MAX;j++)
 167:./Hardware/LCD/SEEKFREE_18TFT.c ****         	lcd_writedata_16bit(color);
 514              		.loc 1 167 10 is_stmt 1 discriminator 3 view .LVU102
 515 0014 A8B2     		uxth	r0, r5
 516 0016 FFF7FEFF 		bl	lcd_writedata_16bit
 517              	.LVL68:
 166:./Hardware/LCD/SEEKFREE_18TFT.c ****     	for (j=0;j<TFT_X_MAX;j++)
 518              		.loc 1 166 27 discriminator 3 view .LVU103
 166:./Hardware/LCD/SEEKFREE_18TFT.c ****     	for (j=0;j<TFT_X_MAX;j++)
 519              		.loc 1 166 28 is_stmt 0 discriminator 3 view .LVU104
 520 001a 0134     		adds	r4, r4, #1
 521              	.LVL69:
 166:./Hardware/LCD/SEEKFREE_18TFT.c ****     	for (j=0;j<TFT_X_MAX;j++)
 522              		.loc 1 166 28 discriminator 3 view .LVU105
 523 001c E4B2     		uxtb	r4, r4
 524              	.LVL70:
 525              	.L34:
 166:./Hardware/LCD/SEEKFREE_18TFT.c ****     	for (j=0;j<TFT_X_MAX;j++)
 526              		.loc 1 166 15 is_stmt 1 discriminator 1 view .LVU106
 166:./Hardware/LCD/SEEKFREE_18TFT.c ****     	for (j=0;j<TFT_X_MAX;j++)
 527              		.loc 1 166 6 is_stmt 0 discriminator 1 view .LVU107
 528 001e 14F0800F 		tst	r4, #128
 529 0022 F7D0     		beq	.L33
 165:./Hardware/LCD/SEEKFREE_18TFT.c ****  	for (i=0;i<TFT_Y_MAX;i++)
 530              		.loc 1 165 24 is_stmt 1 discriminator 2 view .LVU108
 165:./Hardware/LCD/SEEKFREE_18TFT.c ****  	for (i=0;i<TFT_Y_MAX;i++)
 531              		.loc 1 165 25 is_stmt 0 discriminator 2 view .LVU109
 532 0024 0136     		adds	r6, r6, #1
 533              	.LVL71:
 165:./Hardware/LCD/SEEKFREE_18TFT.c ****  	for (i=0;i<TFT_Y_MAX;i++)
 534              		.loc 1 165 25 discriminator 2 view .LVU110
 535 0026 F6B2     		uxtb	r6, r6
 536              	.LVL72:
 537              	.L32:
 165:./Hardware/LCD/SEEKFREE_18TFT.c ****  	for (i=0;i<TFT_Y_MAX;i++)
 538              		.loc 1 165 12 is_stmt 1 discriminator 1 view .LVU111
 165:./Hardware/LCD/SEEKFREE_18TFT.c ****  	for (i=0;i<TFT_Y_MAX;i++)
 539              		.loc 1 165 3 is_stmt 0 discriminator 1 view .LVU112
 540 0028 9F2E     		cmp	r6, #159
 541 002a 01D8     		bhi	.L37
 166:./Hardware/LCD/SEEKFREE_18TFT.c ****     	for (j=0;j<TFT_X_MAX;j++)
 542              		.loc 1 166 12 view .LVU113
 543 002c 0024     		movs	r4, #0
 544 002e F6E7     		b	.L34
 545              	.L37:
 168:./Hardware/LCD/SEEKFREE_18TFT.c **** }
 546              		.loc 1 168 1 view .LVU114
 547 0030 70BD     		pop	{r4, r5, r6, pc}
ARM GAS  /tmp/ccnOyTCl.s 			page 14


 548              		.loc 1 168 1 view .LVU115
 549              		.cfi_endproc
 550              	.LFE740:
 552              		.section	.text.LCD_Fill,"ax",%progbits
 553              		.align	1
 554              		.global	LCD_Fill
 555              		.syntax unified
 556              		.thumb
 557              		.thumb_func
 558              		.fpu fpv4-sp-d16
 560              	LCD_Fill:
 561              	.LVL73:
 562              	.LFB741:
 169:./Hardware/LCD/SEEKFREE_18TFT.c **** 
 170:./Hardware/LCD/SEEKFREE_18TFT.c **** /******************************************************************************
 171:./Hardware/LCD/SEEKFREE_18TFT.c ****       函数说明：在指定区域填充颜色
 172:./Hardware/LCD/SEEKFREE_18TFT.c ****       入口数据：xsta,ysta   起始坐标
 173:./Hardware/LCD/SEEKFREE_18TFT.c ****                 xend,yend   终止坐标
 174:./Hardware/LCD/SEEKFREE_18TFT.c **** 								color       要填充的颜色
 175:./Hardware/LCD/SEEKFREE_18TFT.c ****       返回值：  无
 176:./Hardware/LCD/SEEKFREE_18TFT.c **** ******************************************************************************/
 177:./Hardware/LCD/SEEKFREE_18TFT.c **** void LCD_Fill(uint16_t xsta,uint16_t ysta,uint16_t xend,uint16_t yend,uint16_t color)
 178:./Hardware/LCD/SEEKFREE_18TFT.c **** {          
 563              		.loc 1 178 1 is_stmt 1 view -0
 564              		.cfi_startproc
 565              		@ args = 4, pretend = 0, frame = 0
 566              		@ frame_needed = 0, uses_anonymous_args = 0
 567              		.loc 1 178 1 is_stmt 0 view .LVU117
 568 0000 2DE9F843 		push	{r3, r4, r5, r6, r7, r8, r9, lr}
 569              	.LCFI5:
 570              		.cfi_def_cfa_offset 32
 571              		.cfi_offset 3, -32
 572              		.cfi_offset 4, -28
 573              		.cfi_offset 5, -24
 574              		.cfi_offset 6, -20
 575              		.cfi_offset 7, -16
 576              		.cfi_offset 8, -12
 577              		.cfi_offset 9, -8
 578              		.cfi_offset 14, -4
 579 0004 8146     		mov	r9, r0
 580 0006 0F46     		mov	r7, r1
 581 0008 1546     		mov	r5, r2
 582 000a 9846     		mov	r8, r3
 583 000c BDF82060 		ldrh	r6, [sp, #32]
 179:./Hardware/LCD/SEEKFREE_18TFT.c **** 	uint16_t i,j; 
 584              		.loc 1 179 2 is_stmt 1 view .LVU118
 180:./Hardware/LCD/SEEKFREE_18TFT.c **** 	lcd_set_region(xsta,ysta,xend-1,yend-1);//设置显示范围
 585              		.loc 1 180 2 view .LVU119
 586 0010 013B     		subs	r3, r3, #1
 587              	.LVL74:
 588              		.loc 1 180 2 is_stmt 0 view .LVU120
 589 0012 013A     		subs	r2, r2, #1
 590              	.LVL75:
 591              		.loc 1 180 2 view .LVU121
 592 0014 FFF7FEFF 		bl	lcd_set_region
 593              	.LVL76:
 181:./Hardware/LCD/SEEKFREE_18TFT.c **** 	for(i=ysta;i<yend;i++)
ARM GAS  /tmp/ccnOyTCl.s 			page 15


 594              		.loc 1 181 2 is_stmt 1 view .LVU122
 595              		.loc 1 181 2 is_stmt 0 view .LVU123
 596 0018 08E0     		b	.L39
 597              	.LVL77:
 598              	.L40:
 182:./Hardware/LCD/SEEKFREE_18TFT.c **** 	{													   	 	
 183:./Hardware/LCD/SEEKFREE_18TFT.c **** 		for(j=xsta;j<xend;j++)
 184:./Hardware/LCD/SEEKFREE_18TFT.c **** 		{
 185:./Hardware/LCD/SEEKFREE_18TFT.c **** 			lcd_writedata_16bit(color);
 599              		.loc 1 185 4 is_stmt 1 discriminator 3 view .LVU124
 600 001a 3046     		mov	r0, r6
 601 001c FFF7FEFF 		bl	lcd_writedata_16bit
 602              	.LVL78:
 183:./Hardware/LCD/SEEKFREE_18TFT.c **** 		{
 603              		.loc 1 183 21 discriminator 3 view .LVU125
 183:./Hardware/LCD/SEEKFREE_18TFT.c **** 		{
 604              		.loc 1 183 22 is_stmt 0 discriminator 3 view .LVU126
 605 0020 0134     		adds	r4, r4, #1
 606              	.LVL79:
 183:./Hardware/LCD/SEEKFREE_18TFT.c **** 		{
 607              		.loc 1 183 22 discriminator 3 view .LVU127
 608 0022 A4B2     		uxth	r4, r4
 609              	.LVL80:
 610              	.L41:
 183:./Hardware/LCD/SEEKFREE_18TFT.c **** 		{
 611              		.loc 1 183 14 is_stmt 1 discriminator 1 view .LVU128
 183:./Hardware/LCD/SEEKFREE_18TFT.c **** 		{
 612              		.loc 1 183 3 is_stmt 0 discriminator 1 view .LVU129
 613 0024 AC42     		cmp	r4, r5
 614 0026 F8D3     		bcc	.L40
 181:./Hardware/LCD/SEEKFREE_18TFT.c **** 	for(i=ysta;i<yend;i++)
 615              		.loc 1 181 20 is_stmt 1 discriminator 2 view .LVU130
 181:./Hardware/LCD/SEEKFREE_18TFT.c **** 	for(i=ysta;i<yend;i++)
 616              		.loc 1 181 21 is_stmt 0 discriminator 2 view .LVU131
 617 0028 0137     		adds	r7, r7, #1
 618              	.LVL81:
 181:./Hardware/LCD/SEEKFREE_18TFT.c **** 	for(i=ysta;i<yend;i++)
 619              		.loc 1 181 21 discriminator 2 view .LVU132
 620 002a BFB2     		uxth	r7, r7
 621              	.LVL82:
 622              	.L39:
 181:./Hardware/LCD/SEEKFREE_18TFT.c **** 	for(i=ysta;i<yend;i++)
 623              		.loc 1 181 13 is_stmt 1 discriminator 1 view .LVU133
 181:./Hardware/LCD/SEEKFREE_18TFT.c **** 	for(i=ysta;i<yend;i++)
 624              		.loc 1 181 2 is_stmt 0 discriminator 1 view .LVU134
 625 002c 4745     		cmp	r7, r8
 626 002e 01D2     		bcs	.L44
 183:./Hardware/LCD/SEEKFREE_18TFT.c **** 		{
 627              		.loc 1 183 8 view .LVU135
 628 0030 4C46     		mov	r4, r9
 629 0032 F7E7     		b	.L41
 630              	.L44:
 186:./Hardware/LCD/SEEKFREE_18TFT.c **** 		}
 187:./Hardware/LCD/SEEKFREE_18TFT.c **** 	} 					  	    
 188:./Hardware/LCD/SEEKFREE_18TFT.c **** }
 631              		.loc 1 188 1 view .LVU136
 632 0034 BDE8F883 		pop	{r3, r4, r5, r6, r7, r8, r9, pc}
ARM GAS  /tmp/ccnOyTCl.s 			page 16


 633              		.loc 1 188 1 view .LVU137
 634              		.cfi_endproc
 635              	.LFE741:
 637              		.section	.text.lcd_init,"ax",%progbits
 638              		.align	1
 639              		.global	lcd_init
 640              		.syntax unified
 641              		.thumb
 642              		.thumb_func
 643              		.fpu fpv4-sp-d16
 645              	lcd_init:
 646              	.LFB742:
 189:./Hardware/LCD/SEEKFREE_18TFT.c **** 
 190:./Hardware/LCD/SEEKFREE_18TFT.c **** 
 191:./Hardware/LCD/SEEKFREE_18TFT.c **** //-------------------------------------------------------------------------------------------------
 192:./Hardware/LCD/SEEKFREE_18TFT.c **** //  @brief      液晶初始化
 193:./Hardware/LCD/SEEKFREE_18TFT.c **** //  @return     void
 194:./Hardware/LCD/SEEKFREE_18TFT.c **** //  @since      v1.0
 195:./Hardware/LCD/SEEKFREE_18TFT.c **** //  Sample usage:               
 196:./Hardware/LCD/SEEKFREE_18TFT.c **** //-------------------------------------------------------------------------------------------------
 197:./Hardware/LCD/SEEKFREE_18TFT.c **** void lcd_init(void)
 198:./Hardware/LCD/SEEKFREE_18TFT.c **** {	
 647              		.loc 1 198 1 is_stmt 1 view -0
 648              		.cfi_startproc
 649              		@ args = 0, pretend = 0, frame = 0
 650              		@ frame_needed = 0, uses_anonymous_args = 0
 651 0000 10B5     		push	{r4, lr}
 652              	.LCFI6:
 653              		.cfi_def_cfa_offset 8
 654              		.cfi_offset 4, -8
 655              		.cfi_offset 14, -4
 199:./Hardware/LCD/SEEKFREE_18TFT.c **** 
 200:./Hardware/LCD/SEEKFREE_18TFT.c **** 
 201:./Hardware/LCD/SEEKFREE_18TFT.c ****     
 202:./Hardware/LCD/SEEKFREE_18TFT.c ****     REST(0);
 656              		.loc 1 202 5 view .LVU139
 657 0002 904C     		ldr	r4, .L47
 658 0004 0022     		movs	r2, #0
 659 0006 1021     		movs	r1, #16
 660 0008 2046     		mov	r0, r4
 661 000a FFF7FEFF 		bl	HAL_GPIO_WritePin
 662              	.LVL83:
 203:./Hardware/LCD/SEEKFREE_18TFT.c ****     HAL_Delay(10);
 663              		.loc 1 203 5 view .LVU140
 664 000e 0A20     		movs	r0, #10
 665 0010 FFF7FEFF 		bl	HAL_Delay
 666              	.LVL84:
 204:./Hardware/LCD/SEEKFREE_18TFT.c ****     REST(1);
 667              		.loc 1 204 5 view .LVU141
 668 0014 0122     		movs	r2, #1
 669 0016 1021     		movs	r1, #16
 670 0018 2046     		mov	r0, r4
 671 001a FFF7FEFF 		bl	HAL_GPIO_WritePin
 672              	.LVL85:
 205:./Hardware/LCD/SEEKFREE_18TFT.c ****     HAL_Delay(120);
 673              		.loc 1 205 5 view .LVU142
 674 001e 7820     		movs	r0, #120
ARM GAS  /tmp/ccnOyTCl.s 			page 17


 675 0020 FFF7FEFF 		bl	HAL_Delay
 676              	.LVL86:
 206:./Hardware/LCD/SEEKFREE_18TFT.c ****     lcd_writeIndex(0x11);
 677              		.loc 1 206 5 view .LVU143
 678 0024 1120     		movs	r0, #17
 679 0026 FFF7FEFF 		bl	lcd_writeIndex
 680              	.LVL87:
 207:./Hardware/LCD/SEEKFREE_18TFT.c ****     HAL_Delay(120);
 681              		.loc 1 207 5 view .LVU144
 682 002a 7820     		movs	r0, #120
 683 002c FFF7FEFF 		bl	HAL_Delay
 684              	.LVL88:
 208:./Hardware/LCD/SEEKFREE_18TFT.c **** 
 209:./Hardware/LCD/SEEKFREE_18TFT.c ****     lcd_writeIndex(0xB1); 
 685              		.loc 1 209 5 view .LVU145
 686 0030 B120     		movs	r0, #177
 687 0032 FFF7FEFF 		bl	lcd_writeIndex
 688              	.LVL89:
 210:./Hardware/LCD/SEEKFREE_18TFT.c ****     lcd_writeData(0x01); 
 689              		.loc 1 210 5 view .LVU146
 690 0036 0120     		movs	r0, #1
 691 0038 FFF7FEFF 		bl	lcd_writeData
 692              	.LVL90:
 211:./Hardware/LCD/SEEKFREE_18TFT.c ****     lcd_writeData(0x2C); 
 693              		.loc 1 211 5 view .LVU147
 694 003c 2C20     		movs	r0, #44
 695 003e FFF7FEFF 		bl	lcd_writeData
 696              	.LVL91:
 212:./Hardware/LCD/SEEKFREE_18TFT.c ****     lcd_writeData(0x2D); 
 697              		.loc 1 212 5 view .LVU148
 698 0042 2D20     		movs	r0, #45
 699 0044 FFF7FEFF 		bl	lcd_writeData
 700              	.LVL92:
 213:./Hardware/LCD/SEEKFREE_18TFT.c ****     
 214:./Hardware/LCD/SEEKFREE_18TFT.c ****     lcd_writeIndex(0xB2); 
 701              		.loc 1 214 5 view .LVU149
 702 0048 B220     		movs	r0, #178
 703 004a FFF7FEFF 		bl	lcd_writeIndex
 704              	.LVL93:
 215:./Hardware/LCD/SEEKFREE_18TFT.c ****     lcd_writeData(0x01); 
 705              		.loc 1 215 5 view .LVU150
 706 004e 0120     		movs	r0, #1
 707 0050 FFF7FEFF 		bl	lcd_writeData
 708              	.LVL94:
 216:./Hardware/LCD/SEEKFREE_18TFT.c ****     lcd_writeData(0x2C); 
 709              		.loc 1 216 5 view .LVU151
 710 0054 2C20     		movs	r0, #44
 711 0056 FFF7FEFF 		bl	lcd_writeData
 712              	.LVL95:
 217:./Hardware/LCD/SEEKFREE_18TFT.c ****     lcd_writeData(0x2D); 
 713              		.loc 1 217 5 view .LVU152
 714 005a 2D20     		movs	r0, #45
 715 005c FFF7FEFF 		bl	lcd_writeData
 716              	.LVL96:
 218:./Hardware/LCD/SEEKFREE_18TFT.c ****     
 219:./Hardware/LCD/SEEKFREE_18TFT.c ****     lcd_writeIndex(0xB3); 
 717              		.loc 1 219 5 view .LVU153
ARM GAS  /tmp/ccnOyTCl.s 			page 18


 718 0060 B320     		movs	r0, #179
 719 0062 FFF7FEFF 		bl	lcd_writeIndex
 720              	.LVL97:
 220:./Hardware/LCD/SEEKFREE_18TFT.c ****     lcd_writeData(0x01); 
 721              		.loc 1 220 5 view .LVU154
 722 0066 0120     		movs	r0, #1
 723 0068 FFF7FEFF 		bl	lcd_writeData
 724              	.LVL98:
 221:./Hardware/LCD/SEEKFREE_18TFT.c ****     lcd_writeData(0x2C); 
 725              		.loc 1 221 5 view .LVU155
 726 006c 2C20     		movs	r0, #44
 727 006e FFF7FEFF 		bl	lcd_writeData
 728              	.LVL99:
 222:./Hardware/LCD/SEEKFREE_18TFT.c ****     lcd_writeData(0x2D); 
 729              		.loc 1 222 5 view .LVU156
 730 0072 2D20     		movs	r0, #45
 731 0074 FFF7FEFF 		bl	lcd_writeData
 732              	.LVL100:
 223:./Hardware/LCD/SEEKFREE_18TFT.c ****     lcd_writeData(0x01); 
 733              		.loc 1 223 5 view .LVU157
 734 0078 0120     		movs	r0, #1
 735 007a FFF7FEFF 		bl	lcd_writeData
 736              	.LVL101:
 224:./Hardware/LCD/SEEKFREE_18TFT.c ****     lcd_writeData(0x2C); 
 737              		.loc 1 224 5 view .LVU158
 738 007e 2C20     		movs	r0, #44
 739 0080 FFF7FEFF 		bl	lcd_writeData
 740              	.LVL102:
 225:./Hardware/LCD/SEEKFREE_18TFT.c ****     lcd_writeData(0x2D); 
 741              		.loc 1 225 5 view .LVU159
 742 0084 2D20     		movs	r0, #45
 743 0086 FFF7FEFF 		bl	lcd_writeData
 744              	.LVL103:
 226:./Hardware/LCD/SEEKFREE_18TFT.c ****     
 227:./Hardware/LCD/SEEKFREE_18TFT.c ****     lcd_writeIndex(0xB4);
 745              		.loc 1 227 5 view .LVU160
 746 008a B420     		movs	r0, #180
 747 008c FFF7FEFF 		bl	lcd_writeIndex
 748              	.LVL104:
 228:./Hardware/LCD/SEEKFREE_18TFT.c ****     lcd_writeData(0x07); 
 749              		.loc 1 228 5 view .LVU161
 750 0090 0720     		movs	r0, #7
 751 0092 FFF7FEFF 		bl	lcd_writeData
 752              	.LVL105:
 229:./Hardware/LCD/SEEKFREE_18TFT.c **** 
 230:./Hardware/LCD/SEEKFREE_18TFT.c ****     lcd_writeIndex(0xC0); 
 753              		.loc 1 230 5 view .LVU162
 754 0096 C020     		movs	r0, #192
 755 0098 FFF7FEFF 		bl	lcd_writeIndex
 756              	.LVL106:
 231:./Hardware/LCD/SEEKFREE_18TFT.c ****     lcd_writeData(0xA2); 
 757              		.loc 1 231 5 view .LVU163
 758 009c A220     		movs	r0, #162
 759 009e FFF7FEFF 		bl	lcd_writeData
 760              	.LVL107:
 232:./Hardware/LCD/SEEKFREE_18TFT.c ****     lcd_writeData(0x02); 
 761              		.loc 1 232 5 view .LVU164
ARM GAS  /tmp/ccnOyTCl.s 			page 19


 762 00a2 0220     		movs	r0, #2
 763 00a4 FFF7FEFF 		bl	lcd_writeData
 764              	.LVL108:
 233:./Hardware/LCD/SEEKFREE_18TFT.c ****     lcd_writeData(0x84); 
 765              		.loc 1 233 5 view .LVU165
 766 00a8 8420     		movs	r0, #132
 767 00aa FFF7FEFF 		bl	lcd_writeData
 768              	.LVL109:
 234:./Hardware/LCD/SEEKFREE_18TFT.c ****     lcd_writeIndex(0xC1); 
 769              		.loc 1 234 5 view .LVU166
 770 00ae C120     		movs	r0, #193
 771 00b0 FFF7FEFF 		bl	lcd_writeIndex
 772              	.LVL110:
 235:./Hardware/LCD/SEEKFREE_18TFT.c ****     lcd_writeData(0xC5); 
 773              		.loc 1 235 5 view .LVU167
 774 00b4 C520     		movs	r0, #197
 775 00b6 FFF7FEFF 		bl	lcd_writeData
 776              	.LVL111:
 236:./Hardware/LCD/SEEKFREE_18TFT.c ****     
 237:./Hardware/LCD/SEEKFREE_18TFT.c ****     lcd_writeIndex(0xC2); 
 777              		.loc 1 237 5 view .LVU168
 778 00ba C220     		movs	r0, #194
 779 00bc FFF7FEFF 		bl	lcd_writeIndex
 780              	.LVL112:
 238:./Hardware/LCD/SEEKFREE_18TFT.c ****     lcd_writeData(0x0A); 
 781              		.loc 1 238 5 view .LVU169
 782 00c0 0A20     		movs	r0, #10
 783 00c2 FFF7FEFF 		bl	lcd_writeData
 784              	.LVL113:
 239:./Hardware/LCD/SEEKFREE_18TFT.c ****     lcd_writeData(0x00); 
 785              		.loc 1 239 5 view .LVU170
 786 00c6 0020     		movs	r0, #0
 787 00c8 FFF7FEFF 		bl	lcd_writeData
 788              	.LVL114:
 240:./Hardware/LCD/SEEKFREE_18TFT.c ****     
 241:./Hardware/LCD/SEEKFREE_18TFT.c ****     lcd_writeIndex(0xC3); 
 789              		.loc 1 241 5 view .LVU171
 790 00cc C320     		movs	r0, #195
 791 00ce FFF7FEFF 		bl	lcd_writeIndex
 792              	.LVL115:
 242:./Hardware/LCD/SEEKFREE_18TFT.c ****     lcd_writeData(0x8A); 
 793              		.loc 1 242 5 view .LVU172
 794 00d2 8A20     		movs	r0, #138
 795 00d4 FFF7FEFF 		bl	lcd_writeData
 796              	.LVL116:
 243:./Hardware/LCD/SEEKFREE_18TFT.c ****     lcd_writeData(0x2A); 
 797              		.loc 1 243 5 view .LVU173
 798 00d8 2A20     		movs	r0, #42
 799 00da FFF7FEFF 		bl	lcd_writeData
 800              	.LVL117:
 244:./Hardware/LCD/SEEKFREE_18TFT.c ****     lcd_writeIndex(0xC4); 
 801              		.loc 1 244 5 view .LVU174
 802 00de C420     		movs	r0, #196
 803 00e0 FFF7FEFF 		bl	lcd_writeIndex
 804              	.LVL118:
 245:./Hardware/LCD/SEEKFREE_18TFT.c ****     lcd_writeData(0x8A); 
 805              		.loc 1 245 5 view .LVU175
ARM GAS  /tmp/ccnOyTCl.s 			page 20


 806 00e4 8A20     		movs	r0, #138
 807 00e6 FFF7FEFF 		bl	lcd_writeData
 808              	.LVL119:
 246:./Hardware/LCD/SEEKFREE_18TFT.c ****     lcd_writeData(0xEE); 
 809              		.loc 1 246 5 view .LVU176
 810 00ea EE20     		movs	r0, #238
 811 00ec FFF7FEFF 		bl	lcd_writeData
 812              	.LVL120:
 247:./Hardware/LCD/SEEKFREE_18TFT.c ****     
 248:./Hardware/LCD/SEEKFREE_18TFT.c ****     lcd_writeIndex(0xC5);
 813              		.loc 1 248 5 view .LVU177
 814 00f0 C520     		movs	r0, #197
 815 00f2 FFF7FEFF 		bl	lcd_writeIndex
 816              	.LVL121:
 249:./Hardware/LCD/SEEKFREE_18TFT.c ****     lcd_writeData(0x0E); 
 817              		.loc 1 249 5 view .LVU178
 818 00f6 0E20     		movs	r0, #14
 819 00f8 FFF7FEFF 		bl	lcd_writeData
 820              	.LVL122:
 250:./Hardware/LCD/SEEKFREE_18TFT.c ****     
 251:./Hardware/LCD/SEEKFREE_18TFT.c ****     lcd_writeIndex(0x36);
 821              		.loc 1 251 5 view .LVU179
 822 00fc 3620     		movs	r0, #54
 823 00fe FFF7FEFF 		bl	lcd_writeIndex
 824              	.LVL123:
 252:./Hardware/LCD/SEEKFREE_18TFT.c ****     switch(TFT_DISPLAY_DIR)//y x v
 825              		.loc 1 252 5 view .LVU180
 253:./Hardware/LCD/SEEKFREE_18TFT.c ****     {
 254:./Hardware/LCD/SEEKFREE_18TFT.c ****         case 0: lcd_writeData(1<<7 | 1<<6 | 0<<5);  break;  //竖屏模式
 826              		.loc 1 254 17 view .LVU181
 827 0102 C020     		movs	r0, #192
 828 0104 FFF7FEFF 		bl	lcd_writeData
 829              	.LVL124:
 830              		.loc 1 254 53 view .LVU182
 255:./Hardware/LCD/SEEKFREE_18TFT.c ****         case 1: lcd_writeData(0<<7 | 0<<6 | 0<<5);  break;  //竖屏模式  旋转180
 256:./Hardware/LCD/SEEKFREE_18TFT.c ****         case 2: lcd_writeData(1<<7 | 0<<6 | 1<<5);  break;  //横屏模式
 257:./Hardware/LCD/SEEKFREE_18TFT.c ****         case 3: lcd_writeData(0<<7 | 1<<6 | 1<<5);  break;  //横屏模式  旋转180
 258:./Hardware/LCD/SEEKFREE_18TFT.c ****     }
 259:./Hardware/LCD/SEEKFREE_18TFT.c **** 
 260:./Hardware/LCD/SEEKFREE_18TFT.c ****     lcd_writeIndex(0xe0); 
 831              		.loc 1 260 5 view .LVU183
 832 0108 E020     		movs	r0, #224
 833 010a FFF7FEFF 		bl	lcd_writeIndex
 834              	.LVL125:
 261:./Hardware/LCD/SEEKFREE_18TFT.c ****     lcd_writeData(0x0f); 
 835              		.loc 1 261 5 view .LVU184
 836 010e 0F20     		movs	r0, #15
 837 0110 FFF7FEFF 		bl	lcd_writeData
 838              	.LVL126:
 262:./Hardware/LCD/SEEKFREE_18TFT.c ****     lcd_writeData(0x1a); 
 839              		.loc 1 262 5 view .LVU185
 840 0114 1A20     		movs	r0, #26
 841 0116 FFF7FEFF 		bl	lcd_writeData
 842              	.LVL127:
 263:./Hardware/LCD/SEEKFREE_18TFT.c ****     lcd_writeData(0x0f); 
 843              		.loc 1 263 5 view .LVU186
 844 011a 0F20     		movs	r0, #15
ARM GAS  /tmp/ccnOyTCl.s 			page 21


 845 011c FFF7FEFF 		bl	lcd_writeData
 846              	.LVL128:
 264:./Hardware/LCD/SEEKFREE_18TFT.c ****     lcd_writeData(0x18); 
 847              		.loc 1 264 5 view .LVU187
 848 0120 1820     		movs	r0, #24
 849 0122 FFF7FEFF 		bl	lcd_writeData
 850              	.LVL129:
 265:./Hardware/LCD/SEEKFREE_18TFT.c ****     lcd_writeData(0x2f); 
 851              		.loc 1 265 5 view .LVU188
 852 0126 2F20     		movs	r0, #47
 853 0128 FFF7FEFF 		bl	lcd_writeData
 854              	.LVL130:
 266:./Hardware/LCD/SEEKFREE_18TFT.c ****     lcd_writeData(0x28); 
 855              		.loc 1 266 5 view .LVU189
 856 012c 2820     		movs	r0, #40
 857 012e FFF7FEFF 		bl	lcd_writeData
 858              	.LVL131:
 267:./Hardware/LCD/SEEKFREE_18TFT.c ****     lcd_writeData(0x20); 
 859              		.loc 1 267 5 view .LVU190
 860 0132 2020     		movs	r0, #32
 861 0134 FFF7FEFF 		bl	lcd_writeData
 862              	.LVL132:
 268:./Hardware/LCD/SEEKFREE_18TFT.c ****     lcd_writeData(0x22); 
 863              		.loc 1 268 5 view .LVU191
 864 0138 2220     		movs	r0, #34
 865 013a FFF7FEFF 		bl	lcd_writeData
 866              	.LVL133:
 269:./Hardware/LCD/SEEKFREE_18TFT.c ****     lcd_writeData(0x1f); 
 867              		.loc 1 269 5 view .LVU192
 868 013e 1F20     		movs	r0, #31
 869 0140 FFF7FEFF 		bl	lcd_writeData
 870              	.LVL134:
 270:./Hardware/LCD/SEEKFREE_18TFT.c ****     lcd_writeData(0x1b); 
 871              		.loc 1 270 5 view .LVU193
 872 0144 1B20     		movs	r0, #27
 873 0146 FFF7FEFF 		bl	lcd_writeData
 874              	.LVL135:
 271:./Hardware/LCD/SEEKFREE_18TFT.c ****     lcd_writeData(0x23); 
 875              		.loc 1 271 5 view .LVU194
 876 014a 2320     		movs	r0, #35
 877 014c FFF7FEFF 		bl	lcd_writeData
 878              	.LVL136:
 272:./Hardware/LCD/SEEKFREE_18TFT.c ****     lcd_writeData(0x37); 
 879              		.loc 1 272 5 view .LVU195
 880 0150 3720     		movs	r0, #55
 881 0152 FFF7FEFF 		bl	lcd_writeData
 882              	.LVL137:
 273:./Hardware/LCD/SEEKFREE_18TFT.c ****     lcd_writeData(0x00); 	
 883              		.loc 1 273 5 view .LVU196
 884 0156 0020     		movs	r0, #0
 885 0158 FFF7FEFF 		bl	lcd_writeData
 886              	.LVL138:
 274:./Hardware/LCD/SEEKFREE_18TFT.c ****     lcd_writeData(0x07); 
 887              		.loc 1 274 5 view .LVU197
 888 015c 0720     		movs	r0, #7
 889 015e FFF7FEFF 		bl	lcd_writeData
 890              	.LVL139:
ARM GAS  /tmp/ccnOyTCl.s 			page 22


 275:./Hardware/LCD/SEEKFREE_18TFT.c ****     lcd_writeData(0x02); 
 891              		.loc 1 275 5 view .LVU198
 892 0162 0220     		movs	r0, #2
 893 0164 FFF7FEFF 		bl	lcd_writeData
 894              	.LVL140:
 276:./Hardware/LCD/SEEKFREE_18TFT.c ****     lcd_writeData(0x10); 
 895              		.loc 1 276 5 view .LVU199
 896 0168 1020     		movs	r0, #16
 897 016a FFF7FEFF 		bl	lcd_writeData
 898              	.LVL141:
 277:./Hardware/LCD/SEEKFREE_18TFT.c ****     
 278:./Hardware/LCD/SEEKFREE_18TFT.c ****     lcd_writeIndex(0xe1); 
 899              		.loc 1 278 5 view .LVU200
 900 016e E120     		movs	r0, #225
 901 0170 FFF7FEFF 		bl	lcd_writeIndex
 902              	.LVL142:
 279:./Hardware/LCD/SEEKFREE_18TFT.c ****     lcd_writeData(0x0f); 
 903              		.loc 1 279 5 view .LVU201
 904 0174 0F20     		movs	r0, #15
 905 0176 FFF7FEFF 		bl	lcd_writeData
 906              	.LVL143:
 280:./Hardware/LCD/SEEKFREE_18TFT.c ****     lcd_writeData(0x1b); 
 907              		.loc 1 280 5 view .LVU202
 908 017a 1B20     		movs	r0, #27
 909 017c FFF7FEFF 		bl	lcd_writeData
 910              	.LVL144:
 281:./Hardware/LCD/SEEKFREE_18TFT.c ****     lcd_writeData(0x0f); 
 911              		.loc 1 281 5 view .LVU203
 912 0180 0F20     		movs	r0, #15
 913 0182 FFF7FEFF 		bl	lcd_writeData
 914              	.LVL145:
 282:./Hardware/LCD/SEEKFREE_18TFT.c ****     lcd_writeData(0x17); 
 915              		.loc 1 282 5 view .LVU204
 916 0186 1720     		movs	r0, #23
 917 0188 FFF7FEFF 		bl	lcd_writeData
 918              	.LVL146:
 283:./Hardware/LCD/SEEKFREE_18TFT.c ****     lcd_writeData(0x33); 
 919              		.loc 1 283 5 view .LVU205
 920 018c 3320     		movs	r0, #51
 921 018e FFF7FEFF 		bl	lcd_writeData
 922              	.LVL147:
 284:./Hardware/LCD/SEEKFREE_18TFT.c ****     lcd_writeData(0x2c); 
 923              		.loc 1 284 5 view .LVU206
 924 0192 2C20     		movs	r0, #44
 925 0194 FFF7FEFF 		bl	lcd_writeData
 926              	.LVL148:
 285:./Hardware/LCD/SEEKFREE_18TFT.c ****     lcd_writeData(0x29); 
 927              		.loc 1 285 5 view .LVU207
 928 0198 2920     		movs	r0, #41
 929 019a FFF7FEFF 		bl	lcd_writeData
 930              	.LVL149:
 286:./Hardware/LCD/SEEKFREE_18TFT.c ****     lcd_writeData(0x2e); 
 931              		.loc 1 286 5 view .LVU208
 932 019e 2E20     		movs	r0, #46
 933 01a0 FFF7FEFF 		bl	lcd_writeData
 934              	.LVL150:
 287:./Hardware/LCD/SEEKFREE_18TFT.c ****     lcd_writeData(0x30); 
ARM GAS  /tmp/ccnOyTCl.s 			page 23


 935              		.loc 1 287 5 view .LVU209
 936 01a4 3020     		movs	r0, #48
 937 01a6 FFF7FEFF 		bl	lcd_writeData
 938              	.LVL151:
 288:./Hardware/LCD/SEEKFREE_18TFT.c ****     lcd_writeData(0x30); 
 939              		.loc 1 288 5 view .LVU210
 940 01aa 3020     		movs	r0, #48
 941 01ac FFF7FEFF 		bl	lcd_writeData
 942              	.LVL152:
 289:./Hardware/LCD/SEEKFREE_18TFT.c ****     lcd_writeData(0x39); 
 943              		.loc 1 289 5 view .LVU211
 944 01b0 3920     		movs	r0, #57
 945 01b2 FFF7FEFF 		bl	lcd_writeData
 946              	.LVL153:
 290:./Hardware/LCD/SEEKFREE_18TFT.c ****     lcd_writeData(0x3f); 
 947              		.loc 1 290 5 view .LVU212
 948 01b6 3F20     		movs	r0, #63
 949 01b8 FFF7FEFF 		bl	lcd_writeData
 950              	.LVL154:
 291:./Hardware/LCD/SEEKFREE_18TFT.c ****     lcd_writeData(0x00); 
 951              		.loc 1 291 5 view .LVU213
 952 01bc 0020     		movs	r0, #0
 953 01be FFF7FEFF 		bl	lcd_writeData
 954              	.LVL155:
 292:./Hardware/LCD/SEEKFREE_18TFT.c ****     lcd_writeData(0x07); 
 955              		.loc 1 292 5 view .LVU214
 956 01c2 0720     		movs	r0, #7
 957 01c4 FFF7FEFF 		bl	lcd_writeData
 958              	.LVL156:
 293:./Hardware/LCD/SEEKFREE_18TFT.c ****     lcd_writeData(0x03); 
 959              		.loc 1 293 5 view .LVU215
 960 01c8 0320     		movs	r0, #3
 961 01ca FFF7FEFF 		bl	lcd_writeData
 962              	.LVL157:
 294:./Hardware/LCD/SEEKFREE_18TFT.c ****     lcd_writeData(0x10);  
 963              		.loc 1 294 5 view .LVU216
 964 01ce 1020     		movs	r0, #16
 965 01d0 FFF7FEFF 		bl	lcd_writeData
 966              	.LVL158:
 295:./Hardware/LCD/SEEKFREE_18TFT.c ****     
 296:./Hardware/LCD/SEEKFREE_18TFT.c ****     lcd_writeIndex(0x2a);
 967              		.loc 1 296 5 view .LVU217
 968 01d4 2A20     		movs	r0, #42
 969 01d6 FFF7FEFF 		bl	lcd_writeIndex
 970              	.LVL159:
 297:./Hardware/LCD/SEEKFREE_18TFT.c ****     lcd_writeData(0x00);
 971              		.loc 1 297 5 view .LVU218
 972 01da 0020     		movs	r0, #0
 973 01dc FFF7FEFF 		bl	lcd_writeData
 974              	.LVL160:
 298:./Hardware/LCD/SEEKFREE_18TFT.c ****     lcd_writeData(0x00+2);
 975              		.loc 1 298 5 view .LVU219
 976 01e0 0220     		movs	r0, #2
 977 01e2 FFF7FEFF 		bl	lcd_writeData
 978              	.LVL161:
 299:./Hardware/LCD/SEEKFREE_18TFT.c ****     lcd_writeData(0x00);
 979              		.loc 1 299 5 view .LVU220
ARM GAS  /tmp/ccnOyTCl.s 			page 24


 980 01e6 0020     		movs	r0, #0
 981 01e8 FFF7FEFF 		bl	lcd_writeData
 982              	.LVL162:
 300:./Hardware/LCD/SEEKFREE_18TFT.c ****     lcd_writeData(0x80+2);
 983              		.loc 1 300 5 view .LVU221
 984 01ec 8220     		movs	r0, #130
 985 01ee FFF7FEFF 		bl	lcd_writeData
 986              	.LVL163:
 301:./Hardware/LCD/SEEKFREE_18TFT.c ****     
 302:./Hardware/LCD/SEEKFREE_18TFT.c ****     lcd_writeIndex(0x2b);
 987              		.loc 1 302 5 view .LVU222
 988 01f2 2B20     		movs	r0, #43
 989 01f4 FFF7FEFF 		bl	lcd_writeIndex
 990              	.LVL164:
 303:./Hardware/LCD/SEEKFREE_18TFT.c ****     lcd_writeData(0x00);
 991              		.loc 1 303 5 view .LVU223
 992 01f8 0020     		movs	r0, #0
 993 01fa FFF7FEFF 		bl	lcd_writeData
 994              	.LVL165:
 304:./Hardware/LCD/SEEKFREE_18TFT.c ****     lcd_writeData(0x00+3);
 995              		.loc 1 304 5 view .LVU224
 996 01fe 0320     		movs	r0, #3
 997 0200 FFF7FEFF 		bl	lcd_writeData
 998              	.LVL166:
 305:./Hardware/LCD/SEEKFREE_18TFT.c ****     lcd_writeData(0x00);
 999              		.loc 1 305 5 view .LVU225
 1000 0204 0020     		movs	r0, #0
 1001 0206 FFF7FEFF 		bl	lcd_writeData
 1002              	.LVL167:
 306:./Hardware/LCD/SEEKFREE_18TFT.c ****     lcd_writeData(0x80+3);
 1003              		.loc 1 306 5 view .LVU226
 1004 020a 8320     		movs	r0, #131
 1005 020c FFF7FEFF 		bl	lcd_writeData
 1006              	.LVL168:
 307:./Hardware/LCD/SEEKFREE_18TFT.c ****     
 308:./Hardware/LCD/SEEKFREE_18TFT.c ****     lcd_writeIndex(0xF0); 
 1007              		.loc 1 308 5 view .LVU227
 1008 0210 F020     		movs	r0, #240
 1009 0212 FFF7FEFF 		bl	lcd_writeIndex
 1010              	.LVL169:
 309:./Hardware/LCD/SEEKFREE_18TFT.c ****     lcd_writeData(0x01); 
 1011              		.loc 1 309 5 view .LVU228
 1012 0216 0120     		movs	r0, #1
 1013 0218 FFF7FEFF 		bl	lcd_writeData
 1014              	.LVL170:
 310:./Hardware/LCD/SEEKFREE_18TFT.c ****     lcd_writeIndex(0xF6);
 1015              		.loc 1 310 5 view .LVU229
 1016 021c F620     		movs	r0, #246
 1017 021e FFF7FEFF 		bl	lcd_writeIndex
 1018              	.LVL171:
 311:./Hardware/LCD/SEEKFREE_18TFT.c ****     lcd_writeData(0x00); 
 1019              		.loc 1 311 5 view .LVU230
 1020 0222 0020     		movs	r0, #0
 1021 0224 FFF7FEFF 		bl	lcd_writeData
 1022              	.LVL172:
 312:./Hardware/LCD/SEEKFREE_18TFT.c ****     
 313:./Hardware/LCD/SEEKFREE_18TFT.c ****     lcd_writeIndex(0x3A);
ARM GAS  /tmp/ccnOyTCl.s 			page 25


 1023              		.loc 1 313 5 view .LVU231
 1024 0228 3A20     		movs	r0, #58
 1025 022a FFF7FEFF 		bl	lcd_writeIndex
 1026              	.LVL173:
 314:./Hardware/LCD/SEEKFREE_18TFT.c ****     lcd_writeData(0x05); 
 1027              		.loc 1 314 5 view .LVU232
 1028 022e 0520     		movs	r0, #5
 1029 0230 FFF7FEFF 		bl	lcd_writeData
 1030              	.LVL174:
 315:./Hardware/LCD/SEEKFREE_18TFT.c ****     lcd_writeIndex(0x29);
 1031              		.loc 1 315 5 view .LVU233
 1032 0234 2920     		movs	r0, #41
 1033 0236 FFF7FEFF 		bl	lcd_writeIndex
 1034              	.LVL175:
 316:./Hardware/LCD/SEEKFREE_18TFT.c **** 
 317:./Hardware/LCD/SEEKFREE_18TFT.c ****     lcd_clear(WHITE);//全白
 1035              		.loc 1 317 5 view .LVU234
 1036 023a 4FF6FF70 		movw	r0, #65535
 1037 023e FFF7FEFF 		bl	lcd_clear
 1038              	.LVL176:
 318:./Hardware/LCD/SEEKFREE_18TFT.c **** }
 1039              		.loc 1 318 1 is_stmt 0 view .LVU235
 1040 0242 10BD     		pop	{r4, pc}
 1041              	.L48:
 1042              		.align	2
 1043              	.L47:
 1044 0244 00080240 		.word	1073874944
 1045              		.cfi_endproc
 1046              	.LFE742:
 1048              		.section	.text.lcd_drawpoint,"ax",%progbits
 1049              		.align	1
 1050              		.global	lcd_drawpoint
 1051              		.syntax unified
 1052              		.thumb
 1053              		.thumb_func
 1054              		.fpu fpv4-sp-d16
 1056              	lcd_drawpoint:
 1057              	.LVL177:
 1058              	.LFB743:
 319:./Hardware/LCD/SEEKFREE_18TFT.c **** 
 320:./Hardware/LCD/SEEKFREE_18TFT.c **** 
 321:./Hardware/LCD/SEEKFREE_18TFT.c **** //-------------------------------------------------------------------------------------------------
 322:./Hardware/LCD/SEEKFREE_18TFT.c **** //  @brief      液晶画点
 323:./Hardware/LCD/SEEKFREE_18TFT.c **** //  @param      x     	        坐标x方向的起点
 324:./Hardware/LCD/SEEKFREE_18TFT.c **** //  @param      y     	        坐标y方向的起点
 325:./Hardware/LCD/SEEKFREE_18TFT.c **** //  @param      dat       	    需要显示的颜色
 326:./Hardware/LCD/SEEKFREE_18TFT.c **** //  @return     void
 327:./Hardware/LCD/SEEKFREE_18TFT.c **** //  @since      v1.0
 328:./Hardware/LCD/SEEKFREE_18TFT.c **** //  Sample usage:               lcd_drawpoint(0,0,RED);  //坐标0,0画一个红色的点
 329:./Hardware/LCD/SEEKFREE_18TFT.c **** //-------------------------------------------------------------------------------------------------
 330:./Hardware/LCD/SEEKFREE_18TFT.c **** void lcd_drawpoint(uint16 x,uint16 y,uint16 color)
 331:./Hardware/LCD/SEEKFREE_18TFT.c **** {
 1059              		.loc 1 331 1 is_stmt 1 view -0
 1060              		.cfi_startproc
 1061              		@ args = 0, pretend = 0, frame = 0
 1062              		@ frame_needed = 0, uses_anonymous_args = 0
 1063              		.loc 1 331 1 is_stmt 0 view .LVU237
ARM GAS  /tmp/ccnOyTCl.s 			page 26


 1064 0000 10B5     		push	{r4, lr}
 1065              	.LCFI7:
 1066              		.cfi_def_cfa_offset 8
 1067              		.cfi_offset 4, -8
 1068              		.cfi_offset 14, -4
 1069 0002 0B46     		mov	r3, r1
 1070 0004 1446     		mov	r4, r2
 332:./Hardware/LCD/SEEKFREE_18TFT.c ****     lcd_set_region(x,y,x,y);
 1071              		.loc 1 332 5 is_stmt 1 view .LVU238
 1072 0006 0246     		mov	r2, r0
 1073              	.LVL178:
 1074              		.loc 1 332 5 is_stmt 0 view .LVU239
 1075 0008 FFF7FEFF 		bl	lcd_set_region
 1076              	.LVL179:
 333:./Hardware/LCD/SEEKFREE_18TFT.c ****     lcd_writedata_16bit(color);
 1077              		.loc 1 333 5 is_stmt 1 view .LVU240
 1078 000c 2046     		mov	r0, r4
 1079 000e FFF7FEFF 		bl	lcd_writedata_16bit
 1080              	.LVL180:
 334:./Hardware/LCD/SEEKFREE_18TFT.c **** }
 1081              		.loc 1 334 1 is_stmt 0 view .LVU241
 1082 0012 10BD     		pop	{r4, pc}
 1083              		.cfi_endproc
 1084              	.LFE743:
 1086              		.section	.text.LCD_DrawLine,"ax",%progbits
 1087              		.align	1
 1088              		.global	LCD_DrawLine
 1089              		.syntax unified
 1090              		.thumb
 1091              		.thumb_func
 1092              		.fpu fpv4-sp-d16
 1094              	LCD_DrawLine:
 1095              	.LVL181:
 1096              	.LFB744:
 335:./Hardware/LCD/SEEKFREE_18TFT.c **** 
 336:./Hardware/LCD/SEEKFREE_18TFT.c **** /******************************************************************************
 337:./Hardware/LCD/SEEKFREE_18TFT.c ****       函数说明：画线
 338:./Hardware/LCD/SEEKFREE_18TFT.c ****       入口数据：x1,y1   起始坐标
 339:./Hardware/LCD/SEEKFREE_18TFT.c ****                 x2,y2   终止坐标
 340:./Hardware/LCD/SEEKFREE_18TFT.c ****                 color   线的颜色
 341:./Hardware/LCD/SEEKFREE_18TFT.c ****       返回值：  无
 342:./Hardware/LCD/SEEKFREE_18TFT.c **** ******************************************************************************/
 343:./Hardware/LCD/SEEKFREE_18TFT.c **** void LCD_DrawLine(uint16_t x1,uint16_t y1,uint16_t x2,uint16_t y2,uint16_t color)
 344:./Hardware/LCD/SEEKFREE_18TFT.c **** {
 1097              		.loc 1 344 1 is_stmt 1 view -0
 1098              		.cfi_startproc
 1099              		@ args = 4, pretend = 0, frame = 16
 1100              		@ frame_needed = 0, uses_anonymous_args = 0
 1101              		.loc 1 344 1 is_stmt 0 view .LVU243
 1102 0000 2DE9F04F 		push	{r4, r5, r6, r7, r8, r9, r10, fp, lr}
 1103              	.LCFI8:
 1104              		.cfi_def_cfa_offset 36
 1105              		.cfi_offset 4, -36
 1106              		.cfi_offset 5, -32
 1107              		.cfi_offset 6, -28
 1108              		.cfi_offset 7, -24
 1109              		.cfi_offset 8, -20
ARM GAS  /tmp/ccnOyTCl.s 			page 27


 1110              		.cfi_offset 9, -16
 1111              		.cfi_offset 10, -12
 1112              		.cfi_offset 11, -8
 1113              		.cfi_offset 14, -4
 1114 0004 85B0     		sub	sp, sp, #20
 1115              	.LCFI9:
 1116              		.cfi_def_cfa_offset 56
 1117 0006 BDF83840 		ldrh	r4, [sp, #56]
 1118 000a 0194     		str	r4, [sp, #4]
 345:./Hardware/LCD/SEEKFREE_18TFT.c **** 	uint16_t t; 
 1119              		.loc 1 345 2 is_stmt 1 view .LVU244
 346:./Hardware/LCD/SEEKFREE_18TFT.c **** 	int xerr=0,yerr=0,delta_x,delta_y,distance;
 1120              		.loc 1 346 2 view .LVU245
 1121              	.LVL182:
 347:./Hardware/LCD/SEEKFREE_18TFT.c **** 	int incx,incy,uRow,uCol;
 1122              		.loc 1 347 2 view .LVU246
 348:./Hardware/LCD/SEEKFREE_18TFT.c **** 	delta_x=x2-x1; //计算坐标增量 
 1123              		.loc 1 348 2 view .LVU247
 1124              		.loc 1 348 12 is_stmt 0 view .LVU248
 1125 000c 8046     		mov	r8, r0
 1126              		.loc 1 348 9 view .LVU249
 1127 000e A2EB000A 		sub	r10, r2, r0
 1128              	.LVL183:
 349:./Hardware/LCD/SEEKFREE_18TFT.c **** 	delta_y=y2-y1;
 1129              		.loc 1 349 2 is_stmt 1 view .LVU250
 1130              		.loc 1 349 12 is_stmt 0 view .LVU251
 1131 0012 8946     		mov	r9, r1
 1132              		.loc 1 349 9 view .LVU252
 1133 0014 A3EB010B 		sub	fp, r3, r1
 1134              	.LVL184:
 350:./Hardware/LCD/SEEKFREE_18TFT.c **** 	uRow=x1;//画线起点坐标
 1135              		.loc 1 350 2 is_stmt 1 view .LVU253
 351:./Hardware/LCD/SEEKFREE_18TFT.c **** 	uCol=y1;
 1136              		.loc 1 351 2 view .LVU254
 352:./Hardware/LCD/SEEKFREE_18TFT.c **** 	if(delta_x>0)incx=1; //设置单步方向 
 1137              		.loc 1 352 2 view .LVU255
 1138              		.loc 1 352 4 is_stmt 0 view .LVU256
 1139 0018 BAF1000F 		cmp	r10, #0
 1140 001c 0DDD     		ble	.L65
 1141              		.loc 1 352 19 view .LVU257
 1142 001e 0122     		movs	r2, #1
 1143              	.LVL185:
 1144              		.loc 1 352 19 view .LVU258
 1145 0020 0292     		str	r2, [sp, #8]
 1146              	.L52:
 1147              	.LVL186:
 353:./Hardware/LCD/SEEKFREE_18TFT.c **** 	else if (delta_x==0)incx=0;//垂直线 
 354:./Hardware/LCD/SEEKFREE_18TFT.c **** 	else {incx=-1;delta_x=-delta_x;}
 355:./Hardware/LCD/SEEKFREE_18TFT.c **** 	if(delta_y>0)incy=1;
 1148              		.loc 1 355 2 is_stmt 1 view .LVU259
 1149              		.loc 1 355 4 is_stmt 0 view .LVU260
 1150 0022 BBF1000F 		cmp	fp, #0
 1151 0026 14DD     		ble	.L66
 1152              		.loc 1 355 19 view .LVU261
 1153 0028 0123     		movs	r3, #1
 1154              	.LVL187:
 1155              		.loc 1 355 19 view .LVU262
ARM GAS  /tmp/ccnOyTCl.s 			page 28


 1156 002a 0393     		str	r3, [sp, #12]
 1157              	.L53:
 1158              	.LVL188:
 356:./Hardware/LCD/SEEKFREE_18TFT.c **** 	else if (delta_y==0)incy=0;//水平线 
 357:./Hardware/LCD/SEEKFREE_18TFT.c **** 	else {incy=-1;delta_y=-delta_y;}
 358:./Hardware/LCD/SEEKFREE_18TFT.c **** 	if(delta_x>delta_y)distance=delta_x; //选取基本增量坐标轴 
 1159              		.loc 1 358 2 is_stmt 1 view .LVU263
 1160              		.loc 1 358 4 is_stmt 0 view .LVU264
 1161 002c DA45     		cmp	r10, fp
 1162 002e 1CDD     		ble	.L63
 1163              		.loc 1 358 29 view .LVU265
 1164 0030 5646     		mov	r6, r10
 1165              	.L54:
 1166              	.LVL189:
 359:./Hardware/LCD/SEEKFREE_18TFT.c **** 	else distance=delta_y;
 360:./Hardware/LCD/SEEKFREE_18TFT.c **** 	for(t=0;t<distance+1;t++)
 1167              		.loc 1 360 2 is_stmt 1 view .LVU266
 346:./Hardware/LCD/SEEKFREE_18TFT.c **** 	int incx,incy,uRow,uCol;
 1168              		.loc 1 346 13 is_stmt 0 view .LVU267
 1169 0032 0025     		movs	r5, #0
 346:./Hardware/LCD/SEEKFREE_18TFT.c **** 	int incx,incy,uRow,uCol;
 1170              		.loc 1 346 6 view .LVU268
 1171 0034 2F46     		mov	r7, r5
 1172              		.loc 1 360 7 view .LVU269
 1173 0036 2C46     		mov	r4, r5
 1174              		.loc 1 360 2 view .LVU270
 1175 0038 1BE0     		b	.L55
 1176              	.LVL190:
 1177              	.L65:
 353:./Hardware/LCD/SEEKFREE_18TFT.c **** 	else {incx=-1;delta_x=-delta_x;}
 1178              		.loc 1 353 7 is_stmt 1 view .LVU271
 353:./Hardware/LCD/SEEKFREE_18TFT.c **** 	else {incx=-1;delta_x=-delta_x;}
 1179              		.loc 1 353 10 is_stmt 0 view .LVU272
 1180 003a BAF1000F 		cmp	r10, #0
 1181 003e 05D0     		beq	.L60
 354:./Hardware/LCD/SEEKFREE_18TFT.c **** 	if(delta_y>0)incy=1;
 1182              		.loc 1 354 8 is_stmt 1 view .LVU273
 1183              	.LVL191:
 354:./Hardware/LCD/SEEKFREE_18TFT.c **** 	if(delta_y>0)incy=1;
 1184              		.loc 1 354 16 view .LVU274
 354:./Hardware/LCD/SEEKFREE_18TFT.c **** 	if(delta_y>0)incy=1;
 1185              		.loc 1 354 23 is_stmt 0 view .LVU275
 1186 0040 A0EB020A 		sub	r10, r0, r2
 1187              	.LVL192:
 354:./Hardware/LCD/SEEKFREE_18TFT.c **** 	if(delta_y>0)incy=1;
 1188              		.loc 1 354 12 view .LVU276
 1189 0044 4FF0FF32 		mov	r2, #-1
 1190              	.LVL193:
 354:./Hardware/LCD/SEEKFREE_18TFT.c **** 	if(delta_y>0)incy=1;
 1191              		.loc 1 354 12 view .LVU277
 1192 0048 0292     		str	r2, [sp, #8]
 1193 004a EAE7     		b	.L52
 1194              	.LVL194:
 1195              	.L60:
 353:./Hardware/LCD/SEEKFREE_18TFT.c **** 	else {incx=-1;delta_x=-delta_x;}
 1196              		.loc 1 353 26 view .LVU278
 1197 004c CDF808A0 		str	r10, [sp, #8]
ARM GAS  /tmp/ccnOyTCl.s 			page 29


 1198 0050 E7E7     		b	.L52
 1199              	.LVL195:
 1200              	.L66:
 356:./Hardware/LCD/SEEKFREE_18TFT.c **** 	else {incy=-1;delta_y=-delta_y;}
 1201              		.loc 1 356 7 is_stmt 1 view .LVU279
 356:./Hardware/LCD/SEEKFREE_18TFT.c **** 	else {incy=-1;delta_y=-delta_y;}
 1202              		.loc 1 356 10 is_stmt 0 view .LVU280
 1203 0052 BBF1000F 		cmp	fp, #0
 1204 0056 05D0     		beq	.L62
 357:./Hardware/LCD/SEEKFREE_18TFT.c **** 	if(delta_x>delta_y)distance=delta_x; //选取基本增量坐标轴 
 1205              		.loc 1 357 8 is_stmt 1 view .LVU281
 1206              	.LVL196:
 357:./Hardware/LCD/SEEKFREE_18TFT.c **** 	if(delta_x>delta_y)distance=delta_x; //选取基本增量坐标轴 
 1207              		.loc 1 357 16 view .LVU282
 357:./Hardware/LCD/SEEKFREE_18TFT.c **** 	if(delta_x>delta_y)distance=delta_x; //选取基本增量坐标轴 
 1208              		.loc 1 357 23 is_stmt 0 view .LVU283
 1209 0058 A1EB030B 		sub	fp, r1, r3
 1210              	.LVL197:
 357:./Hardware/LCD/SEEKFREE_18TFT.c **** 	if(delta_x>delta_y)distance=delta_x; //选取基本增量坐标轴 
 1211              		.loc 1 357 12 view .LVU284
 1212 005c 4FF0FF33 		mov	r3, #-1
 1213              	.LVL198:
 357:./Hardware/LCD/SEEKFREE_18TFT.c **** 	if(delta_x>delta_y)distance=delta_x; //选取基本增量坐标轴 
 1214              		.loc 1 357 12 view .LVU285
 1215 0060 0393     		str	r3, [sp, #12]
 1216 0062 E3E7     		b	.L53
 1217              	.LVL199:
 1218              	.L62:
 356:./Hardware/LCD/SEEKFREE_18TFT.c **** 	else {incy=-1;delta_y=-delta_y;}
 1219              		.loc 1 356 26 view .LVU286
 1220 0064 CDF80CB0 		str	fp, [sp, #12]
 1221 0068 E0E7     		b	.L53
 1222              	.LVL200:
 1223              	.L63:
 359:./Hardware/LCD/SEEKFREE_18TFT.c **** 	for(t=0;t<distance+1;t++)
 1224              		.loc 1 359 15 view .LVU287
 1225 006a 5E46     		mov	r6, fp
 1226 006c E1E7     		b	.L54
 1227              	.LVL201:
 1228              	.L57:
 1229              		.loc 1 360 23 is_stmt 1 discriminator 2 view .LVU288
 1230              		.loc 1 360 24 is_stmt 0 discriminator 2 view .LVU289
 1231 006e 0134     		adds	r4, r4, #1
 1232              	.LVL202:
 1233              		.loc 1 360 24 discriminator 2 view .LVU290
 1234 0070 A4B2     		uxth	r4, r4
 1235              	.LVL203:
 1236              	.L55:
 1237              		.loc 1 360 10 is_stmt 1 discriminator 1 view .LVU291
 1238              		.loc 1 360 2 is_stmt 0 discriminator 1 view .LVU292
 1239 0072 B442     		cmp	r4, r6
 1240 0074 13DC     		bgt	.L67
 361:./Hardware/LCD/SEEKFREE_18TFT.c **** 	{
 362:./Hardware/LCD/SEEKFREE_18TFT.c **** 		lcd_drawpoint(uRow,uCol,color);//画点
 1241              		.loc 1 362 3 is_stmt 1 view .LVU293
 1242 0076 019A     		ldr	r2, [sp, #4]
 1243 0078 1FFA89F1 		uxth	r1, r9
ARM GAS  /tmp/ccnOyTCl.s 			page 30


 1244 007c 1FFA88F0 		uxth	r0, r8
 1245 0080 FFF7FEFF 		bl	lcd_drawpoint
 1246              	.LVL204:
 363:./Hardware/LCD/SEEKFREE_18TFT.c **** 		xerr+=delta_x;
 1247              		.loc 1 363 3 view .LVU294
 1248              		.loc 1 363 7 is_stmt 0 view .LVU295
 1249 0084 5744     		add	r7, r7, r10
 1250              	.LVL205:
 364:./Hardware/LCD/SEEKFREE_18TFT.c **** 		yerr+=delta_y;
 1251              		.loc 1 364 3 is_stmt 1 view .LVU296
 1252              		.loc 1 364 7 is_stmt 0 view .LVU297
 1253 0086 5D44     		add	r5, r5, fp
 1254              	.LVL206:
 365:./Hardware/LCD/SEEKFREE_18TFT.c **** 		if(xerr>distance)
 1255              		.loc 1 365 3 is_stmt 1 view .LVU298
 1256              		.loc 1 365 5 is_stmt 0 view .LVU299
 1257 0088 BE42     		cmp	r6, r7
 1258 008a 02DA     		bge	.L56
 366:./Hardware/LCD/SEEKFREE_18TFT.c **** 		{
 367:./Hardware/LCD/SEEKFREE_18TFT.c **** 			xerr-=distance;
 1259              		.loc 1 367 4 is_stmt 1 view .LVU300
 1260              		.loc 1 367 8 is_stmt 0 view .LVU301
 1261 008c BF1B     		subs	r7, r7, r6
 1262              	.LVL207:
 368:./Hardware/LCD/SEEKFREE_18TFT.c **** 			uRow+=incx;
 1263              		.loc 1 368 4 is_stmt 1 view .LVU302
 1264              		.loc 1 368 8 is_stmt 0 view .LVU303
 1265 008e 029B     		ldr	r3, [sp, #8]
 1266 0090 9844     		add	r8, r8, r3
 1267              	.LVL208:
 1268              	.L56:
 369:./Hardware/LCD/SEEKFREE_18TFT.c **** 		}
 370:./Hardware/LCD/SEEKFREE_18TFT.c **** 		if(yerr>distance)
 1269              		.loc 1 370 3 is_stmt 1 view .LVU304
 1270              		.loc 1 370 5 is_stmt 0 view .LVU305
 1271 0092 AE42     		cmp	r6, r5
 1272 0094 EBDA     		bge	.L57
 371:./Hardware/LCD/SEEKFREE_18TFT.c **** 		{
 372:./Hardware/LCD/SEEKFREE_18TFT.c **** 			yerr-=distance;
 1273              		.loc 1 372 4 is_stmt 1 view .LVU306
 1274              		.loc 1 372 8 is_stmt 0 view .LVU307
 1275 0096 AD1B     		subs	r5, r5, r6
 1276              	.LVL209:
 373:./Hardware/LCD/SEEKFREE_18TFT.c **** 			uCol+=incy;
 1277              		.loc 1 373 4 is_stmt 1 view .LVU308
 1278              		.loc 1 373 8 is_stmt 0 view .LVU309
 1279 0098 039B     		ldr	r3, [sp, #12]
 1280 009a 9944     		add	r9, r9, r3
 1281              	.LVL210:
 1282              		.loc 1 373 8 view .LVU310
 1283 009c E7E7     		b	.L57
 1284              	.L67:
 374:./Hardware/LCD/SEEKFREE_18TFT.c **** 		}
 375:./Hardware/LCD/SEEKFREE_18TFT.c **** 	}
 376:./Hardware/LCD/SEEKFREE_18TFT.c **** }
 1285              		.loc 1 376 1 view .LVU311
 1286 009e 05B0     		add	sp, sp, #20
ARM GAS  /tmp/ccnOyTCl.s 			page 31


 1287              	.LCFI10:
 1288              		.cfi_def_cfa_offset 36
 1289              		@ sp needed
 1290 00a0 BDE8F08F 		pop	{r4, r5, r6, r7, r8, r9, r10, fp, pc}
 1291              		.loc 1 376 1 view .LVU312
 1292              		.cfi_endproc
 1293              	.LFE744:
 1295              		.section	.text.LCD_DrawRectangle,"ax",%progbits
 1296              		.align	1
 1297              		.global	LCD_DrawRectangle
 1298              		.syntax unified
 1299              		.thumb
 1300              		.thumb_func
 1301              		.fpu fpv4-sp-d16
 1303              	LCD_DrawRectangle:
 1304              	.LVL211:
 1305              	.LFB745:
 377:./Hardware/LCD/SEEKFREE_18TFT.c **** 
 378:./Hardware/LCD/SEEKFREE_18TFT.c **** 
 379:./Hardware/LCD/SEEKFREE_18TFT.c **** /******************************************************************************
 380:./Hardware/LCD/SEEKFREE_18TFT.c ****       函数说明：画矩形
 381:./Hardware/LCD/SEEKFREE_18TFT.c ****       入口数据：x1,y1   起始坐标
 382:./Hardware/LCD/SEEKFREE_18TFT.c ****                 x2,y2   终止坐标
 383:./Hardware/LCD/SEEKFREE_18TFT.c ****                 color   矩形的颜色
 384:./Hardware/LCD/SEEKFREE_18TFT.c ****       返回值：  无
 385:./Hardware/LCD/SEEKFREE_18TFT.c **** ******************************************************************************/
 386:./Hardware/LCD/SEEKFREE_18TFT.c **** void LCD_DrawRectangle(uint16_t x1, uint16_t y1, uint16_t x2, uint16_t y2,uint16_t color)
 387:./Hardware/LCD/SEEKFREE_18TFT.c **** {
 1306              		.loc 1 387 1 is_stmt 1 view -0
 1307              		.cfi_startproc
 1308              		@ args = 4, pretend = 0, frame = 0
 1309              		@ frame_needed = 0, uses_anonymous_args = 0
 1310              		.loc 1 387 1 is_stmt 0 view .LVU314
 1311 0000 2DE9F041 		push	{r4, r5, r6, r7, r8, lr}
 1312              	.LCFI11:
 1313              		.cfi_def_cfa_offset 24
 1314              		.cfi_offset 4, -24
 1315              		.cfi_offset 5, -20
 1316              		.cfi_offset 6, -16
 1317              		.cfi_offset 7, -12
 1318              		.cfi_offset 8, -8
 1319              		.cfi_offset 14, -4
 1320 0004 82B0     		sub	sp, sp, #8
 1321              	.LCFI12:
 1322              		.cfi_def_cfa_offset 32
 1323 0006 0746     		mov	r7, r0
 1324 0008 0E46     		mov	r6, r1
 1325 000a 1546     		mov	r5, r2
 1326 000c 1C46     		mov	r4, r3
 1327 000e BDF82080 		ldrh	r8, [sp, #32]
 388:./Hardware/LCD/SEEKFREE_18TFT.c **** 	LCD_DrawLine(x1,y1,x2,y1,color);
 1328              		.loc 1 388 2 is_stmt 1 view .LVU315
 1329 0012 CDF80080 		str	r8, [sp]
 1330 0016 0B46     		mov	r3, r1
 1331              	.LVL212:
 1332              		.loc 1 388 2 is_stmt 0 view .LVU316
 1333 0018 FFF7FEFF 		bl	LCD_DrawLine
ARM GAS  /tmp/ccnOyTCl.s 			page 32


 1334              	.LVL213:
 389:./Hardware/LCD/SEEKFREE_18TFT.c **** 	LCD_DrawLine(x1,y1,x1,y2,color);
 1335              		.loc 1 389 2 is_stmt 1 view .LVU317
 1336 001c CDF80080 		str	r8, [sp]
 1337 0020 2346     		mov	r3, r4
 1338 0022 3A46     		mov	r2, r7
 1339 0024 3146     		mov	r1, r6
 1340 0026 3846     		mov	r0, r7
 1341 0028 FFF7FEFF 		bl	LCD_DrawLine
 1342              	.LVL214:
 390:./Hardware/LCD/SEEKFREE_18TFT.c **** 	LCD_DrawLine(x1,y2,x2,y2,color);
 1343              		.loc 1 390 2 view .LVU318
 1344 002c CDF80080 		str	r8, [sp]
 1345 0030 2346     		mov	r3, r4
 1346 0032 2A46     		mov	r2, r5
 1347 0034 2146     		mov	r1, r4
 1348 0036 3846     		mov	r0, r7
 1349 0038 FFF7FEFF 		bl	LCD_DrawLine
 1350              	.LVL215:
 391:./Hardware/LCD/SEEKFREE_18TFT.c **** 	LCD_DrawLine(x2,y1,x2,y2,color);
 1351              		.loc 1 391 2 view .LVU319
 1352 003c CDF80080 		str	r8, [sp]
 1353 0040 2346     		mov	r3, r4
 1354 0042 2A46     		mov	r2, r5
 1355 0044 3146     		mov	r1, r6
 1356 0046 2846     		mov	r0, r5
 1357 0048 FFF7FEFF 		bl	LCD_DrawLine
 1358              	.LVL216:
 392:./Hardware/LCD/SEEKFREE_18TFT.c **** }
 1359              		.loc 1 392 1 is_stmt 0 view .LVU320
 1360 004c 02B0     		add	sp, sp, #8
 1361              	.LCFI13:
 1362              		.cfi_def_cfa_offset 24
 1363              		@ sp needed
 1364 004e BDE8F081 		pop	{r4, r5, r6, r7, r8, pc}
 1365              		.loc 1 392 1 view .LVU321
 1366              		.cfi_endproc
 1367              	.LFE745:
 1369              		.section	.text.Draw_Circle,"ax",%progbits
 1370              		.align	1
 1371              		.global	Draw_Circle
 1372              		.syntax unified
 1373              		.thumb
 1374              		.thumb_func
 1375              		.fpu fpv4-sp-d16
 1377              	Draw_Circle:
 1378              	.LVL217:
 1379              	.LFB746:
 393:./Hardware/LCD/SEEKFREE_18TFT.c **** 
 394:./Hardware/LCD/SEEKFREE_18TFT.c **** 
 395:./Hardware/LCD/SEEKFREE_18TFT.c **** /******************************************************************************
 396:./Hardware/LCD/SEEKFREE_18TFT.c ****       函数说明：画圆
 397:./Hardware/LCD/SEEKFREE_18TFT.c ****       入口数据：x0,y0   圆心坐标
 398:./Hardware/LCD/SEEKFREE_18TFT.c ****                 r       半径
 399:./Hardware/LCD/SEEKFREE_18TFT.c ****                 color   圆的颜色
 400:./Hardware/LCD/SEEKFREE_18TFT.c ****       返回值：  无
 401:./Hardware/LCD/SEEKFREE_18TFT.c **** ******************************************************************************/
ARM GAS  /tmp/ccnOyTCl.s 			page 33


 402:./Hardware/LCD/SEEKFREE_18TFT.c **** void Draw_Circle(uint16_t x0,uint16_t y0,uint8_t r,uint16_t color)
 403:./Hardware/LCD/SEEKFREE_18TFT.c **** {
 1380              		.loc 1 403 1 is_stmt 1 view -0
 1381              		.cfi_startproc
 1382              		@ args = 0, pretend = 0, frame = 16
 1383              		@ frame_needed = 0, uses_anonymous_args = 0
 1384              		.loc 1 403 1 is_stmt 0 view .LVU323
 1385 0000 2DE9F04F 		push	{r4, r5, r6, r7, r8, r9, r10, fp, lr}
 1386              	.LCFI14:
 1387              		.cfi_def_cfa_offset 36
 1388              		.cfi_offset 4, -36
 1389              		.cfi_offset 5, -32
 1390              		.cfi_offset 6, -28
 1391              		.cfi_offset 7, -24
 1392              		.cfi_offset 8, -20
 1393              		.cfi_offset 9, -16
 1394              		.cfi_offset 10, -12
 1395              		.cfi_offset 11, -8
 1396              		.cfi_offset 14, -4
 1397 0004 85B0     		sub	sp, sp, #20
 1398              	.LCFI15:
 1399              		.cfi_def_cfa_offset 56
 1400 0006 0090     		str	r0, [sp]
 1401 0008 8A46     		mov	r10, r1
 1402 000a 0392     		str	r2, [sp, #12]
 1403 000c 1E46     		mov	r6, r3
 404:./Hardware/LCD/SEEKFREE_18TFT.c **** 	int a,b;
 1404              		.loc 1 404 2 is_stmt 1 view .LVU324
 405:./Hardware/LCD/SEEKFREE_18TFT.c **** 	a=0;b=r;	  
 1405              		.loc 1 405 2 view .LVU325
 1406              	.LVL218:
 1407              		.loc 1 405 6 view .LVU326
 406:./Hardware/LCD/SEEKFREE_18TFT.c **** 	while(a<=b)
 1408              		.loc 1 406 2 view .LVU327
 405:./Hardware/LCD/SEEKFREE_18TFT.c **** 	a=0;b=r;	  
 1409              		.loc 1 405 7 is_stmt 0 view .LVU328
 1410 000e 9046     		mov	r8, r2
 405:./Hardware/LCD/SEEKFREE_18TFT.c **** 	a=0;b=r;	  
 1411              		.loc 1 405 3 view .LVU329
 1412 0010 0027     		movs	r7, #0
 1413              	.LVL219:
 1414              	.L71:
 1415              		.loc 1 406 7 is_stmt 1 view .LVU330
 1416 0012 4745     		cmp	r7, r8
 1417 0014 56DC     		bgt	.L75
 407:./Hardware/LCD/SEEKFREE_18TFT.c **** 	{
 408:./Hardware/LCD/SEEKFREE_18TFT.c **** 		lcd_drawpoint(x0-b,y0-a,color);             //3           
 1418              		.loc 1 408 3 view .LVU331
 1419 0016 1FFA88F5 		uxth	r5, r8
 1420 001a 009B     		ldr	r3, [sp]
 1421 001c 5B1B     		subs	r3, r3, r5
 1422 001e 98B2     		uxth	r0, r3
 1423 0020 BCB2     		uxth	r4, r7
 1424 0022 AAEB040B 		sub	fp, r10, r4
 1425 0026 1FFA8BFB 		uxth	fp, fp
 1426 002a 3246     		mov	r2, r6
 1427 002c 5946     		mov	r1, fp
ARM GAS  /tmp/ccnOyTCl.s 			page 34


 1428 002e 0190     		str	r0, [sp, #4]
 1429 0030 FFF7FEFF 		bl	lcd_drawpoint
 1430              	.LVL220:
 409:./Hardware/LCD/SEEKFREE_18TFT.c **** 		lcd_drawpoint(x0+b,y0-a,color);             //0           
 1431              		.loc 1 409 3 view .LVU332
 1432 0034 009A     		ldr	r2, [sp]
 1433 0036 05EB0209 		add	r9, r5, r2
 1434 003a 1FFA89F9 		uxth	r9, r9
 1435 003e 3246     		mov	r2, r6
 1436 0040 5946     		mov	r1, fp
 1437 0042 4846     		mov	r0, r9
 1438 0044 FFF7FEFF 		bl	lcd_drawpoint
 1439              	.LVL221:
 410:./Hardware/LCD/SEEKFREE_18TFT.c **** 		lcd_drawpoint(x0-a,y0+b,color);             //1                
 1440              		.loc 1 410 3 view .LVU333
 1441 0048 0099     		ldr	r1, [sp]
 1442 004a A1EB040B 		sub	fp, r1, r4
 1443 004e 1FFA8BFB 		uxth	fp, fp
 1444 0052 05EB0A03 		add	r3, r5, r10
 1445 0056 9BB2     		uxth	r3, r3
 1446 0058 3246     		mov	r2, r6
 1447 005a 0293     		str	r3, [sp, #8]
 1448 005c 1946     		mov	r1, r3
 1449 005e 5846     		mov	r0, fp
 1450 0060 FFF7FEFF 		bl	lcd_drawpoint
 1451              	.LVL222:
 411:./Hardware/LCD/SEEKFREE_18TFT.c **** 		lcd_drawpoint(x0-a,y0-b,color);             //2             
 1452              		.loc 1 411 3 view .LVU334
 1453 0064 AAEB0505 		sub	r5, r10, r5
 1454 0068 ADB2     		uxth	r5, r5
 1455 006a 3246     		mov	r2, r6
 1456 006c 2946     		mov	r1, r5
 1457 006e 5846     		mov	r0, fp
 1458 0070 FFF7FEFF 		bl	lcd_drawpoint
 1459              	.LVL223:
 412:./Hardware/LCD/SEEKFREE_18TFT.c **** 		lcd_drawpoint(x0+b,y0+a,color);             //4               
 1460              		.loc 1 412 3 view .LVU335
 1461 0074 04EB0A0B 		add	fp, r4, r10
 1462 0078 1FFA8BFB 		uxth	fp, fp
 1463 007c 3246     		mov	r2, r6
 1464 007e 5946     		mov	r1, fp
 1465 0080 4846     		mov	r0, r9
 1466 0082 FFF7FEFF 		bl	lcd_drawpoint
 1467              	.LVL224:
 413:./Hardware/LCD/SEEKFREE_18TFT.c **** 		lcd_drawpoint(x0+a,y0-b,color);             //5
 1468              		.loc 1 413 3 view .LVU336
 1469 0086 009A     		ldr	r2, [sp]
 1470 0088 1444     		add	r4, r4, r2
 1471 008a A4B2     		uxth	r4, r4
 1472 008c 3246     		mov	r2, r6
 1473 008e 2946     		mov	r1, r5
 1474 0090 2046     		mov	r0, r4
 1475 0092 FFF7FEFF 		bl	lcd_drawpoint
 1476              	.LVL225:
 414:./Hardware/LCD/SEEKFREE_18TFT.c **** 		lcd_drawpoint(x0+a,y0+b,color);             //6 
 1477              		.loc 1 414 3 view .LVU337
 1478 0096 3246     		mov	r2, r6
ARM GAS  /tmp/ccnOyTCl.s 			page 35


 1479 0098 0299     		ldr	r1, [sp, #8]
 1480 009a 2046     		mov	r0, r4
 1481 009c FFF7FEFF 		bl	lcd_drawpoint
 1482              	.LVL226:
 415:./Hardware/LCD/SEEKFREE_18TFT.c **** 		lcd_drawpoint(x0-b,y0+a,color);             //7
 1483              		.loc 1 415 3 view .LVU338
 1484 00a0 3246     		mov	r2, r6
 1485 00a2 5946     		mov	r1, fp
 1486 00a4 0198     		ldr	r0, [sp, #4]
 1487 00a6 FFF7FEFF 		bl	lcd_drawpoint
 1488              	.LVL227:
 416:./Hardware/LCD/SEEKFREE_18TFT.c **** 		a++;
 1489              		.loc 1 416 3 view .LVU339
 1490              		.loc 1 416 4 is_stmt 0 view .LVU340
 1491 00aa 0137     		adds	r7, r7, #1
 1492              	.LVL228:
 417:./Hardware/LCD/SEEKFREE_18TFT.c **** 		if((a*a+b*b)>(r*r))//判断要画的点是否过远
 1493              		.loc 1 417 3 is_stmt 1 view .LVU341
 1494              		.loc 1 417 12 is_stmt 0 view .LVU342
 1495 00ac 08FB08F3 		mul	r3, r8, r8
 1496              		.loc 1 417 10 view .LVU343
 1497 00b0 07FB0733 		mla	r3, r7, r7, r3
 1498              		.loc 1 417 18 view .LVU344
 1499 00b4 039A     		ldr	r2, [sp, #12]
 1500 00b6 02FB02F2 		mul	r2, r2, r2
 1501              		.loc 1 417 5 view .LVU345
 1502 00ba 9342     		cmp	r3, r2
 1503 00bc A9DD     		ble	.L71
 418:./Hardware/LCD/SEEKFREE_18TFT.c **** 		{
 419:./Hardware/LCD/SEEKFREE_18TFT.c **** 			b--;
 1504              		.loc 1 419 4 is_stmt 1 view .LVU346
 1505              		.loc 1 419 5 is_stmt 0 view .LVU347
 1506 00be 08F1FF38 		add	r8, r8, #-1
 1507              	.LVL229:
 1508              		.loc 1 419 5 view .LVU348
 1509 00c2 A6E7     		b	.L71
 1510              	.L75:
 420:./Hardware/LCD/SEEKFREE_18TFT.c **** 		}
 421:./Hardware/LCD/SEEKFREE_18TFT.c **** 	}
 422:./Hardware/LCD/SEEKFREE_18TFT.c **** }
 1511              		.loc 1 422 1 view .LVU349
 1512 00c4 05B0     		add	sp, sp, #20
 1513              	.LCFI16:
 1514              		.cfi_def_cfa_offset 36
 1515              		@ sp needed
 1516 00c6 BDE8F08F 		pop	{r4, r5, r6, r7, r8, r9, r10, fp, pc}
 1517              		.loc 1 422 1 view .LVU350
 1518              		.cfi_endproc
 1519              	.LFE746:
 1521              		.section	.text.LCD_ShowChar,"ax",%progbits
 1522              		.align	1
 1523              		.global	LCD_ShowChar
 1524              		.syntax unified
 1525              		.thumb
 1526              		.thumb_func
 1527              		.fpu fpv4-sp-d16
 1529              	LCD_ShowChar:
ARM GAS  /tmp/ccnOyTCl.s 			page 36


 1530              	.LVL230:
 1531              	.LFB747:
 423:./Hardware/LCD/SEEKFREE_18TFT.c **** 
 424:./Hardware/LCD/SEEKFREE_18TFT.c **** /******************************************************************************
 425:./Hardware/LCD/SEEKFREE_18TFT.c ****       函数说明：显示单个字符
 426:./Hardware/LCD/SEEKFREE_18TFT.c ****       入口数据：x,y显示坐标
 427:./Hardware/LCD/SEEKFREE_18TFT.c ****                 num 要显示的字符
 428:./Hardware/LCD/SEEKFREE_18TFT.c ****                 fc 字的颜色
 429:./Hardware/LCD/SEEKFREE_18TFT.c ****                 bc 字的背景色
 430:./Hardware/LCD/SEEKFREE_18TFT.c ****                 sizey 字号
 431:./Hardware/LCD/SEEKFREE_18TFT.c ****                 mode:  0非叠加模式  1叠加模式
 432:./Hardware/LCD/SEEKFREE_18TFT.c ****       返回值：  无
 433:./Hardware/LCD/SEEKFREE_18TFT.c **** ******************************************************************************/
 434:./Hardware/LCD/SEEKFREE_18TFT.c **** void LCD_ShowChar(uint16_t x,uint16_t y,uint8_t num,uint16_t fc,uint16_t bc,uint8_t sizey,uint8_t m
 435:./Hardware/LCD/SEEKFREE_18TFT.c **** {
 1532              		.loc 1 435 1 is_stmt 1 view -0
 1533              		.cfi_startproc
 1534              		@ args = 12, pretend = 0, frame = 24
 1535              		@ frame_needed = 0, uses_anonymous_args = 0
 1536              		.loc 1 435 1 is_stmt 0 view .LVU352
 1537 0000 2DE9F04F 		push	{r4, r5, r6, r7, r8, r9, r10, fp, lr}
 1538              	.LCFI17:
 1539              		.cfi_def_cfa_offset 36
 1540              		.cfi_offset 4, -36
 1541              		.cfi_offset 5, -32
 1542              		.cfi_offset 6, -28
 1543              		.cfi_offset 7, -24
 1544              		.cfi_offset 8, -20
 1545              		.cfi_offset 9, -16
 1546              		.cfi_offset 10, -12
 1547              		.cfi_offset 11, -8
 1548              		.cfi_offset 14, -4
 1549 0004 87B0     		sub	sp, sp, #28
 1550              	.LCFI18:
 1551              		.cfi_def_cfa_offset 64
 1552 0006 8346     		mov	fp, r0
 1553 0008 0391     		str	r1, [sp, #12]
 1554 000a 0093     		str	r3, [sp]
 1555 000c BDF84030 		ldrh	r3, [sp, #64]
 1556              	.LVL231:
 1557              		.loc 1 435 1 view .LVU353
 1558 0010 0293     		str	r3, [sp, #8]
 1559 0012 9DF84440 		ldrb	r4, [sp, #68]	@ zero_extendqisi2
 1560 0016 0194     		str	r4, [sp, #4]
 1561 0018 9DF84890 		ldrb	r9, [sp, #72]	@ zero_extendqisi2
 436:./Hardware/LCD/SEEKFREE_18TFT.c **** 	uint8_t temp,sizex,t,m=0;
 1562              		.loc 1 436 2 is_stmt 1 view .LVU354
 1563              	.LVL232:
 437:./Hardware/LCD/SEEKFREE_18TFT.c **** 	uint16_t i,TypefaceNum;//一个字符所占字节大小
 1564              		.loc 1 437 2 view .LVU355
 438:./Hardware/LCD/SEEKFREE_18TFT.c **** 	uint16_t x0=x;
 1565              		.loc 1 438 2 view .LVU356
 439:./Hardware/LCD/SEEKFREE_18TFT.c **** 	sizex=sizey/2;
 1566              		.loc 1 439 2 view .LVU357
 1567              		.loc 1 439 7 is_stmt 0 view .LVU358
 1568 001c 6708     		lsrs	r7, r4, #1
 1569              	.LVL233:
ARM GAS  /tmp/ccnOyTCl.s 			page 37


 440:./Hardware/LCD/SEEKFREE_18TFT.c **** 	TypefaceNum=(sizex/8+((sizex%8)?1:0))*sizey;
 1570              		.loc 1 440 2 is_stmt 1 view .LVU359
 1571              		.loc 1 440 35 is_stmt 0 view .LVU360
 1572 001e 14F00E03 		ands	r3, r4, #14
 1573 0022 18BF     		it	ne
 1574 0024 0123     		movne	r3, #1
 1575              		.loc 1 440 22 view .LVU361
 1576 0026 03EB1413 		add	r3, r3, r4, lsr #4
 1577              		.loc 1 440 13 view .LVU362
 1578 002a 03FB04F3 		mul	r3, r3, r4
 1579 002e 0493     		str	r3, [sp, #16]
 1580              	.LVL234:
 441:./Hardware/LCD/SEEKFREE_18TFT.c **** 	num=num-' ';    //得到偏移后的值
 1581              		.loc 1 441 2 is_stmt 1 view .LVU363
 1582              		.loc 1 441 5 is_stmt 0 view .LVU364
 1583 0030 203A     		subs	r2, r2, #32
 1584              	.LVL235:
 1585              		.loc 1 441 5 view .LVU365
 1586 0032 D3B2     		uxtb	r3, r2
 1587 0034 0593     		str	r3, [sp, #20]
 1588              	.LVL236:
 442:./Hardware/LCD/SEEKFREE_18TFT.c **** 	lcd_set_region(x,y,x+sizex-1,y+sizey-1);  //设置光标位置 
 1589              		.loc 1 442 2 is_stmt 1 view .LVU366
 1590              		.loc 1 442 22 is_stmt 0 view .LVU367
 1591 0036 00EB5402 		add	r2, r0, r4, lsr #1
 1592              		.loc 1 442 32 view .LVU368
 1593 003a 0B46     		mov	r3, r1
 1594 003c 2344     		add	r3, r3, r4
 1595              		.loc 1 442 2 view .LVU369
 1596 003e 013B     		subs	r3, r3, #1
 1597 0040 013A     		subs	r2, r2, #1
 1598 0042 FFF7FEFF 		bl	lcd_set_region
 1599              	.LVL237:
 443:./Hardware/LCD/SEEKFREE_18TFT.c **** 	for(i=0;i<TypefaceNum;i++)
 1600              		.loc 1 443 2 is_stmt 1 view .LVU370
 1601              		.loc 1 443 2 is_stmt 0 view .LVU371
 1602 0046 5E46     		mov	r6, fp
 1603              		.loc 1 443 7 view .LVU372
 1604 0048 4FF0000A 		mov	r10, #0
 436:./Hardware/LCD/SEEKFREE_18TFT.c **** 	uint16_t i,TypefaceNum;//一个字符所占字节大小
 1605              		.loc 1 436 23 view .LVU373
 1606 004c 5546     		mov	r5, r10
 1607              		.loc 1 443 2 view .LVU374
 1608 004e 49E0     		b	.L77
 1609              	.LVL238:
 1610              	.L96:
 444:./Hardware/LCD/SEEKFREE_18TFT.c **** 	{ 
 445:./Hardware/LCD/SEEKFREE_18TFT.c **** 		if(sizey==12)temp=ascii_1206[num][i];		       //调用6x12字体
 1611              		.loc 1 445 16 is_stmt 1 discriminator 1 view .LVU375
 1612              		.loc 1 445 20 is_stmt 0 discriminator 1 view .LVU376
 1613 0050 059B     		ldr	r3, [sp, #20]
 1614 0052 03EB4303 		add	r3, r3, r3, lsl #1
 1615 0056 344A     		ldr	r2, .L99
 1616 0058 02EB8303 		add	r3, r2, r3, lsl #2
 1617 005c 13F80A80 		ldrb	r8, [r3, r10]	@ zero_extendqisi2
 1618              	.LVL239:
 1619              	.L79:
ARM GAS  /tmp/ccnOyTCl.s 			page 38


 446:./Hardware/LCD/SEEKFREE_18TFT.c **** 		else if(sizey==16)temp=ascii_1608[num][i];		 //调用8x16字体
 447:./Hardware/LCD/SEEKFREE_18TFT.c **** 		else if(sizey==24)temp=ascii_2412[num][i];		 //调用12x24字体
 448:./Hardware/LCD/SEEKFREE_18TFT.c **** 		else if(sizey==32)temp=ascii_3216[num][i];		 //调用16x32字体
 449:./Hardware/LCD/SEEKFREE_18TFT.c **** 		else return;
 450:./Hardware/LCD/SEEKFREE_18TFT.c **** 		for(t=0;t<8;t++)
 1620              		.loc 1 450 3 is_stmt 1 view .LVU377
 1621              		.loc 1 450 8 is_stmt 0 view .LVU378
 1622 0060 0024     		movs	r4, #0
 1623              		.loc 1 450 3 view .LVU379
 1624 0062 1DE0     		b	.L83
 1625              	.LVL240:
 1626              	.L97:
 446:./Hardware/LCD/SEEKFREE_18TFT.c **** 		else if(sizey==16)temp=ascii_1608[num][i];		 //调用8x16字体
 1627              		.loc 1 446 21 is_stmt 1 discriminator 1 view .LVU380
 446:./Hardware/LCD/SEEKFREE_18TFT.c **** 		else if(sizey==16)temp=ascii_1608[num][i];		 //调用8x16字体
 1628              		.loc 1 446 25 is_stmt 0 discriminator 1 view .LVU381
 1629 0064 314B     		ldr	r3, .L99+4
 1630 0066 059A     		ldr	r2, [sp, #20]
 1631 0068 03EB0213 		add	r3, r3, r2, lsl #4
 1632 006c 13F80A80 		ldrb	r8, [r3, r10]	@ zero_extendqisi2
 1633              	.LVL241:
 446:./Hardware/LCD/SEEKFREE_18TFT.c **** 		else if(sizey==16)temp=ascii_1608[num][i];		 //调用8x16字体
 1634              		.loc 1 446 25 discriminator 1 view .LVU382
 1635 0070 F6E7     		b	.L79
 1636              	.LVL242:
 1637              	.L98:
 447:./Hardware/LCD/SEEKFREE_18TFT.c **** 		else if(sizey==32)temp=ascii_3216[num][i];		 //调用16x32字体
 1638              		.loc 1 447 21 is_stmt 1 discriminator 1 view .LVU383
 447:./Hardware/LCD/SEEKFREE_18TFT.c **** 		else if(sizey==32)temp=ascii_3216[num][i];		 //调用16x32字体
 1639              		.loc 1 447 25 is_stmt 0 discriminator 1 view .LVU384
 1640 0072 059B     		ldr	r3, [sp, #20]
 1641 0074 03EB4303 		add	r3, r3, r3, lsl #1
 1642 0078 2D4A     		ldr	r2, .L99+8
 1643 007a 02EB0313 		add	r3, r2, r3, lsl #4
 1644 007e 13F80A80 		ldrb	r8, [r3, r10]	@ zero_extendqisi2
 1645              	.LVL243:
 447:./Hardware/LCD/SEEKFREE_18TFT.c **** 		else if(sizey==32)temp=ascii_3216[num][i];		 //调用16x32字体
 1646              		.loc 1 447 25 discriminator 1 view .LVU385
 1647 0082 EDE7     		b	.L79
 1648              	.LVL244:
 1649              	.L85:
 451:./Hardware/LCD/SEEKFREE_18TFT.c **** 		{
 452:./Hardware/LCD/SEEKFREE_18TFT.c **** 			if(!mode)//非叠加模式
 453:./Hardware/LCD/SEEKFREE_18TFT.c **** 			{
 454:./Hardware/LCD/SEEKFREE_18TFT.c **** 				if(temp&(0x01<<t))lcd_writedata_16bit(fc);
 455:./Hardware/LCD/SEEKFREE_18TFT.c **** 				else lcd_writedata_16bit(bc);
 1650              		.loc 1 455 10 is_stmt 1 view .LVU386
 1651 0084 0298     		ldr	r0, [sp, #8]
 1652 0086 FFF7FEFF 		bl	lcd_writedata_16bit
 1653              	.LVL245:
 1654              	.L86:
 456:./Hardware/LCD/SEEKFREE_18TFT.c **** 				m++;
 1655              		.loc 1 456 5 view .LVU387
 1656              		.loc 1 456 6 is_stmt 0 view .LVU388
 1657 008a 0135     		adds	r5, r5, #1
 1658              	.LVL246:
 1659              		.loc 1 456 6 view .LVU389
ARM GAS  /tmp/ccnOyTCl.s 			page 39


 1660 008c EDB2     		uxtb	r5, r5
 1661              	.LVL247:
 457:./Hardware/LCD/SEEKFREE_18TFT.c **** 				if(m%sizex==0)
 1662              		.loc 1 457 5 is_stmt 1 view .LVU390
 1663              		.loc 1 457 15 is_stmt 0 view .LVU391
 1664 008e B5FBF7F3 		udiv	r3, r5, r7
 1665 0092 07FB1353 		mls	r3, r7, r3, r5
 1666              		.loc 1 457 7 view .LVU392
 1667 0096 13F0FF03 		ands	r3, r3, #255
 1668 009a 3FD0     		beq	.L94
 1669              	.L88:
 450:./Hardware/LCD/SEEKFREE_18TFT.c **** 		{
 1670              		.loc 1 450 15 is_stmt 1 discriminator 2 view .LVU393
 450:./Hardware/LCD/SEEKFREE_18TFT.c **** 		{
 1671              		.loc 1 450 16 is_stmt 0 discriminator 2 view .LVU394
 1672 009c 0134     		adds	r4, r4, #1
 1673              	.LVL248:
 450:./Hardware/LCD/SEEKFREE_18TFT.c **** 		{
 1674              		.loc 1 450 16 discriminator 2 view .LVU395
 1675 009e E4B2     		uxtb	r4, r4
 1676              	.LVL249:
 1677              	.L83:
 450:./Hardware/LCD/SEEKFREE_18TFT.c **** 		{
 1678              		.loc 1 450 11 is_stmt 1 discriminator 1 view .LVU396
 450:./Hardware/LCD/SEEKFREE_18TFT.c **** 		{
 1679              		.loc 1 450 3 is_stmt 0 discriminator 1 view .LVU397
 1680 00a0 072C     		cmp	r4, #7
 1681 00a2 1BD8     		bhi	.L87
 452:./Hardware/LCD/SEEKFREE_18TFT.c **** 			{
 1682              		.loc 1 452 4 is_stmt 1 view .LVU398
 452:./Hardware/LCD/SEEKFREE_18TFT.c **** 			{
 1683              		.loc 1 452 6 is_stmt 0 view .LVU399
 1684 00a4 B9F1000F 		cmp	r9, #0
 1685 00a8 08D1     		bne	.L84
 454:./Hardware/LCD/SEEKFREE_18TFT.c **** 				else lcd_writedata_16bit(bc);
 1686              		.loc 1 454 5 is_stmt 1 view .LVU400
 454:./Hardware/LCD/SEEKFREE_18TFT.c **** 				else lcd_writedata_16bit(bc);
 1687              		.loc 1 454 8 is_stmt 0 view .LVU401
 1688 00aa 48FA04F3 		asr	r3, r8, r4
 454:./Hardware/LCD/SEEKFREE_18TFT.c **** 				else lcd_writedata_16bit(bc);
 1689              		.loc 1 454 7 view .LVU402
 1690 00ae 13F0010F 		tst	r3, #1
 1691 00b2 E7D0     		beq	.L85
 454:./Hardware/LCD/SEEKFREE_18TFT.c **** 				else lcd_writedata_16bit(bc);
 1692              		.loc 1 454 23 is_stmt 1 discriminator 1 view .LVU403
 1693 00b4 0098     		ldr	r0, [sp]
 1694 00b6 FFF7FEFF 		bl	lcd_writedata_16bit
 1695              	.LVL250:
 1696 00ba E6E7     		b	.L86
 1697              	.L84:
 458:./Hardware/LCD/SEEKFREE_18TFT.c **** 				{
 459:./Hardware/LCD/SEEKFREE_18TFT.c **** 					m=0;
 460:./Hardware/LCD/SEEKFREE_18TFT.c **** 					break;
 461:./Hardware/LCD/SEEKFREE_18TFT.c **** 				}
 462:./Hardware/LCD/SEEKFREE_18TFT.c **** 			}
 463:./Hardware/LCD/SEEKFREE_18TFT.c **** 			else//叠加模式
 464:./Hardware/LCD/SEEKFREE_18TFT.c **** 			{
ARM GAS  /tmp/ccnOyTCl.s 			page 40


 465:./Hardware/LCD/SEEKFREE_18TFT.c **** 				if(temp&(0x01<<t))lcd_drawpoint(x,y,fc);//画一个点
 1698              		.loc 1 465 5 view .LVU404
 1699              		.loc 1 465 8 is_stmt 0 view .LVU405
 1700 00bc 48FA04F3 		asr	r3, r8, r4
 1701              		.loc 1 465 7 view .LVU406
 1702 00c0 13F0010F 		tst	r3, #1
 1703 00c4 24D1     		bne	.L95
 1704              	.L89:
 466:./Hardware/LCD/SEEKFREE_18TFT.c **** 				x++;
 1705              		.loc 1 466 5 is_stmt 1 view .LVU407
 1706              		.loc 1 466 6 is_stmt 0 view .LVU408
 1707 00c6 0136     		adds	r6, r6, #1
 1708              	.LVL251:
 1709              		.loc 1 466 6 view .LVU409
 1710 00c8 B6B2     		uxth	r6, r6
 1711              	.LVL252:
 467:./Hardware/LCD/SEEKFREE_18TFT.c **** 				if((x-x0)==sizex)
 1712              		.loc 1 467 5 is_stmt 1 view .LVU410
 1713              		.loc 1 467 10 is_stmt 0 view .LVU411
 1714 00ca A6EB0B03 		sub	r3, r6, fp
 1715              		.loc 1 467 7 view .LVU412
 1716 00ce 9F42     		cmp	r7, r3
 1717 00d0 E4D1     		bne	.L88
 468:./Hardware/LCD/SEEKFREE_18TFT.c **** 				{
 469:./Hardware/LCD/SEEKFREE_18TFT.c **** 					x=x0;
 1718              		.loc 1 469 6 is_stmt 1 view .LVU413
 1719              	.LVL253:
 470:./Hardware/LCD/SEEKFREE_18TFT.c **** 					y++;
 1720              		.loc 1 470 6 view .LVU414
 1721              		.loc 1 470 7 is_stmt 0 view .LVU415
 1722 00d2 039B     		ldr	r3, [sp, #12]
 1723 00d4 0133     		adds	r3, r3, #1
 1724 00d6 9BB2     		uxth	r3, r3
 1725 00d8 0393     		str	r3, [sp, #12]
 1726              	.LVL254:
 471:./Hardware/LCD/SEEKFREE_18TFT.c **** 					break;
 1727              		.loc 1 471 6 is_stmt 1 view .LVU416
 469:./Hardware/LCD/SEEKFREE_18TFT.c **** 					y++;
 1728              		.loc 1 469 7 is_stmt 0 view .LVU417
 1729 00da 5E46     		mov	r6, fp
 1730              	.LVL255:
 1731              	.L87:
 443:./Hardware/LCD/SEEKFREE_18TFT.c **** 	{ 
 1732              		.loc 1 443 24 is_stmt 1 discriminator 2 view .LVU418
 443:./Hardware/LCD/SEEKFREE_18TFT.c **** 	{ 
 1733              		.loc 1 443 25 is_stmt 0 discriminator 2 view .LVU419
 1734 00dc 0AF1010A 		add	r10, r10, #1
 1735              	.LVL256:
 443:./Hardware/LCD/SEEKFREE_18TFT.c **** 	{ 
 1736              		.loc 1 443 25 discriminator 2 view .LVU420
 1737 00e0 1FFA8AFA 		uxth	r10, r10
 1738              	.LVL257:
 1739              	.L77:
 443:./Hardware/LCD/SEEKFREE_18TFT.c **** 	{ 
 1740              		.loc 1 443 10 is_stmt 1 discriminator 1 view .LVU421
 443:./Hardware/LCD/SEEKFREE_18TFT.c **** 	{ 
 1741              		.loc 1 443 2 is_stmt 0 discriminator 1 view .LVU422
ARM GAS  /tmp/ccnOyTCl.s 			page 41


 1742 00e4 049B     		ldr	r3, [sp, #16]
 1743 00e6 9A45     		cmp	r10, r3
 1744 00e8 1AD2     		bcs	.L76
 445:./Hardware/LCD/SEEKFREE_18TFT.c **** 		else if(sizey==16)temp=ascii_1608[num][i];		 //调用8x16字体
 1745              		.loc 1 445 3 is_stmt 1 view .LVU423
 445:./Hardware/LCD/SEEKFREE_18TFT.c **** 		else if(sizey==16)temp=ascii_1608[num][i];		 //调用8x16字体
 1746              		.loc 1 445 5 is_stmt 0 view .LVU424
 1747 00ea 019B     		ldr	r3, [sp, #4]
 1748 00ec 0C2B     		cmp	r3, #12
 1749 00ee AFD0     		beq	.L96
 446:./Hardware/LCD/SEEKFREE_18TFT.c **** 		else if(sizey==24)temp=ascii_2412[num][i];		 //调用12x24字体
 1750              		.loc 1 446 8 is_stmt 1 view .LVU425
 446:./Hardware/LCD/SEEKFREE_18TFT.c **** 		else if(sizey==24)temp=ascii_2412[num][i];		 //调用12x24字体
 1751              		.loc 1 446 10 is_stmt 0 view .LVU426
 1752 00f0 019B     		ldr	r3, [sp, #4]
 1753 00f2 102B     		cmp	r3, #16
 1754 00f4 B6D0     		beq	.L97
 447:./Hardware/LCD/SEEKFREE_18TFT.c **** 		else if(sizey==32)temp=ascii_3216[num][i];		 //调用16x32字体
 1755              		.loc 1 447 8 is_stmt 1 view .LVU427
 447:./Hardware/LCD/SEEKFREE_18TFT.c **** 		else if(sizey==32)temp=ascii_3216[num][i];		 //调用16x32字体
 1756              		.loc 1 447 10 is_stmt 0 view .LVU428
 1757 00f6 019B     		ldr	r3, [sp, #4]
 1758 00f8 182B     		cmp	r3, #24
 1759 00fa BAD0     		beq	.L98
 448:./Hardware/LCD/SEEKFREE_18TFT.c **** 		else return;
 1760              		.loc 1 448 8 is_stmt 1 view .LVU429
 448:./Hardware/LCD/SEEKFREE_18TFT.c **** 		else return;
 1761              		.loc 1 448 10 is_stmt 0 view .LVU430
 1762 00fc 019B     		ldr	r3, [sp, #4]
 1763 00fe 202B     		cmp	r3, #32
 1764 0100 0ED1     		bne	.L76
 448:./Hardware/LCD/SEEKFREE_18TFT.c **** 		else return;
 1765              		.loc 1 448 21 is_stmt 1 discriminator 1 view .LVU431
 448:./Hardware/LCD/SEEKFREE_18TFT.c **** 		else return;
 1766              		.loc 1 448 25 is_stmt 0 discriminator 1 view .LVU432
 1767 0102 0C4B     		ldr	r3, .L99+12
 1768 0104 059A     		ldr	r2, [sp, #20]
 1769 0106 03EB8213 		add	r3, r3, r2, lsl #6
 1770 010a 13F80A80 		ldrb	r8, [r3, r10]	@ zero_extendqisi2
 1771              	.LVL258:
 448:./Hardware/LCD/SEEKFREE_18TFT.c **** 		else return;
 1772              		.loc 1 448 25 discriminator 1 view .LVU433
 1773 010e A7E7     		b	.L79
 1774              	.LVL259:
 1775              	.L95:
 465:./Hardware/LCD/SEEKFREE_18TFT.c **** 				x++;
 1776              		.loc 1 465 23 is_stmt 1 discriminator 1 view .LVU434
 1777 0110 009A     		ldr	r2, [sp]
 1778 0112 0399     		ldr	r1, [sp, #12]
 1779 0114 3046     		mov	r0, r6
 1780 0116 FFF7FEFF 		bl	lcd_drawpoint
 1781              	.LVL260:
 1782 011a D4E7     		b	.L89
 1783              	.L94:
 459:./Hardware/LCD/SEEKFREE_18TFT.c **** 					break;
 1784              		.loc 1 459 7 is_stmt 0 view .LVU435
 1785 011c 1D46     		mov	r5, r3
ARM GAS  /tmp/ccnOyTCl.s 			page 42


 1786              	.LVL261:
 459:./Hardware/LCD/SEEKFREE_18TFT.c **** 					break;
 1787              		.loc 1 459 7 view .LVU436
 1788 011e DDE7     		b	.L87
 1789              	.LVL262:
 1790              	.L76:
 472:./Hardware/LCD/SEEKFREE_18TFT.c **** 				}
 473:./Hardware/LCD/SEEKFREE_18TFT.c **** 			}
 474:./Hardware/LCD/SEEKFREE_18TFT.c **** 		}
 475:./Hardware/LCD/SEEKFREE_18TFT.c **** 	}   	 	  
 476:./Hardware/LCD/SEEKFREE_18TFT.c **** }
 1791              		.loc 1 476 1 view .LVU437
 1792 0120 07B0     		add	sp, sp, #28
 1793              	.LCFI19:
 1794              		.cfi_def_cfa_offset 36
 1795              		@ sp needed
 1796 0122 BDE8F08F 		pop	{r4, r5, r6, r7, r8, r9, r10, fp, pc}
 1797              	.LVL263:
 1798              	.L100:
 1799              		.loc 1 476 1 view .LVU438
 1800 0126 00BF     		.align	2
 1801              	.L99:
 1802 0128 00000000 		.word	ascii_1206
 1803 012c 00000000 		.word	ascii_1608
 1804 0130 00000000 		.word	ascii_2412
 1805 0134 00000000 		.word	ascii_3216
 1806              		.cfi_endproc
 1807              	.LFE747:
 1809              		.section	.text.LCD_ShowString,"ax",%progbits
 1810              		.align	1
 1811              		.global	LCD_ShowString
 1812              		.syntax unified
 1813              		.thumb
 1814              		.thumb_func
 1815              		.fpu fpv4-sp-d16
 1817              	LCD_ShowString:
 1818              	.LVL264:
 1819              	.LFB748:
 477:./Hardware/LCD/SEEKFREE_18TFT.c **** 
 478:./Hardware/LCD/SEEKFREE_18TFT.c **** 
 479:./Hardware/LCD/SEEKFREE_18TFT.c **** /******************************************************************************
 480:./Hardware/LCD/SEEKFREE_18TFT.c ****       函数说明：显示字符串
 481:./Hardware/LCD/SEEKFREE_18TFT.c ****       入口数据：x,y显示坐标
 482:./Hardware/LCD/SEEKFREE_18TFT.c ****                 *p 要显示的字符串
 483:./Hardware/LCD/SEEKFREE_18TFT.c ****                 fc 字的颜色
 484:./Hardware/LCD/SEEKFREE_18TFT.c ****                 bc 字的背景色
 485:./Hardware/LCD/SEEKFREE_18TFT.c ****                 sizey 字号
 486:./Hardware/LCD/SEEKFREE_18TFT.c ****                 mode:  0非叠加模式  1叠加模式
 487:./Hardware/LCD/SEEKFREE_18TFT.c ****       返回值：  无
 488:./Hardware/LCD/SEEKFREE_18TFT.c **** ******************************************************************************/
 489:./Hardware/LCD/SEEKFREE_18TFT.c **** void LCD_ShowString(uint16_t x,uint16_t y,const uint8_t *p,uint16_t fc,uint16_t bc,uint8_t sizey,ui
 490:./Hardware/LCD/SEEKFREE_18TFT.c **** {         
 1820              		.loc 1 490 1 is_stmt 1 view -0
 1821              		.cfi_startproc
 1822              		@ args = 12, pretend = 0, frame = 0
 1823              		@ frame_needed = 0, uses_anonymous_args = 0
 1824              		.loc 1 490 1 is_stmt 0 view .LVU440
ARM GAS  /tmp/ccnOyTCl.s 			page 43


 1825 0000 2DE9F047 		push	{r4, r5, r6, r7, r8, r9, r10, lr}
 1826              	.LCFI20:
 1827              		.cfi_def_cfa_offset 32
 1828              		.cfi_offset 4, -32
 1829              		.cfi_offset 5, -28
 1830              		.cfi_offset 6, -24
 1831              		.cfi_offset 7, -20
 1832              		.cfi_offset 8, -16
 1833              		.cfi_offset 9, -12
 1834              		.cfi_offset 10, -8
 1835              		.cfi_offset 14, -4
 1836 0004 84B0     		sub	sp, sp, #16
 1837              	.LCFI21:
 1838              		.cfi_def_cfa_offset 48
 1839 0006 0446     		mov	r4, r0
 1840 0008 8846     		mov	r8, r1
 1841 000a 1546     		mov	r5, r2
 1842 000c 1F46     		mov	r7, r3
 1843 000e BDF830A0 		ldrh	r10, [sp, #48]
 1844 0012 9DF83460 		ldrb	r6, [sp, #52]	@ zero_extendqisi2
 1845 0016 9DF83890 		ldrb	r9, [sp, #56]	@ zero_extendqisi2
 491:./Hardware/LCD/SEEKFREE_18TFT.c **** 	while(*p!='\0')
 1846              		.loc 1 491 2 is_stmt 1 view .LVU441
 1847              		.loc 1 491 7 is_stmt 0 view .LVU442
 1848 001a 0DE0     		b	.L102
 1849              	.LVL265:
 1850              	.L103:
 492:./Hardware/LCD/SEEKFREE_18TFT.c **** 	{       
 493:./Hardware/LCD/SEEKFREE_18TFT.c **** 		LCD_ShowChar(x,y,*p,fc,bc,sizey,mode);
 1851              		.loc 1 493 3 is_stmt 1 view .LVU443
 1852 001c CDF80890 		str	r9, [sp, #8]
 1853 0020 0196     		str	r6, [sp, #4]
 1854 0022 CDF800A0 		str	r10, [sp]
 1855 0026 3B46     		mov	r3, r7
 1856 0028 4146     		mov	r1, r8
 1857 002a 2046     		mov	r0, r4
 1858 002c FFF7FEFF 		bl	LCD_ShowChar
 1859              	.LVL266:
 494:./Hardware/LCD/SEEKFREE_18TFT.c **** 		x+=sizey/2;
 1860              		.loc 1 494 3 view .LVU444
 1861              		.loc 1 494 4 is_stmt 0 view .LVU445
 1862 0030 04EB5604 		add	r4, r4, r6, lsr #1
 1863              	.LVL267:
 1864              		.loc 1 494 4 view .LVU446
 1865 0034 A4B2     		uxth	r4, r4
 1866              	.LVL268:
 495:./Hardware/LCD/SEEKFREE_18TFT.c **** 		p++;
 1867              		.loc 1 495 3 is_stmt 1 view .LVU447
 1868              		.loc 1 495 4 is_stmt 0 view .LVU448
 1869 0036 0135     		adds	r5, r5, #1
 1870              	.LVL269:
 1871              	.L102:
 491:./Hardware/LCD/SEEKFREE_18TFT.c **** 	{       
 1872              		.loc 1 491 7 is_stmt 1 view .LVU449
 491:./Hardware/LCD/SEEKFREE_18TFT.c **** 	{       
 1873              		.loc 1 491 8 is_stmt 0 view .LVU450
 1874 0038 2A78     		ldrb	r2, [r5]	@ zero_extendqisi2
ARM GAS  /tmp/ccnOyTCl.s 			page 44


 491:./Hardware/LCD/SEEKFREE_18TFT.c **** 	{       
 1875              		.loc 1 491 7 view .LVU451
 1876 003a 002A     		cmp	r2, #0
 1877 003c EED1     		bne	.L103
 496:./Hardware/LCD/SEEKFREE_18TFT.c **** 	}  
 497:./Hardware/LCD/SEEKFREE_18TFT.c **** }
 1878              		.loc 1 497 1 view .LVU452
 1879 003e 04B0     		add	sp, sp, #16
 1880              	.LCFI22:
 1881              		.cfi_def_cfa_offset 32
 1882              		@ sp needed
 1883 0040 BDE8F087 		pop	{r4, r5, r6, r7, r8, r9, r10, pc}
 1884              		.loc 1 497 1 view .LVU453
 1885              		.cfi_endproc
 1886              	.LFE748:
 1888              		.section	.text.lcd_showchar,"ax",%progbits
 1889              		.align	1
 1890              		.global	lcd_showchar
 1891              		.syntax unified
 1892              		.thumb
 1893              		.thumb_func
 1894              		.fpu fpv4-sp-d16
 1896              	lcd_showchar:
 1897              	.LVL270:
 1898              	.LFB749:
 498:./Hardware/LCD/SEEKFREE_18TFT.c **** 
 499:./Hardware/LCD/SEEKFREE_18TFT.c **** //-------------------------------------------------------------------------------------------------
 500:./Hardware/LCD/SEEKFREE_18TFT.c **** //  @brief      液晶显示字符
 501:./Hardware/LCD/SEEKFREE_18TFT.c **** //  @param      x     	        坐标x方向的起点 参数范围 0 -（TFT_X_MAX-1）
 502:./Hardware/LCD/SEEKFREE_18TFT.c **** //  @param      y     	        坐标y方向的起点 参数范围 0 -（TFT_Y_MAX-1）
 503:./Hardware/LCD/SEEKFREE_18TFT.c **** //  @param      dat       	    需要显示的字符
 504:./Hardware/LCD/SEEKFREE_18TFT.c **** //  @return     void
 505:./Hardware/LCD/SEEKFREE_18TFT.c **** //  @since      v1.0
 506:./Hardware/LCD/SEEKFREE_18TFT.c **** //  Sample usage:               lcd_showchar(0,0,'x');//坐标0,0写一个字符x
 507:./Hardware/LCD/SEEKFREE_18TFT.c **** //-------------------------------------------------------------------------------------------------
 508:./Hardware/LCD/SEEKFREE_18TFT.c **** void lcd_showchar(uint16 x,uint16 y,uint8 dat)
 509:./Hardware/LCD/SEEKFREE_18TFT.c **** {
 1899              		.loc 1 509 1 is_stmt 1 view -0
 1900              		.cfi_startproc
 1901              		@ args = 0, pretend = 0, frame = 0
 1902              		@ frame_needed = 0, uses_anonymous_args = 0
 1903              		.loc 1 509 1 is_stmt 0 view .LVU455
 1904 0000 2DE9F843 		push	{r3, r4, r5, r6, r7, r8, r9, lr}
 1905              	.LCFI23:
 1906              		.cfi_def_cfa_offset 32
 1907              		.cfi_offset 3, -32
 1908              		.cfi_offset 4, -28
 1909              		.cfi_offset 5, -24
 1910              		.cfi_offset 6, -20
 1911              		.cfi_offset 7, -16
 1912              		.cfi_offset 8, -12
 1913              		.cfi_offset 9, -8
 1914              		.cfi_offset 14, -4
 1915 0004 0746     		mov	r7, r0
 1916 0006 8946     		mov	r9, r1
 1917 0008 9046     		mov	r8, r2
 510:./Hardware/LCD/SEEKFREE_18TFT.c **** 	uint8 i,j;
ARM GAS  /tmp/ccnOyTCl.s 			page 45


 1918              		.loc 1 510 2 is_stmt 1 view .LVU456
 511:./Hardware/LCD/SEEKFREE_18TFT.c **** 	uint8 temp;
 1919              		.loc 1 511 2 view .LVU457
 512:./Hardware/LCD/SEEKFREE_18TFT.c ****     
 513:./Hardware/LCD/SEEKFREE_18TFT.c **** 	for(i=0; i<16; i++)
 1920              		.loc 1 513 2 view .LVU458
 1921              	.LVL271:
 1922              		.loc 1 513 7 is_stmt 0 view .LVU459
 1923 000a 0026     		movs	r6, #0
 1924              		.loc 1 513 2 view .LVU460
 1925 000c 12E0     		b	.L106
 1926              	.LVL272:
 1927              	.L108:
 514:./Hardware/LCD/SEEKFREE_18TFT.c **** 	{
 515:./Hardware/LCD/SEEKFREE_18TFT.c **** 		lcd_set_region(x,y+i,x+7,y+i);
 516:./Hardware/LCD/SEEKFREE_18TFT.c **** 		temp = tft_ascii[dat-32][i];//减32因为是取模是从空格开始取得 空格在ascii中序
 517:./Hardware/LCD/SEEKFREE_18TFT.c **** 		for(j=0; j<8; j++)
 518:./Hardware/LCD/SEEKFREE_18TFT.c **** 		{
 519:./Hardware/LCD/SEEKFREE_18TFT.c **** 			if(temp&0x01)	lcd_writedata_16bit(PENCOLOR);
 520:./Hardware/LCD/SEEKFREE_18TFT.c **** 			else			lcd_writedata_16bit(BGCOLOR);
 1928              		.loc 1 520 11 is_stmt 1 view .LVU461
 1929 000e 4FF6FF70 		movw	r0, #65535
 1930 0012 FFF7FEFF 		bl	lcd_writedata_16bit
 1931              	.LVL273:
 1932              	.L109:
 521:./Hardware/LCD/SEEKFREE_18TFT.c **** 			temp>>=1;
 1933              		.loc 1 521 4 discriminator 2 view .LVU462
 1934              		.loc 1 521 8 is_stmt 0 discriminator 2 view .LVU463
 1935 0016 6D08     		lsrs	r5, r5, #1
 1936              	.LVL274:
 517:./Hardware/LCD/SEEKFREE_18TFT.c **** 		{
 1937              		.loc 1 517 17 is_stmt 1 discriminator 2 view .LVU464
 517:./Hardware/LCD/SEEKFREE_18TFT.c **** 		{
 1938              		.loc 1 517 18 is_stmt 0 discriminator 2 view .LVU465
 1939 0018 0134     		adds	r4, r4, #1
 1940              	.LVL275:
 517:./Hardware/LCD/SEEKFREE_18TFT.c **** 		{
 1941              		.loc 1 517 18 discriminator 2 view .LVU466
 1942 001a E4B2     		uxtb	r4, r4
 1943              	.LVL276:
 1944              	.L107:
 517:./Hardware/LCD/SEEKFREE_18TFT.c **** 		{
 1945              		.loc 1 517 12 is_stmt 1 discriminator 1 view .LVU467
 517:./Hardware/LCD/SEEKFREE_18TFT.c **** 		{
 1946              		.loc 1 517 3 is_stmt 0 discriminator 1 view .LVU468
 1947 001c 072C     		cmp	r4, #7
 1948 001e 07D8     		bhi	.L113
 519:./Hardware/LCD/SEEKFREE_18TFT.c **** 			else			lcd_writedata_16bit(BGCOLOR);
 1949              		.loc 1 519 4 is_stmt 1 view .LVU469
 519:./Hardware/LCD/SEEKFREE_18TFT.c **** 			else			lcd_writedata_16bit(BGCOLOR);
 1950              		.loc 1 519 6 is_stmt 0 view .LVU470
 1951 0020 15F0010F 		tst	r5, #1
 1952 0024 F3D0     		beq	.L108
 519:./Hardware/LCD/SEEKFREE_18TFT.c **** 			else			lcd_writedata_16bit(BGCOLOR);
 1953              		.loc 1 519 18 is_stmt 1 discriminator 1 view .LVU471
 1954 0026 4FF47840 		mov	r0, #63488
 1955 002a FFF7FEFF 		bl	lcd_writedata_16bit
ARM GAS  /tmp/ccnOyTCl.s 			page 46


 1956              	.LVL277:
 1957 002e F2E7     		b	.L109
 1958              	.L113:
 513:./Hardware/LCD/SEEKFREE_18TFT.c **** 	{
 1959              		.loc 1 513 17 discriminator 2 view .LVU472
 513:./Hardware/LCD/SEEKFREE_18TFT.c **** 	{
 1960              		.loc 1 513 18 is_stmt 0 discriminator 2 view .LVU473
 1961 0030 0136     		adds	r6, r6, #1
 1962              	.LVL278:
 513:./Hardware/LCD/SEEKFREE_18TFT.c **** 	{
 1963              		.loc 1 513 18 discriminator 2 view .LVU474
 1964 0032 F6B2     		uxtb	r6, r6
 1965              	.LVL279:
 1966              	.L106:
 513:./Hardware/LCD/SEEKFREE_18TFT.c **** 	{
 1967              		.loc 1 513 11 is_stmt 1 discriminator 1 view .LVU475
 513:./Hardware/LCD/SEEKFREE_18TFT.c **** 	{
 1968              		.loc 1 513 2 is_stmt 0 discriminator 1 view .LVU476
 1969 0034 0F2E     		cmp	r6, #15
 1970 0036 0ED8     		bhi	.L114
 515:./Hardware/LCD/SEEKFREE_18TFT.c **** 		temp = tft_ascii[dat-32][i];//减32因为是取模是从空格开始取得 空格在ascii中序
 1971              		.loc 1 515 3 is_stmt 1 view .LVU477
 515:./Hardware/LCD/SEEKFREE_18TFT.c **** 		temp = tft_ascii[dat-32][i];//减32因为是取模是从空格开始取得 空格在ascii中序
 1972              		.loc 1 515 21 is_stmt 0 view .LVU478
 1973 0038 09EB0601 		add	r1, r9, r6
 515:./Hardware/LCD/SEEKFREE_18TFT.c **** 		temp = tft_ascii[dat-32][i];//减32因为是取模是从空格开始取得 空格在ascii中序
 1974              		.loc 1 515 3 view .LVU479
 1975 003c 0B46     		mov	r3, r1
 1976 003e FA1D     		adds	r2, r7, #7
 1977 0040 3846     		mov	r0, r7
 1978 0042 FFF7FEFF 		bl	lcd_set_region
 1979              	.LVL280:
 516:./Hardware/LCD/SEEKFREE_18TFT.c **** 		for(j=0; j<8; j++)
 1980              		.loc 1 516 3 is_stmt 1 view .LVU480
 516:./Hardware/LCD/SEEKFREE_18TFT.c **** 		for(j=0; j<8; j++)
 1981              		.loc 1 516 23 is_stmt 0 view .LVU481
 1982 0046 A8F12003 		sub	r3, r8, #32
 516:./Hardware/LCD/SEEKFREE_18TFT.c **** 		for(j=0; j<8; j++)
 1983              		.loc 1 516 8 view .LVU482
 1984 004a 044A     		ldr	r2, .L115
 1985 004c 02EB0313 		add	r3, r2, r3, lsl #4
 1986 0050 9D5D     		ldrb	r5, [r3, r6]	@ zero_extendqisi2
 1987              	.LVL281:
 517:./Hardware/LCD/SEEKFREE_18TFT.c **** 		{
 1988              		.loc 1 517 3 is_stmt 1 view .LVU483
 517:./Hardware/LCD/SEEKFREE_18TFT.c **** 		{
 1989              		.loc 1 517 8 is_stmt 0 view .LVU484
 1990 0052 0024     		movs	r4, #0
 517:./Hardware/LCD/SEEKFREE_18TFT.c **** 		{
 1991              		.loc 1 517 3 view .LVU485
 1992 0054 E2E7     		b	.L107
 1993              	.LVL282:
 1994              	.L114:
 522:./Hardware/LCD/SEEKFREE_18TFT.c **** 		}
 523:./Hardware/LCD/SEEKFREE_18TFT.c **** 	}
 524:./Hardware/LCD/SEEKFREE_18TFT.c **** }
 1995              		.loc 1 524 1 view .LVU486
ARM GAS  /tmp/ccnOyTCl.s 			page 47


 1996 0056 BDE8F883 		pop	{r3, r4, r5, r6, r7, r8, r9, pc}
 1997              	.LVL283:
 1998              	.L116:
 1999              		.loc 1 524 1 view .LVU487
 2000 005a 00BF     		.align	2
 2001              	.L115:
 2002 005c 00000000 		.word	tft_ascii
 2003              		.cfi_endproc
 2004              	.LFE749:
 2006              		.section	.text.lcd_showstr,"ax",%progbits
 2007              		.align	1
 2008              		.global	lcd_showstr
 2009              		.syntax unified
 2010              		.thumb
 2011              		.thumb_func
 2012              		.fpu fpv4-sp-d16
 2014              	lcd_showstr:
 2015              	.LVL284:
 2016              	.LFB750:
 525:./Hardware/LCD/SEEKFREE_18TFT.c **** 
 526:./Hardware/LCD/SEEKFREE_18TFT.c **** //-------------------------------------------------------------------------------------------------
 527:./Hardware/LCD/SEEKFREE_18TFT.c **** //  @brief      液晶显示字符串
 528:./Hardware/LCD/SEEKFREE_18TFT.c **** //  @param      x     	        坐标x方向的起点  参数范围 0 -（TFT_X_MAX-1）
 529:./Hardware/LCD/SEEKFREE_18TFT.c **** //  @param      y     	        坐标y方向的起点  参数范围 0 -（TFT_Y_MAX/16-1）
 530:./Hardware/LCD/SEEKFREE_18TFT.c **** //  @param      dat       	    需要显示的字符串
 531:./Hardware/LCD/SEEKFREE_18TFT.c **** //  @return     void
 532:./Hardware/LCD/SEEKFREE_18TFT.c **** //  @since      v1.0
 533:./Hardware/LCD/SEEKFREE_18TFT.c **** //  Sample usage:               lcd_showstr(0,0,"seekfree");
 534:./Hardware/LCD/SEEKFREE_18TFT.c **** //-------------------------------------------------------------------------------------------------
 535:./Hardware/LCD/SEEKFREE_18TFT.c **** void lcd_showstr(uint16 x,uint16 y,uint8 dat[],uint8_t len)
 536:./Hardware/LCD/SEEKFREE_18TFT.c **** {
 2017              		.loc 1 536 1 is_stmt 1 view -0
 2018              		.cfi_startproc
 2019              		@ args = 0, pretend = 0, frame = 0
 2020              		@ frame_needed = 0, uses_anonymous_args = 0
 2021              		.loc 1 536 1 is_stmt 0 view .LVU489
 2022 0000 2DE9F041 		push	{r4, r5, r6, r7, r8, lr}
 2023              	.LCFI24:
 2024              		.cfi_def_cfa_offset 24
 2025              		.cfi_offset 4, -24
 2026              		.cfi_offset 5, -20
 2027              		.cfi_offset 6, -16
 2028              		.cfi_offset 7, -12
 2029              		.cfi_offset 8, -8
 2030              		.cfi_offset 14, -4
 2031 0004 8046     		mov	r8, r0
 2032 0006 0F46     		mov	r7, r1
 2033 0008 1546     		mov	r5, r2
 2034 000a 1E46     		mov	r6, r3
 537:./Hardware/LCD/SEEKFREE_18TFT.c **** 	uint16 j;
 2035              		.loc 1 537 2 is_stmt 1 view .LVU490
 538:./Hardware/LCD/SEEKFREE_18TFT.c **** 	
 539:./Hardware/LCD/SEEKFREE_18TFT.c **** 	j = 0;
 2036              		.loc 1 539 2 view .LVU491
 2037              	.LVL285:
 540:./Hardware/LCD/SEEKFREE_18TFT.c **** 	while(dat[j] != '\0')
 2038              		.loc 1 540 2 view .LVU492
ARM GAS  /tmp/ccnOyTCl.s 			page 48


 539:./Hardware/LCD/SEEKFREE_18TFT.c **** 	while(dat[j] != '\0')
 2039              		.loc 1 539 4 is_stmt 0 view .LVU493
 2040 000c 0024     		movs	r4, #0
 2041              	.LVL286:
 2042              	.L118:
 2043              		.loc 1 540 7 is_stmt 1 view .LVU494
 2044              		.loc 1 540 11 is_stmt 0 view .LVU495
 2045 000e 2A5D     		ldrb	r2, [r5, r4]	@ zero_extendqisi2
 2046              		.loc 1 540 7 view .LVU496
 2047 0010 5AB1     		cbz	r2, .L117
 541:./Hardware/LCD/SEEKFREE_18TFT.c **** 	{
 542:./Hardware/LCD/SEEKFREE_18TFT.c **** 		lcd_showchar(x+8*j,y,dat[j]);
 2048              		.loc 1 542 3 is_stmt 1 view .LVU497
 2049 0012 08EBC400 		add	r0, r8, r4, lsl #3
 2050 0016 3946     		mov	r1, r7
 2051 0018 80B2     		uxth	r0, r0
 2052 001a FFF7FEFF 		bl	lcd_showchar
 2053              	.LVL287:
 543:./Hardware/LCD/SEEKFREE_18TFT.c **** 		j++;
 2054              		.loc 1 543 3 view .LVU498
 2055              		.loc 1 543 4 is_stmt 0 view .LVU499
 2056 001e 0134     		adds	r4, r4, #1
 2057              	.LVL288:
 2058              		.loc 1 543 4 view .LVU500
 2059 0020 A4B2     		uxth	r4, r4
 2060              	.LVL289:
 544:./Hardware/LCD/SEEKFREE_18TFT.c **** 		if (j > len) 
 2061              		.loc 1 544 3 is_stmt 1 view .LVU501
 2062              		.loc 1 544 9 is_stmt 0 view .LVU502
 2063 0022 1FFA86FC 		uxth	ip, r6
 2064              		.loc 1 544 6 view .LVU503
 2065 0026 A445     		cmp	ip, r4
 2066 0028 F1D2     		bcs	.L118
 2067              	.L117:
 545:./Hardware/LCD/SEEKFREE_18TFT.c **** 			break;
 546:./Hardware/LCD/SEEKFREE_18TFT.c **** 	}
 547:./Hardware/LCD/SEEKFREE_18TFT.c **** }
 2068              		.loc 1 547 1 view .LVU504
 2069 002a BDE8F081 		pop	{r4, r5, r6, r7, r8, pc}
 2070              		.loc 1 547 1 view .LVU505
 2071              		.cfi_endproc
 2072              	.LFE750:
 2074              		.section	.text.lcd_showint8,"ax",%progbits
 2075              		.align	1
 2076              		.global	lcd_showint8
 2077              		.syntax unified
 2078              		.thumb
 2079              		.thumb_func
 2080              		.fpu fpv4-sp-d16
 2082              	lcd_showint8:
 2083              	.LVL290:
 2084              	.LFB751:
 548:./Hardware/LCD/SEEKFREE_18TFT.c **** 
 549:./Hardware/LCD/SEEKFREE_18TFT.c **** //-------------------------------------------------------------------------------------------------
 550:./Hardware/LCD/SEEKFREE_18TFT.c **** //  @brief      液晶显示8位有符号
 551:./Hardware/LCD/SEEKFREE_18TFT.c **** //  @param      x     	        坐标x方向的起点  参数范围 0 -（TFT_X_MAX-1）
 552:./Hardware/LCD/SEEKFREE_18TFT.c **** //  @param      y     	        坐标y方向的起点  参数范围 0 -（TFT_Y_MAX/16-1）
ARM GAS  /tmp/ccnOyTCl.s 			page 49


 553:./Hardware/LCD/SEEKFREE_18TFT.c **** //  @param      dat       	    需要显示的变量，数据类型int8
 554:./Hardware/LCD/SEEKFREE_18TFT.c **** //  @return     void
 555:./Hardware/LCD/SEEKFREE_18TFT.c **** //  @since      v1.0
 556:./Hardware/LCD/SEEKFREE_18TFT.c **** //  Sample usage:               lcd_showint8(0,0,x);//x为int8类型
 557:./Hardware/LCD/SEEKFREE_18TFT.c **** //-------------------------------------------------------------------------------------------------
 558:./Hardware/LCD/SEEKFREE_18TFT.c **** void lcd_showint8(uint16 x,uint16 y,int8 dat)
 559:./Hardware/LCD/SEEKFREE_18TFT.c **** {
 2085              		.loc 1 559 1 is_stmt 1 view -0
 2086              		.cfi_startproc
 2087              		@ args = 0, pretend = 0, frame = 8
 2088              		@ frame_needed = 0, uses_anonymous_args = 0
 2089              		.loc 1 559 1 is_stmt 0 view .LVU507
 2090 0000 70B5     		push	{r4, r5, r6, lr}
 2091              	.LCFI25:
 2092              		.cfi_def_cfa_offset 16
 2093              		.cfi_offset 4, -16
 2094              		.cfi_offset 5, -12
 2095              		.cfi_offset 6, -8
 2096              		.cfi_offset 14, -4
 2097 0002 82B0     		sub	sp, sp, #8
 2098              	.LCFI26:
 2099              		.cfi_def_cfa_offset 24
 2100 0004 0546     		mov	r5, r0
 2101 0006 0E46     		mov	r6, r1
 560:./Hardware/LCD/SEEKFREE_18TFT.c **** 	uint8 a[3];
 2102              		.loc 1 560 2 is_stmt 1 view .LVU508
 561:./Hardware/LCD/SEEKFREE_18TFT.c **** 	uint8 i;
 2103              		.loc 1 561 2 view .LVU509
 562:./Hardware/LCD/SEEKFREE_18TFT.c **** 	if(dat >= 0)
 2104              		.loc 1 562 2 view .LVU510
 2105              		.loc 1 562 4 is_stmt 0 view .LVU511
 2106 0008 141E     		subs	r4, r2, #0
 2107 000a 25DB     		blt	.L123
 563:./Hardware/LCD/SEEKFREE_18TFT.c **** 	{
 564:./Hardware/LCD/SEEKFREE_18TFT.c **** 		lcd_showchar(x,y*16,' ');
 2108              		.loc 1 564 3 is_stmt 1 view .LVU512
 2109 000c 0901     		lsls	r1, r1, #4
 2110              	.LVL291:
 2111              		.loc 1 564 3 is_stmt 0 view .LVU513
 2112 000e 89B2     		uxth	r1, r1
 2113 0010 2022     		movs	r2, #32
 2114              	.LVL292:
 2115              		.loc 1 564 3 view .LVU514
 2116 0012 FFF7FEFF 		bl	lcd_showchar
 2117              	.LVL293:
 2118              	.L124:
 565:./Hardware/LCD/SEEKFREE_18TFT.c **** 	}
 566:./Hardware/LCD/SEEKFREE_18TFT.c **** 	else	
 567:./Hardware/LCD/SEEKFREE_18TFT.c **** 	{
 568:./Hardware/LCD/SEEKFREE_18TFT.c **** 		lcd_showchar(x,y*16,'-');
 569:./Hardware/LCD/SEEKFREE_18TFT.c **** 		dat = -dat;
 570:./Hardware/LCD/SEEKFREE_18TFT.c **** 	}
 571:./Hardware/LCD/SEEKFREE_18TFT.c **** 	
 572:./Hardware/LCD/SEEKFREE_18TFT.c **** 	a[0] = dat/100;
 2119              		.loc 1 572 2 is_stmt 1 view .LVU515
 2120              		.loc 1 572 7 is_stmt 0 view .LVU516
 2121 0016 1E4A     		ldr	r2, .L128
ARM GAS  /tmp/ccnOyTCl.s 			page 50


 2122 0018 82FB0432 		smull	r3, r2, r2, r4
 2123 001c E317     		asrs	r3, r4, #31
 2124 001e C3EB6212 		rsb	r2, r3, r2, asr #5
 2125 0022 8DF80420 		strb	r2, [sp, #4]
 573:./Hardware/LCD/SEEKFREE_18TFT.c **** 	a[1] = dat/10%10;
 2126              		.loc 1 573 2 is_stmt 1 view .LVU517
 2127              		.loc 1 573 7 is_stmt 0 view .LVU518
 2128 0026 1B48     		ldr	r0, .L128+4
 2129 0028 80FB0421 		smull	r2, r1, r0, r4
 2130 002c C3EBA103 		rsb	r3, r3, r1, asr #2
 2131 0030 59B2     		sxtb	r1, r3
 2132 0032 80FB0120 		smull	r2, r0, r0, r1
 2133 0036 CA17     		asrs	r2, r1, #31
 2134 0038 C2EBA002 		rsb	r2, r2, r0, asr #2
 2135 003c 02EB8202 		add	r2, r2, r2, lsl #2
 2136 0040 A1EB4202 		sub	r2, r1, r2, lsl #1
 2137 0044 8DF80520 		strb	r2, [sp, #5]
 574:./Hardware/LCD/SEEKFREE_18TFT.c **** 	a[2] = dat%10;
 2138              		.loc 1 574 2 is_stmt 1 view .LVU519
 2139              		.loc 1 574 7 is_stmt 0 view .LVU520
 2140 0048 03EB8303 		add	r3, r3, r3, lsl #2
 2141 004c A4EB4303 		sub	r3, r4, r3, lsl #1
 2142 0050 8DF80630 		strb	r3, [sp, #6]
 575:./Hardware/LCD/SEEKFREE_18TFT.c **** 	i = 0;
 2143              		.loc 1 575 2 is_stmt 1 view .LVU521
 2144              	.LVL294:
 576:./Hardware/LCD/SEEKFREE_18TFT.c **** 	while(i<3)
 2145              		.loc 1 576 2 view .LVU522
 575:./Hardware/LCD/SEEKFREE_18TFT.c **** 	i = 0;
 2146              		.loc 1 575 4 is_stmt 0 view .LVU523
 2147 0054 0023     		movs	r3, #0
 2148              		.loc 1 576 7 view .LVU524
 2149 0056 16E0     		b	.L125
 2150              	.LVL295:
 2151              	.L123:
 568:./Hardware/LCD/SEEKFREE_18TFT.c **** 		dat = -dat;
 2152              		.loc 1 568 3 is_stmt 1 view .LVU525
 2153 0058 0901     		lsls	r1, r1, #4
 2154              	.LVL296:
 568:./Hardware/LCD/SEEKFREE_18TFT.c **** 		dat = -dat;
 2155              		.loc 1 568 3 is_stmt 0 view .LVU526
 2156 005a 89B2     		uxth	r1, r1
 2157 005c 2D22     		movs	r2, #45
 2158              	.LVL297:
 568:./Hardware/LCD/SEEKFREE_18TFT.c **** 		dat = -dat;
 2159              		.loc 1 568 3 view .LVU527
 2160 005e FFF7FEFF 		bl	lcd_showchar
 2161              	.LVL298:
 569:./Hardware/LCD/SEEKFREE_18TFT.c **** 	}
 2162              		.loc 1 569 3 is_stmt 1 view .LVU528
 569:./Hardware/LCD/SEEKFREE_18TFT.c **** 	}
 2163              		.loc 1 569 7 is_stmt 0 view .LVU529
 2164 0062 6442     		rsbs	r4, r4, #0
 2165 0064 64B2     		sxtb	r4, r4
 2166              	.LVL299:
 569:./Hardware/LCD/SEEKFREE_18TFT.c **** 	}
 2167              		.loc 1 569 7 view .LVU530
ARM GAS  /tmp/ccnOyTCl.s 			page 51


 2168 0066 D6E7     		b	.L124
 2169              	.LVL300:
 2170              	.L126:
 577:./Hardware/LCD/SEEKFREE_18TFT.c **** 	{
 578:./Hardware/LCD/SEEKFREE_18TFT.c **** 		lcd_showchar(x+(8*(i+1)),y*16,'0' + a[i]);
 2171              		.loc 1 578 3 is_stmt 1 view .LVU531
 2172              		.loc 1 578 23 is_stmt 0 view .LVU532
 2173 0068 5C1C     		adds	r4, r3, #1
 2174              		.loc 1 578 40 view .LVU533
 2175 006a 02AA     		add	r2, sp, #8
 2176 006c 1344     		add	r3, r3, r2
 2177              	.LVL301:
 2178              		.loc 1 578 40 view .LVU534
 2179 006e 13F8042C 		ldrb	r2, [r3, #-4]	@ zero_extendqisi2
 2180              		.loc 1 578 3 view .LVU535
 2181 0072 3032     		adds	r2, r2, #48
 2182 0074 3101     		lsls	r1, r6, #4
 2183 0076 89B2     		uxth	r1, r1
 2184 0078 05EBC400 		add	r0, r5, r4, lsl #3
 2185 007c D2B2     		uxtb	r2, r2
 2186 007e 80B2     		uxth	r0, r0
 2187 0080 FFF7FEFF 		bl	lcd_showchar
 2188              	.LVL302:
 579:./Hardware/LCD/SEEKFREE_18TFT.c **** 		i++;
 2189              		.loc 1 579 3 is_stmt 1 view .LVU536
 2190              		.loc 1 579 4 is_stmt 0 view .LVU537
 2191 0084 E3B2     		uxtb	r3, r4
 2192              	.LVL303:
 2193              	.L125:
 576:./Hardware/LCD/SEEKFREE_18TFT.c **** 	{
 2194              		.loc 1 576 7 is_stmt 1 view .LVU538
 2195 0086 022B     		cmp	r3, #2
 2196 0088 EED9     		bls	.L126
 580:./Hardware/LCD/SEEKFREE_18TFT.c **** 	}
 581:./Hardware/LCD/SEEKFREE_18TFT.c **** }
 2197              		.loc 1 581 1 is_stmt 0 view .LVU539
 2198 008a 02B0     		add	sp, sp, #8
 2199              	.LCFI27:
 2200              		.cfi_def_cfa_offset 16
 2201              		@ sp needed
 2202 008c 70BD     		pop	{r4, r5, r6, pc}
 2203              	.L129:
 2204 008e 00BF     		.align	2
 2205              	.L128:
 2206 0090 1F85EB51 		.word	1374389535
 2207 0094 67666666 		.word	1717986919
 2208              		.cfi_endproc
 2209              	.LFE751:
 2211              		.section	.text.lcd_showuint8,"ax",%progbits
 2212              		.align	1
 2213              		.global	lcd_showuint8
 2214              		.syntax unified
 2215              		.thumb
 2216              		.thumb_func
 2217              		.fpu fpv4-sp-d16
 2219              	lcd_showuint8:
 2220              	.LVL304:
ARM GAS  /tmp/ccnOyTCl.s 			page 52


 2221              	.LFB752:
 582:./Hardware/LCD/SEEKFREE_18TFT.c **** 
 583:./Hardware/LCD/SEEKFREE_18TFT.c **** //-------------------------------------------------------------------------------------------------
 584:./Hardware/LCD/SEEKFREE_18TFT.c **** //  @brief      液晶显示8位无符号
 585:./Hardware/LCD/SEEKFREE_18TFT.c **** //  @param      x     	        坐标x方向的起点 参数范围 0 -（TFT_X_MAX-1）
 586:./Hardware/LCD/SEEKFREE_18TFT.c **** //  @param      y     	        坐标y方向的起点 参数范围 0 -（TFT_Y_MAX/16-1）
 587:./Hardware/LCD/SEEKFREE_18TFT.c **** //  @param      dat       	    需要显示的变量，数据类型uint8
 588:./Hardware/LCD/SEEKFREE_18TFT.c **** //  @return     void
 589:./Hardware/LCD/SEEKFREE_18TFT.c **** //  @since      v1.0
 590:./Hardware/LCD/SEEKFREE_18TFT.c **** //  Sample usage:               lcd_showuint8(0,0,x);//x为uint8类型
 591:./Hardware/LCD/SEEKFREE_18TFT.c **** //-------------------------------------------------------------------------------------------------
 592:./Hardware/LCD/SEEKFREE_18TFT.c **** void lcd_showuint8(uint16 x,uint16 y,uint8 dat)
 593:./Hardware/LCD/SEEKFREE_18TFT.c **** {
 2222              		.loc 1 593 1 is_stmt 1 view -0
 2223              		.cfi_startproc
 2224              		@ args = 0, pretend = 0, frame = 8
 2225              		@ frame_needed = 0, uses_anonymous_args = 0
 2226              		.loc 1 593 1 is_stmt 0 view .LVU541
 2227 0000 70B5     		push	{r4, r5, r6, lr}
 2228              	.LCFI28:
 2229              		.cfi_def_cfa_offset 16
 2230              		.cfi_offset 4, -16
 2231              		.cfi_offset 5, -12
 2232              		.cfi_offset 6, -8
 2233              		.cfi_offset 14, -4
 2234 0002 82B0     		sub	sp, sp, #8
 2235              	.LCFI29:
 2236              		.cfi_def_cfa_offset 24
 2237 0004 0646     		mov	r6, r0
 2238 0006 0D46     		mov	r5, r1
 594:./Hardware/LCD/SEEKFREE_18TFT.c **** 	uint8 a[3];
 2239              		.loc 1 594 2 is_stmt 1 view .LVU542
 595:./Hardware/LCD/SEEKFREE_18TFT.c **** 	uint8 i;
 2240              		.loc 1 595 2 view .LVU543
 596:./Hardware/LCD/SEEKFREE_18TFT.c **** 	
 597:./Hardware/LCD/SEEKFREE_18TFT.c **** 	a[0] = dat/100;
 2241              		.loc 1 597 2 view .LVU544
 2242              		.loc 1 597 7 is_stmt 0 view .LVU545
 2243 0008 164B     		ldr	r3, .L134
 2244 000a A3FB0213 		umull	r1, r3, r3, r2
 2245              	.LVL305:
 2246              		.loc 1 597 7 view .LVU546
 2247 000e 5B09     		lsrs	r3, r3, #5
 2248 0010 8DF80430 		strb	r3, [sp, #4]
 598:./Hardware/LCD/SEEKFREE_18TFT.c **** 	a[1] = dat/10%10;
 2249              		.loc 1 598 2 is_stmt 1 view .LVU547
 2250              		.loc 1 598 7 is_stmt 0 view .LVU548
 2251 0014 144B     		ldr	r3, .L134+4
 2252 0016 A3FB0201 		umull	r0, r1, r3, r2
 2253              	.LVL306:
 2254              		.loc 1 598 7 view .LVU549
 2255 001a C808     		lsrs	r0, r1, #3
 2256 001c A3FB0043 		umull	r4, r3, r3, r0
 2257 0020 DB08     		lsrs	r3, r3, #3
 2258 0022 03EB8303 		add	r3, r3, r3, lsl #2
 2259 0026 A0EB4303 		sub	r3, r0, r3, lsl #1
 2260 002a 8DF80530 		strb	r3, [sp, #5]
ARM GAS  /tmp/ccnOyTCl.s 			page 53


 599:./Hardware/LCD/SEEKFREE_18TFT.c **** 	a[2] = dat%10;
 2261              		.loc 1 599 2 is_stmt 1 view .LVU550
 2262              		.loc 1 599 7 is_stmt 0 view .LVU551
 2263 002e 00EB8000 		add	r0, r0, r0, lsl #2
 2264 0032 A2EB4002 		sub	r2, r2, r0, lsl #1
 2265              	.LVL307:
 2266              		.loc 1 599 7 view .LVU552
 2267 0036 8DF80620 		strb	r2, [sp, #6]
 600:./Hardware/LCD/SEEKFREE_18TFT.c **** 	i = 0;
 2268              		.loc 1 600 2 is_stmt 1 view .LVU553
 2269              	.LVL308:
 601:./Hardware/LCD/SEEKFREE_18TFT.c **** 	while(i<3)
 2270              		.loc 1 601 2 view .LVU554
 600:./Hardware/LCD/SEEKFREE_18TFT.c **** 	i = 0;
 2271              		.loc 1 600 4 is_stmt 0 view .LVU555
 2272 003a 0024     		movs	r4, #0
 2273              		.loc 1 601 7 view .LVU556
 2274 003c 0DE0     		b	.L131
 2275              	.LVL309:
 2276              	.L132:
 602:./Hardware/LCD/SEEKFREE_18TFT.c **** 	{
 603:./Hardware/LCD/SEEKFREE_18TFT.c **** 		lcd_showchar(x+(8*i),y,'0' + a[i]);
 2277              		.loc 1 603 3 is_stmt 1 view .LVU557
 2278              		.loc 1 603 33 is_stmt 0 view .LVU558
 2279 003e 02AB     		add	r3, sp, #8
 2280 0040 2344     		add	r3, r3, r4
 2281 0042 13F8042C 		ldrb	r2, [r3, #-4]	@ zero_extendqisi2
 2282              		.loc 1 603 3 view .LVU559
 2283 0046 3032     		adds	r2, r2, #48
 2284 0048 06EBC400 		add	r0, r6, r4, lsl #3
 2285 004c D2B2     		uxtb	r2, r2
 2286 004e 2946     		mov	r1, r5
 2287 0050 80B2     		uxth	r0, r0
 2288 0052 FFF7FEFF 		bl	lcd_showchar
 2289              	.LVL310:
 604:./Hardware/LCD/SEEKFREE_18TFT.c **** 		i++;
 2290              		.loc 1 604 3 is_stmt 1 view .LVU560
 2291              		.loc 1 604 4 is_stmt 0 view .LVU561
 2292 0056 0134     		adds	r4, r4, #1
 2293              	.LVL311:
 2294              		.loc 1 604 4 view .LVU562
 2295 0058 E4B2     		uxtb	r4, r4
 2296              	.LVL312:
 2297              	.L131:
 601:./Hardware/LCD/SEEKFREE_18TFT.c **** 	while(i<3)
 2298              		.loc 1 601 7 is_stmt 1 view .LVU563
 2299 005a 022C     		cmp	r4, #2
 2300 005c EFD9     		bls	.L132
 605:./Hardware/LCD/SEEKFREE_18TFT.c **** 	}
 606:./Hardware/LCD/SEEKFREE_18TFT.c **** 	
 607:./Hardware/LCD/SEEKFREE_18TFT.c **** }
 2301              		.loc 1 607 1 is_stmt 0 view .LVU564
 2302 005e 02B0     		add	sp, sp, #8
 2303              	.LCFI30:
 2304              		.cfi_def_cfa_offset 16
 2305              		@ sp needed
 2306 0060 70BD     		pop	{r4, r5, r6, pc}
ARM GAS  /tmp/ccnOyTCl.s 			page 54


 2307              	.LVL313:
 2308              	.L135:
 2309              		.loc 1 607 1 view .LVU565
 2310 0062 00BF     		.align	2
 2311              	.L134:
 2312 0064 1F85EB51 		.word	1374389535
 2313 0068 CDCCCCCC 		.word	-858993459
 2314              		.cfi_endproc
 2315              	.LFE752:
 2317              		.section	.text.lcd_showint16,"ax",%progbits
 2318              		.align	1
 2319              		.global	lcd_showint16
 2320              		.syntax unified
 2321              		.thumb
 2322              		.thumb_func
 2323              		.fpu fpv4-sp-d16
 2325              	lcd_showint16:
 2326              	.LVL314:
 2327              	.LFB753:
 608:./Hardware/LCD/SEEKFREE_18TFT.c **** 
 609:./Hardware/LCD/SEEKFREE_18TFT.c **** //-------------------------------------------------------------------------------------------------
 610:./Hardware/LCD/SEEKFREE_18TFT.c **** //  @brief      液晶显示16位有符号
 611:./Hardware/LCD/SEEKFREE_18TFT.c **** //  @param      x     	        坐标x方向的起点 参数范围 0 -（TFT_X_MAX-1）
 612:./Hardware/LCD/SEEKFREE_18TFT.c **** //  @param      y     	        坐标y方向的起点 参数范围 0 -（TFT_Y_MAX/16-1）
 613:./Hardware/LCD/SEEKFREE_18TFT.c **** //  @param      dat       	    需要显示的变量，数据类型int16
 614:./Hardware/LCD/SEEKFREE_18TFT.c **** //  @return     void
 615:./Hardware/LCD/SEEKFREE_18TFT.c **** //  @since      v1.0
 616:./Hardware/LCD/SEEKFREE_18TFT.c **** //  Sample usage:               lcd_showint16(0,0,x);//x为int16类型
 617:./Hardware/LCD/SEEKFREE_18TFT.c **** //-------------------------------------------------------------------------------------------------
 618:./Hardware/LCD/SEEKFREE_18TFT.c **** void lcd_showint16(uint16 x,uint16 y,int16 dat)
 619:./Hardware/LCD/SEEKFREE_18TFT.c **** {
 2328              		.loc 1 619 1 is_stmt 1 view -0
 2329              		.cfi_startproc
 2330              		@ args = 0, pretend = 0, frame = 8
 2331              		@ frame_needed = 0, uses_anonymous_args = 0
 2332              		.loc 1 619 1 is_stmt 0 view .LVU567
 2333 0000 70B5     		push	{r4, r5, r6, lr}
 2334              	.LCFI31:
 2335              		.cfi_def_cfa_offset 16
 2336              		.cfi_offset 4, -16
 2337              		.cfi_offset 5, -12
 2338              		.cfi_offset 6, -8
 2339              		.cfi_offset 14, -4
 2340 0002 82B0     		sub	sp, sp, #8
 2341              	.LCFI32:
 2342              		.cfi_def_cfa_offset 24
 2343 0004 0546     		mov	r5, r0
 2344 0006 0E46     		mov	r6, r1
 620:./Hardware/LCD/SEEKFREE_18TFT.c **** 	uint8 a[5];
 2345              		.loc 1 620 2 is_stmt 1 view .LVU568
 621:./Hardware/LCD/SEEKFREE_18TFT.c **** 	uint8 i;
 2346              		.loc 1 621 2 view .LVU569
 622:./Hardware/LCD/SEEKFREE_18TFT.c **** 	if(dat<0)
 2347              		.loc 1 622 2 view .LVU570
 2348              		.loc 1 622 4 is_stmt 0 view .LVU571
 2349 0008 141E     		subs	r4, r2, #0
 2350 000a 47DB     		blt	.L142
ARM GAS  /tmp/ccnOyTCl.s 			page 55


 623:./Hardware/LCD/SEEKFREE_18TFT.c **** 	{
 624:./Hardware/LCD/SEEKFREE_18TFT.c **** 		lcd_showchar(x,y*16,'-');
 625:./Hardware/LCD/SEEKFREE_18TFT.c **** 		dat = -dat;
 626:./Hardware/LCD/SEEKFREE_18TFT.c **** 	}
 627:./Hardware/LCD/SEEKFREE_18TFT.c **** 	else	lcd_showchar(x,y*16,' ');
 2351              		.loc 1 627 7 is_stmt 1 view .LVU572
 2352 000c 0901     		lsls	r1, r1, #4
 2353              	.LVL315:
 2354              		.loc 1 627 7 is_stmt 0 view .LVU573
 2355 000e 89B2     		uxth	r1, r1
 2356 0010 2022     		movs	r2, #32
 2357              	.LVL316:
 2358              		.loc 1 627 7 view .LVU574
 2359 0012 FFF7FEFF 		bl	lcd_showchar
 2360              	.LVL317:
 2361              	.L138:
 628:./Hardware/LCD/SEEKFREE_18TFT.c **** 
 629:./Hardware/LCD/SEEKFREE_18TFT.c **** 	a[0] = dat/10000;
 2362              		.loc 1 629 2 is_stmt 1 view .LVU575
 2363              		.loc 1 629 7 is_stmt 0 view .LVU576
 2364 0016 2F4B     		ldr	r3, .L143
 2365 0018 83FB0423 		smull	r2, r3, r3, r4
 2366 001c E217     		asrs	r2, r4, #31
 2367 001e C2EB2333 		rsb	r3, r2, r3, asr #12
 2368 0022 8DF80030 		strb	r3, [sp]
 630:./Hardware/LCD/SEEKFREE_18TFT.c **** 	a[1] = dat/1000%10;
 2369              		.loc 1 630 2 is_stmt 1 view .LVU577
 2370              		.loc 1 630 7 is_stmt 0 view .LVU578
 2371 0026 2C4B     		ldr	r3, .L143+4
 2372 0028 83FB0413 		smull	r1, r3, r3, r4
 2373 002c C2EBA313 		rsb	r3, r2, r3, asr #6
 2374 0030 1BB2     		sxth	r3, r3
 2375 0032 2A49     		ldr	r1, .L143+8
 2376 0034 81FB030C 		smull	r0, ip, r1, r3
 2377 0038 D817     		asrs	r0, r3, #31
 2378 003a C0EBAC00 		rsb	r0, r0, ip, asr #2
 2379 003e 00EB8000 		add	r0, r0, r0, lsl #2
 2380 0042 A3EB4003 		sub	r3, r3, r0, lsl #1
 2381 0046 8DF80130 		strb	r3, [sp, #1]
 631:./Hardware/LCD/SEEKFREE_18TFT.c **** 	a[2] = dat/100%10;
 2382              		.loc 1 631 2 is_stmt 1 view .LVU579
 2383              		.loc 1 631 7 is_stmt 0 view .LVU580
 2384 004a 254B     		ldr	r3, .L143+12
 2385 004c 83FB0403 		smull	r0, r3, r3, r4
 2386 0050 C2EB6313 		rsb	r3, r2, r3, asr #5
 2387 0054 1BB2     		sxth	r3, r3
 2388 0056 81FB030C 		smull	r0, ip, r1, r3
 2389 005a D817     		asrs	r0, r3, #31
 2390 005c C0EBAC00 		rsb	r0, r0, ip, asr #2
 2391 0060 00EB8000 		add	r0, r0, r0, lsl #2
 2392 0064 A3EB4003 		sub	r3, r3, r0, lsl #1
 2393 0068 8DF80230 		strb	r3, [sp, #2]
 632:./Hardware/LCD/SEEKFREE_18TFT.c **** 	a[3] = dat/10%10;
 2394              		.loc 1 632 2 is_stmt 1 view .LVU581
 2395              		.loc 1 632 7 is_stmt 0 view .LVU582
 2396 006c 81FB0403 		smull	r0, r3, r1, r4
 2397 0070 C2EBA302 		rsb	r2, r2, r3, asr #2
ARM GAS  /tmp/ccnOyTCl.s 			page 56


 2398 0074 10B2     		sxth	r0, r2
 2399 0076 81FB0031 		smull	r3, r1, r1, r0
 2400 007a C317     		asrs	r3, r0, #31
 2401 007c C3EBA103 		rsb	r3, r3, r1, asr #2
 2402 0080 03EB8303 		add	r3, r3, r3, lsl #2
 2403 0084 A0EB4303 		sub	r3, r0, r3, lsl #1
 2404 0088 8DF80330 		strb	r3, [sp, #3]
 633:./Hardware/LCD/SEEKFREE_18TFT.c **** 	a[4] = dat%10;
 2405              		.loc 1 633 2 is_stmt 1 view .LVU583
 2406              		.loc 1 633 7 is_stmt 0 view .LVU584
 2407 008c 02EB8202 		add	r2, r2, r2, lsl #2
 2408 0090 A4EB4202 		sub	r2, r4, r2, lsl #1
 2409 0094 8DF80420 		strb	r2, [sp, #4]
 634:./Hardware/LCD/SEEKFREE_18TFT.c **** 	
 635:./Hardware/LCD/SEEKFREE_18TFT.c **** 	i = 0;
 2410              		.loc 1 635 2 is_stmt 1 view .LVU585
 2411              	.LVL318:
 636:./Hardware/LCD/SEEKFREE_18TFT.c **** 	while(i<5)
 2412              		.loc 1 636 2 view .LVU586
 635:./Hardware/LCD/SEEKFREE_18TFT.c **** 	while(i<5)
 2413              		.loc 1 635 4 is_stmt 0 view .LVU587
 2414 0098 0023     		movs	r3, #0
 2415              		.loc 1 636 7 view .LVU588
 2416 009a 16E0     		b	.L139
 2417              	.LVL319:
 2418              	.L142:
 624:./Hardware/LCD/SEEKFREE_18TFT.c **** 		dat = -dat;
 2419              		.loc 1 624 3 is_stmt 1 view .LVU589
 2420 009c 0901     		lsls	r1, r1, #4
 2421              	.LVL320:
 624:./Hardware/LCD/SEEKFREE_18TFT.c **** 		dat = -dat;
 2422              		.loc 1 624 3 is_stmt 0 view .LVU590
 2423 009e 89B2     		uxth	r1, r1
 2424 00a0 2D22     		movs	r2, #45
 2425              	.LVL321:
 624:./Hardware/LCD/SEEKFREE_18TFT.c **** 		dat = -dat;
 2426              		.loc 1 624 3 view .LVU591
 2427 00a2 FFF7FEFF 		bl	lcd_showchar
 2428              	.LVL322:
 625:./Hardware/LCD/SEEKFREE_18TFT.c **** 	}
 2429              		.loc 1 625 3 is_stmt 1 view .LVU592
 625:./Hardware/LCD/SEEKFREE_18TFT.c **** 	}
 2430              		.loc 1 625 7 is_stmt 0 view .LVU593
 2431 00a6 6442     		rsbs	r4, r4, #0
 2432 00a8 24B2     		sxth	r4, r4
 2433              	.LVL323:
 625:./Hardware/LCD/SEEKFREE_18TFT.c **** 	}
 2434              		.loc 1 625 7 view .LVU594
 2435 00aa B4E7     		b	.L138
 2436              	.LVL324:
 2437              	.L140:
 637:./Hardware/LCD/SEEKFREE_18TFT.c **** 	{
 638:./Hardware/LCD/SEEKFREE_18TFT.c **** 		lcd_showchar(x+(8*(i+1)),y*16,'0' + a[i]);
 2438              		.loc 1 638 3 is_stmt 1 view .LVU595
 2439              		.loc 1 638 23 is_stmt 0 view .LVU596
 2440 00ac 5C1C     		adds	r4, r3, #1
 2441              		.loc 1 638 40 view .LVU597
ARM GAS  /tmp/ccnOyTCl.s 			page 57


 2442 00ae 02AA     		add	r2, sp, #8
 2443 00b0 1344     		add	r3, r3, r2
 2444              	.LVL325:
 2445              		.loc 1 638 40 view .LVU598
 2446 00b2 13F8082C 		ldrb	r2, [r3, #-8]	@ zero_extendqisi2
 2447              		.loc 1 638 3 view .LVU599
 2448 00b6 3032     		adds	r2, r2, #48
 2449 00b8 3101     		lsls	r1, r6, #4
 2450 00ba 89B2     		uxth	r1, r1
 2451 00bc 05EBC400 		add	r0, r5, r4, lsl #3
 2452 00c0 D2B2     		uxtb	r2, r2
 2453 00c2 80B2     		uxth	r0, r0
 2454 00c4 FFF7FEFF 		bl	lcd_showchar
 2455              	.LVL326:
 639:./Hardware/LCD/SEEKFREE_18TFT.c **** 		i++;
 2456              		.loc 1 639 3 is_stmt 1 view .LVU600
 2457              		.loc 1 639 4 is_stmt 0 view .LVU601
 2458 00c8 E3B2     		uxtb	r3, r4
 2459              	.LVL327:
 2460              	.L139:
 636:./Hardware/LCD/SEEKFREE_18TFT.c **** 	{
 2461              		.loc 1 636 7 is_stmt 1 view .LVU602
 2462 00ca 042B     		cmp	r3, #4
 2463 00cc EED9     		bls	.L140
 640:./Hardware/LCD/SEEKFREE_18TFT.c **** 	}
 641:./Hardware/LCD/SEEKFREE_18TFT.c **** }
 2464              		.loc 1 641 1 is_stmt 0 view .LVU603
 2465 00ce 02B0     		add	sp, sp, #8
 2466              	.LCFI33:
 2467              		.cfi_def_cfa_offset 16
 2468              		@ sp needed
 2469 00d0 70BD     		pop	{r4, r5, r6, pc}
 2470              	.L144:
 2471 00d2 00BF     		.align	2
 2472              	.L143:
 2473 00d4 AD8BDB68 		.word	1759218605
 2474 00d8 D34D6210 		.word	274877907
 2475 00dc 67666666 		.word	1717986919
 2476 00e0 1F85EB51 		.word	1374389535
 2477              		.cfi_endproc
 2478              	.LFE753:
 2480              		.section	.text.lcd_showuint16,"ax",%progbits
 2481              		.align	1
 2482              		.global	lcd_showuint16
 2483              		.syntax unified
 2484              		.thumb
 2485              		.thumb_func
 2486              		.fpu fpv4-sp-d16
 2488              	lcd_showuint16:
 2489              	.LVL328:
 2490              	.LFB754:
 642:./Hardware/LCD/SEEKFREE_18TFT.c **** 
 643:./Hardware/LCD/SEEKFREE_18TFT.c **** //-------------------------------------------------------------------------------------------------
 644:./Hardware/LCD/SEEKFREE_18TFT.c **** //  @brief      液晶显示16位无符号
 645:./Hardware/LCD/SEEKFREE_18TFT.c **** //  @param      x     	        坐标x方向的起点 参数范围 0 -（TFT_X_MAX-1）
 646:./Hardware/LCD/SEEKFREE_18TFT.c **** //  @param      y     	        坐标y方向的起点 参数范围 0 -（TFT_Y_MAX/16-1）
 647:./Hardware/LCD/SEEKFREE_18TFT.c **** //  @param      dat       	    需要显示的变量，数据类型uint16
ARM GAS  /tmp/ccnOyTCl.s 			page 58


 648:./Hardware/LCD/SEEKFREE_18TFT.c **** //  @return     void
 649:./Hardware/LCD/SEEKFREE_18TFT.c **** //  @since      v1.0
 650:./Hardware/LCD/SEEKFREE_18TFT.c **** //  Sample usage:               lcd_showuint16(0,0,x);//x为uint16类型
 651:./Hardware/LCD/SEEKFREE_18TFT.c **** //-------------------------------------------------------------------------------------------------
 652:./Hardware/LCD/SEEKFREE_18TFT.c **** void lcd_showuint16(uint16 x,uint16 y,uint16 dat)
 653:./Hardware/LCD/SEEKFREE_18TFT.c **** {
 2491              		.loc 1 653 1 is_stmt 1 view -0
 2492              		.cfi_startproc
 2493              		@ args = 0, pretend = 0, frame = 8
 2494              		@ frame_needed = 0, uses_anonymous_args = 0
 2495              		.loc 1 653 1 is_stmt 0 view .LVU605
 2496 0000 70B5     		push	{r4, r5, r6, lr}
 2497              	.LCFI34:
 2498              		.cfi_def_cfa_offset 16
 2499              		.cfi_offset 4, -16
 2500              		.cfi_offset 5, -12
 2501              		.cfi_offset 6, -8
 2502              		.cfi_offset 14, -4
 2503 0002 82B0     		sub	sp, sp, #8
 2504              	.LCFI35:
 2505              		.cfi_def_cfa_offset 24
 2506 0004 0646     		mov	r6, r0
 2507 0006 0D46     		mov	r5, r1
 654:./Hardware/LCD/SEEKFREE_18TFT.c **** 	uint8 a[5];
 2508              		.loc 1 654 2 is_stmt 1 view .LVU606
 655:./Hardware/LCD/SEEKFREE_18TFT.c **** 	uint8 i;
 2509              		.loc 1 655 2 view .LVU607
 656:./Hardware/LCD/SEEKFREE_18TFT.c **** 
 657:./Hardware/LCD/SEEKFREE_18TFT.c **** 	a[0] = dat/10000;
 2510              		.loc 1 657 2 view .LVU608
 2511              		.loc 1 657 7 is_stmt 0 view .LVU609
 2512 0008 234B     		ldr	r3, .L149
 2513 000a A3FB0213 		umull	r1, r3, r3, r2
 2514              	.LVL329:
 2515              		.loc 1 657 7 view .LVU610
 2516 000e 5B0B     		lsrs	r3, r3, #13
 2517 0010 8DF80030 		strb	r3, [sp]
 658:./Hardware/LCD/SEEKFREE_18TFT.c **** 	a[1] = dat/1000%10;
 2518              		.loc 1 658 2 is_stmt 1 view .LVU611
 2519              		.loc 1 658 7 is_stmt 0 view .LVU612
 2520 0014 2149     		ldr	r1, .L149+4
 2521 0016 A1FB0231 		umull	r3, r1, r1, r2
 2522 001a 8909     		lsrs	r1, r1, #6
 2523 001c 204B     		ldr	r3, .L149+8
 2524 001e A3FB0140 		umull	r4, r0, r3, r1
 2525              	.LVL330:
 2526              		.loc 1 658 7 view .LVU613
 2527 0022 C008     		lsrs	r0, r0, #3
 2528 0024 00EB8000 		add	r0, r0, r0, lsl #2
 2529 0028 A1EB4001 		sub	r1, r1, r0, lsl #1
 2530 002c 8DF80110 		strb	r1, [sp, #1]
 659:./Hardware/LCD/SEEKFREE_18TFT.c **** 	a[2] = dat/100%10;
 2531              		.loc 1 659 2 is_stmt 1 view .LVU614
 2532              		.loc 1 659 7 is_stmt 0 view .LVU615
 2533 0030 1C49     		ldr	r1, .L149+12
 2534 0032 A1FB0201 		umull	r0, r1, r1, r2
 2535 0036 4909     		lsrs	r1, r1, #5
ARM GAS  /tmp/ccnOyTCl.s 			page 59


 2536 0038 A3FB0140 		umull	r4, r0, r3, r1
 2537 003c C008     		lsrs	r0, r0, #3
 2538 003e 00EB8000 		add	r0, r0, r0, lsl #2
 2539 0042 A1EB4001 		sub	r1, r1, r0, lsl #1
 2540 0046 8DF80210 		strb	r1, [sp, #2]
 660:./Hardware/LCD/SEEKFREE_18TFT.c **** 	a[3] = dat/10%10;
 2541              		.loc 1 660 2 is_stmt 1 view .LVU616
 2542              		.loc 1 660 7 is_stmt 0 view .LVU617
 2543 004a A3FB0201 		umull	r0, r1, r3, r2
 2544 004e C808     		lsrs	r0, r1, #3
 2545 0050 A3FB0043 		umull	r4, r3, r3, r0
 2546 0054 DB08     		lsrs	r3, r3, #3
 2547 0056 03EB8303 		add	r3, r3, r3, lsl #2
 2548 005a A0EB4303 		sub	r3, r0, r3, lsl #1
 2549 005e 8DF80330 		strb	r3, [sp, #3]
 661:./Hardware/LCD/SEEKFREE_18TFT.c **** 	a[4] = dat%10;
 2550              		.loc 1 661 2 is_stmt 1 view .LVU618
 2551              		.loc 1 661 7 is_stmt 0 view .LVU619
 2552 0062 00EB8000 		add	r0, r0, r0, lsl #2
 2553 0066 A2EB4002 		sub	r2, r2, r0, lsl #1
 2554              	.LVL331:
 2555              		.loc 1 661 7 view .LVU620
 2556 006a 8DF80420 		strb	r2, [sp, #4]
 662:./Hardware/LCD/SEEKFREE_18TFT.c **** 	
 663:./Hardware/LCD/SEEKFREE_18TFT.c **** 	i = 0;
 2557              		.loc 1 663 2 is_stmt 1 view .LVU621
 2558              	.LVL332:
 664:./Hardware/LCD/SEEKFREE_18TFT.c **** 	while(i<5)
 2559              		.loc 1 664 2 view .LVU622
 663:./Hardware/LCD/SEEKFREE_18TFT.c **** 	while(i<5)
 2560              		.loc 1 663 4 is_stmt 0 view .LVU623
 2561 006e 0024     		movs	r4, #0
 2562              		.loc 1 664 7 view .LVU624
 2563 0070 0EE0     		b	.L146
 2564              	.LVL333:
 2565              	.L147:
 665:./Hardware/LCD/SEEKFREE_18TFT.c **** 	{
 666:./Hardware/LCD/SEEKFREE_18TFT.c **** 		lcd_showchar(x+(8*i),y*16,'0' + a[i]);
 2566              		.loc 1 666 3 is_stmt 1 view .LVU625
 2567              		.loc 1 666 36 is_stmt 0 view .LVU626
 2568 0072 02AB     		add	r3, sp, #8
 2569 0074 2344     		add	r3, r3, r4
 2570 0076 13F8082C 		ldrb	r2, [r3, #-8]	@ zero_extendqisi2
 2571              		.loc 1 666 3 view .LVU627
 2572 007a 3032     		adds	r2, r2, #48
 2573 007c 2901     		lsls	r1, r5, #4
 2574 007e 89B2     		uxth	r1, r1
 2575 0080 06EBC400 		add	r0, r6, r4, lsl #3
 2576 0084 D2B2     		uxtb	r2, r2
 2577 0086 80B2     		uxth	r0, r0
 2578 0088 FFF7FEFF 		bl	lcd_showchar
 2579              	.LVL334:
 667:./Hardware/LCD/SEEKFREE_18TFT.c **** 		i++;
 2580              		.loc 1 667 3 is_stmt 1 view .LVU628
 2581              		.loc 1 667 4 is_stmt 0 view .LVU629
 2582 008c 0134     		adds	r4, r4, #1
 2583              	.LVL335:
ARM GAS  /tmp/ccnOyTCl.s 			page 60


 2584              		.loc 1 667 4 view .LVU630
 2585 008e E4B2     		uxtb	r4, r4
 2586              	.LVL336:
 2587              	.L146:
 664:./Hardware/LCD/SEEKFREE_18TFT.c **** 	{
 2588              		.loc 1 664 7 is_stmt 1 view .LVU631
 2589 0090 042C     		cmp	r4, #4
 2590 0092 EED9     		bls	.L147
 668:./Hardware/LCD/SEEKFREE_18TFT.c **** 	}
 669:./Hardware/LCD/SEEKFREE_18TFT.c **** }
 2591              		.loc 1 669 1 is_stmt 0 view .LVU632
 2592 0094 02B0     		add	sp, sp, #8
 2593              	.LCFI36:
 2594              		.cfi_def_cfa_offset 16
 2595              		@ sp needed
 2596 0096 70BD     		pop	{r4, r5, r6, pc}
 2597              	.LVL337:
 2598              	.L150:
 2599              		.loc 1 669 1 view .LVU633
 2600              		.align	2
 2601              	.L149:
 2602 0098 5917B7D1 		.word	-776530087
 2603 009c D34D6210 		.word	274877907
 2604 00a0 CDCCCCCC 		.word	-858993459
 2605 00a4 1F85EB51 		.word	1374389535
 2606              		.cfi_endproc
 2607              	.LFE754:
 2609              		.section	.text.showimage,"ax",%progbits
 2610              		.align	1
 2611              		.global	showimage
 2612              		.syntax unified
 2613              		.thumb
 2614              		.thumb_func
 2615              		.fpu fpv4-sp-d16
 2617              	showimage:
 2618              	.LVL338:
 2619              	.LFB755:
 670:./Hardware/LCD/SEEKFREE_18TFT.c **** 
 671:./Hardware/LCD/SEEKFREE_18TFT.c **** 
 672:./Hardware/LCD/SEEKFREE_18TFT.c **** 
 673:./Hardware/LCD/SEEKFREE_18TFT.c **** 
 674:./Hardware/LCD/SEEKFREE_18TFT.c **** //-------------------------------------------------------------------------------------------------
 675:./Hardware/LCD/SEEKFREE_18TFT.c **** //  @brief      显示40*40 QQ图片
 676:./Hardware/LCD/SEEKFREE_18TFT.c **** //  @param      *p     			图像数组地址
 677:./Hardware/LCD/SEEKFREE_18TFT.c **** //  @return     void
 678:./Hardware/LCD/SEEKFREE_18TFT.c **** //  @since      v1.0
 679:./Hardware/LCD/SEEKFREE_18TFT.c **** //  Sample usage:          
 680:./Hardware/LCD/SEEKFREE_18TFT.c **** //-------------------------------------------------------------------------------------------------
 681:./Hardware/LCD/SEEKFREE_18TFT.c **** void showimage(const unsigned char *p) 
 682:./Hardware/LCD/SEEKFREE_18TFT.c **** {
 2620              		.loc 1 682 1 is_stmt 1 view -0
 2621              		.cfi_startproc
 2622              		@ args = 0, pretend = 0, frame = 0
 2623              		@ frame_needed = 0, uses_anonymous_args = 0
 2624              		.loc 1 682 1 is_stmt 0 view .LVU635
 2625 0000 F8B5     		push	{r3, r4, r5, r6, r7, lr}
 2626              	.LCFI37:
ARM GAS  /tmp/ccnOyTCl.s 			page 61


 2627              		.cfi_def_cfa_offset 24
 2628              		.cfi_offset 3, -24
 2629              		.cfi_offset 4, -20
 2630              		.cfi_offset 5, -16
 2631              		.cfi_offset 6, -12
 2632              		.cfi_offset 7, -8
 2633              		.cfi_offset 14, -4
 2634 0002 0546     		mov	r5, r0
 683:./Hardware/LCD/SEEKFREE_18TFT.c ****   	int i,j,k; 
 2635              		.loc 1 683 4 is_stmt 1 view .LVU636
 684:./Hardware/LCD/SEEKFREE_18TFT.c **** 	unsigned char picH,picL;
 2636              		.loc 1 684 2 view .LVU637
 685:./Hardware/LCD/SEEKFREE_18TFT.c **** 	lcd_clear(WHITE); //清屏  
 2637              		.loc 1 685 2 view .LVU638
 2638 0004 4FF6FF70 		movw	r0, #65535
 2639              	.LVL339:
 2640              		.loc 1 685 2 is_stmt 0 view .LVU639
 2641 0008 FFF7FEFF 		bl	lcd_clear
 2642              	.LVL340:
 686:./Hardware/LCD/SEEKFREE_18TFT.c **** 	
 687:./Hardware/LCD/SEEKFREE_18TFT.c **** 	for(k=0;k<4;k++)
 2643              		.loc 1 687 2 is_stmt 1 view .LVU640
 2644              		.loc 1 687 7 is_stmt 0 view .LVU641
 2645 000c 0027     		movs	r7, #0
 2646              		.loc 1 687 2 view .LVU642
 2647 000e 1EE0     		b	.L152
 2648              	.LVL341:
 2649              	.L154:
 688:./Hardware/LCD/SEEKFREE_18TFT.c **** 	{
 689:./Hardware/LCD/SEEKFREE_18TFT.c **** 	   	for(j=0;j<3;j++)
 690:./Hardware/LCD/SEEKFREE_18TFT.c **** 		{	
 691:./Hardware/LCD/SEEKFREE_18TFT.c **** 			lcd_set_region(40*j,40*k,40*j+39,40*k+39);		//坐标设置
 692:./Hardware/LCD/SEEKFREE_18TFT.c **** 		    for(i=0;i<40*40;i++)
 693:./Hardware/LCD/SEEKFREE_18TFT.c **** 			 {	
 694:./Hardware/LCD/SEEKFREE_18TFT.c **** 			 	picL=*(p+i*2);	//数据低位在前
 2650              		.loc 1 694 6 is_stmt 1 discriminator 3 view .LVU643
 2651              		.loc 1 694 16 is_stmt 0 discriminator 3 view .LVU644
 2652 0010 6300     		lsls	r3, r4, #1
 2653              		.loc 1 694 10 discriminator 3 view .LVU645
 2654 0012 15F81420 		ldrb	r2, [r5, r4, lsl #1]	@ zero_extendqisi2
 2655              	.LVL342:
 695:./Hardware/LCD/SEEKFREE_18TFT.c **** 				picH=*(p+i*2+1);				
 2656              		.loc 1 695 5 is_stmt 1 discriminator 3 view .LVU646
 2657              		.loc 1 695 17 is_stmt 0 discriminator 3 view .LVU647
 2658 0016 0133     		adds	r3, r3, #1
 2659              		.loc 1 695 9 discriminator 3 view .LVU648
 2660 0018 E85C     		ldrb	r0, [r5, r3]	@ zero_extendqisi2
 2661              	.LVL343:
 696:./Hardware/LCD/SEEKFREE_18TFT.c **** 				lcd_writedata_16bit(picH<<8|picL);  						
 2662              		.loc 1 696 5 is_stmt 1 discriminator 3 view .LVU649
 2663 001a 42EA0020 		orr	r0, r2, r0, lsl #8
 2664              	.LVL344:
 2665              		.loc 1 696 5 is_stmt 0 discriminator 3 view .LVU650
 2666 001e FFF7FEFF 		bl	lcd_writedata_16bit
 2667              	.LVL345:
 692:./Hardware/LCD/SEEKFREE_18TFT.c **** 			 {	
 2668              		.loc 1 692 23 is_stmt 1 discriminator 3 view .LVU651
ARM GAS  /tmp/ccnOyTCl.s 			page 62


 692:./Hardware/LCD/SEEKFREE_18TFT.c **** 			 {	
 2669              		.loc 1 692 24 is_stmt 0 discriminator 3 view .LVU652
 2670 0022 0134     		adds	r4, r4, #1
 2671              	.LVL346:
 2672              	.L153:
 692:./Hardware/LCD/SEEKFREE_18TFT.c **** 			 {	
 2673              		.loc 1 692 15 is_stmt 1 discriminator 1 view .LVU653
 692:./Hardware/LCD/SEEKFREE_18TFT.c **** 			 {	
 2674              		.loc 1 692 7 is_stmt 0 discriminator 1 view .LVU654
 2675 0024 B4F5C86F 		cmp	r4, #1600
 2676 0028 F2DB     		blt	.L154
 689:./Hardware/LCD/SEEKFREE_18TFT.c **** 		{	
 2677              		.loc 1 689 18 is_stmt 1 discriminator 2 view .LVU655
 689:./Hardware/LCD/SEEKFREE_18TFT.c **** 		{	
 2678              		.loc 1 689 19 is_stmt 0 discriminator 2 view .LVU656
 2679 002a 0136     		adds	r6, r6, #1
 2680              	.LVL347:
 2681              	.L156:
 689:./Hardware/LCD/SEEKFREE_18TFT.c **** 		{	
 2682              		.loc 1 689 14 is_stmt 1 discriminator 1 view .LVU657
 689:./Hardware/LCD/SEEKFREE_18TFT.c **** 		{	
 2683              		.loc 1 689 6 is_stmt 0 discriminator 1 view .LVU658
 2684 002c 022E     		cmp	r6, #2
 2685 002e 0DDC     		bgt	.L159
 691:./Hardware/LCD/SEEKFREE_18TFT.c **** 		    for(i=0;i<40*40;i++)
 2686              		.loc 1 691 4 is_stmt 1 view .LVU659
 691:./Hardware/LCD/SEEKFREE_18TFT.c **** 		    for(i=0;i<40*40;i++)
 2687              		.loc 1 691 21 is_stmt 0 view .LVU660
 2688 0030 06EB8600 		add	r0, r6, r6, lsl #2
 2689 0034 C000     		lsls	r0, r0, #3
 691:./Hardware/LCD/SEEKFREE_18TFT.c **** 		    for(i=0;i<40*40;i++)
 2690              		.loc 1 691 26 view .LVU661
 2691 0036 07EB8701 		add	r1, r7, r7, lsl #2
 2692 003a C900     		lsls	r1, r1, #3
 691:./Hardware/LCD/SEEKFREE_18TFT.c **** 		    for(i=0;i<40*40;i++)
 2693              		.loc 1 691 4 view .LVU662
 2694 003c 01F12703 		add	r3, r1, #39
 2695 0040 00F12702 		add	r2, r0, #39
 2696 0044 FFF7FEFF 		bl	lcd_set_region
 2697              	.LVL348:
 692:./Hardware/LCD/SEEKFREE_18TFT.c **** 			 {	
 2698              		.loc 1 692 7 is_stmt 1 view .LVU663
 692:./Hardware/LCD/SEEKFREE_18TFT.c **** 			 {	
 2699              		.loc 1 692 12 is_stmt 0 view .LVU664
 2700 0048 0024     		movs	r4, #0
 692:./Hardware/LCD/SEEKFREE_18TFT.c **** 			 {	
 2701              		.loc 1 692 7 view .LVU665
 2702 004a EBE7     		b	.L153
 2703              	.LVL349:
 2704              	.L159:
 687:./Hardware/LCD/SEEKFREE_18TFT.c **** 	{
 2705              		.loc 1 687 14 is_stmt 1 discriminator 2 view .LVU666
 687:./Hardware/LCD/SEEKFREE_18TFT.c **** 	{
 2706              		.loc 1 687 15 is_stmt 0 discriminator 2 view .LVU667
 2707 004c 0137     		adds	r7, r7, #1
 2708              	.LVL350:
 2709              	.L152:
ARM GAS  /tmp/ccnOyTCl.s 			page 63


 687:./Hardware/LCD/SEEKFREE_18TFT.c **** 	{
 2710              		.loc 1 687 10 is_stmt 1 discriminator 1 view .LVU668
 687:./Hardware/LCD/SEEKFREE_18TFT.c **** 	{
 2711              		.loc 1 687 2 is_stmt 0 discriminator 1 view .LVU669
 2712 004e 032F     		cmp	r7, #3
 2713 0050 01DC     		bgt	.L160
 689:./Hardware/LCD/SEEKFREE_18TFT.c **** 		{	
 2714              		.loc 1 689 11 view .LVU670
 2715 0052 0026     		movs	r6, #0
 2716 0054 EAE7     		b	.L156
 2717              	.L160:
 697:./Hardware/LCD/SEEKFREE_18TFT.c **** 			 }	
 698:./Hardware/LCD/SEEKFREE_18TFT.c **** 		 }
 699:./Hardware/LCD/SEEKFREE_18TFT.c **** 	}		
 700:./Hardware/LCD/SEEKFREE_18TFT.c **** }
 2718              		.loc 1 700 1 view .LVU671
 2719 0056 F8BD     		pop	{r3, r4, r5, r6, r7, pc}
 2720              		.loc 1 700 1 view .LVU672
 2721              		.cfi_endproc
 2722              	.LFE755:
 2724              		.section	.text.lcd_displayimage032,"ax",%progbits
 2725              		.align	1
 2726              		.global	lcd_displayimage032
 2727              		.syntax unified
 2728              		.thumb
 2729              		.thumb_func
 2730              		.fpu fpv4-sp-d16
 2732              	lcd_displayimage032:
 2733              	.LVL351:
 2734              	.LFB756:
 701:./Hardware/LCD/SEEKFREE_18TFT.c **** 
 702:./Hardware/LCD/SEEKFREE_18TFT.c **** 
 703:./Hardware/LCD/SEEKFREE_18TFT.c **** //-------------------------------------------------------------------------------------------------
 704:./Hardware/LCD/SEEKFREE_18TFT.c **** //  @brief      总钻风(灰度摄像头)液晶显示函数
 705:./Hardware/LCD/SEEKFREE_18TFT.c **** //  @param      *p     			图像数组地址
 706:./Hardware/LCD/SEEKFREE_18TFT.c **** //  @param      width     	    图像宽度
 707:./Hardware/LCD/SEEKFREE_18TFT.c **** //  @param      height     	    图像高度
 708:./Hardware/LCD/SEEKFREE_18TFT.c **** //  @return     void
 709:./Hardware/LCD/SEEKFREE_18TFT.c **** //  @since      v1.0
 710:./Hardware/LCD/SEEKFREE_18TFT.c **** //  Sample usage:              
 711:./Hardware/LCD/SEEKFREE_18TFT.c **** //  @note       图像的宽度如果超过液晶的宽度，则自动进行缩放显示。这样
 712:./Hardware/LCD/SEEKFREE_18TFT.c **** //-------------------------------------------------------------------------------------------------
 713:./Hardware/LCD/SEEKFREE_18TFT.c **** void lcd_displayimage032(uint8 *p, uint16 width, uint16 height) 
 714:./Hardware/LCD/SEEKFREE_18TFT.c **** {
 2735              		.loc 1 714 1 is_stmt 1 view -0
 2736              		.cfi_startproc
 2737              		@ args = 0, pretend = 0, frame = 0
 2738              		@ frame_needed = 0, uses_anonymous_args = 0
 2739              		.loc 1 714 1 is_stmt 0 view .LVU674
 2740 0000 2DE9F843 		push	{r3, r4, r5, r6, r7, r8, r9, lr}
 2741              	.LCFI38:
 2742              		.cfi_def_cfa_offset 32
 2743              		.cfi_offset 3, -32
 2744              		.cfi_offset 4, -28
 2745              		.cfi_offset 5, -24
 2746              		.cfi_offset 6, -20
 2747              		.cfi_offset 7, -16
ARM GAS  /tmp/ccnOyTCl.s 			page 64


 2748              		.cfi_offset 8, -12
 2749              		.cfi_offset 9, -8
 2750              		.cfi_offset 14, -4
 2751 0004 8146     		mov	r9, r0
 2752 0006 0D46     		mov	r5, r1
 715:./Hardware/LCD/SEEKFREE_18TFT.c ****     uint32 i,j;
 2753              		.loc 1 715 5 is_stmt 1 view .LVU675
 716:./Hardware/LCD/SEEKFREE_18TFT.c ****                 
 717:./Hardware/LCD/SEEKFREE_18TFT.c ****     uint16 color = 0;
 2754              		.loc 1 717 5 view .LVU676
 2755              	.LVL352:
 718:./Hardware/LCD/SEEKFREE_18TFT.c **** 	uint16 temp = 0;
 2756              		.loc 1 718 2 view .LVU677
 719:./Hardware/LCD/SEEKFREE_18TFT.c **** 	
 720:./Hardware/LCD/SEEKFREE_18TFT.c ****     uint16 coord_x = 0;
 2757              		.loc 1 720 5 view .LVU678
 721:./Hardware/LCD/SEEKFREE_18TFT.c ****     uint16 coord_y = 0;
 2758              		.loc 1 721 5 view .LVU679
 722:./Hardware/LCD/SEEKFREE_18TFT.c **** 
 723:./Hardware/LCD/SEEKFREE_18TFT.c ****     
 724:./Hardware/LCD/SEEKFREE_18TFT.c ****     if(0==TFT_DISPLAY_DIR || 1==TFT_DISPLAY_DIR)//竖屏
 2759              		.loc 1 724 5 view .LVU680
 725:./Hardware/LCD/SEEKFREE_18TFT.c ****     {
 726:./Hardware/LCD/SEEKFREE_18TFT.c ****         coord_x = height>TFT_X_MAX?TFT_X_MAX:height;
 2760              		.loc 1 726 9 view .LVU681
 2761              		.loc 1 726 17 is_stmt 0 view .LVU682
 2762 0008 802A     		cmp	r2, #128
 2763 000a 28BF     		it	cs
 2764 000c 8022     		movcs	r2, #128
 2765              	.LVL353:
 2766              		.loc 1 726 17 view .LVU683
 2767 000e 1746     		mov	r7, r2
 2768              	.LVL354:
 727:./Hardware/LCD/SEEKFREE_18TFT.c ****         coord_y = width>TFT_Y_MAX?TFT_Y_MAX:width;
 2769              		.loc 1 727 9 is_stmt 1 view .LVU684
 2770              		.loc 1 727 17 is_stmt 0 view .LVU685
 2771 0010 8846     		mov	r8, r1
 2772 0012 A029     		cmp	r1, #160
 2773 0014 28BF     		it	cs
 2774 0016 4FF0A008 		movcs	r8, #160
 2775              	.LVL355:
 728:./Hardware/LCD/SEEKFREE_18TFT.c **** 
 729:./Hardware/LCD/SEEKFREE_18TFT.c ****         for(j=0;j<coord_y;j++)
 2776              		.loc 1 729 9 is_stmt 1 view .LVU686
 2777              		.loc 1 729 14 is_stmt 0 view .LVU687
 2778 001a 0026     		movs	r6, #0
 2779              		.loc 1 729 9 view .LVU688
 2780 001c 16E0     		b	.L162
 2781              	.LVL356:
 2782              	.L164:
 730:./Hardware/LCD/SEEKFREE_18TFT.c ****         {
 731:./Hardware/LCD/SEEKFREE_18TFT.c ****             lcd_set_region(0,j,coord_x-1,j);
 732:./Hardware/LCD/SEEKFREE_18TFT.c ****             for(i=0;i<coord_x;i++)
 733:./Hardware/LCD/SEEKFREE_18TFT.c ****             {
 734:./Hardware/LCD/SEEKFREE_18TFT.c ****                 temp = *(p+i*width+j*width/coord_y);//读取像素点
 2783              		.loc 1 734 17 is_stmt 1 discriminator 3 view .LVU689
 2784              		.loc 1 734 37 is_stmt 0 discriminator 3 view .LVU690
ARM GAS  /tmp/ccnOyTCl.s 			page 65


 2785 001e 06FB05F3 		mul	r3, r6, r5
 2786              		.loc 1 734 43 discriminator 3 view .LVU691
 2787 0022 B3FBF8F3 		udiv	r3, r3, r8
 2788              		.loc 1 734 35 discriminator 3 view .LVU692
 2789 0026 04FB0533 		mla	r3, r4, r5, r3
 2790              		.loc 1 734 24 discriminator 3 view .LVU693
 2791 002a 19F80300 		ldrb	r0, [r9, r3]	@ zero_extendqisi2
 2792              	.LVL357:
 735:./Hardware/LCD/SEEKFREE_18TFT.c ****                 color=(0x001f&((temp)>>3))<<11;
 2793              		.loc 1 735 17 is_stmt 1 discriminator 3 view .LVU694
 2794              		.loc 1 735 30 is_stmt 0 discriminator 3 view .LVU695
 2795 002e C208     		lsrs	r2, r0, #3
 2796              	.LVL358:
 736:./Hardware/LCD/SEEKFREE_18TFT.c ****                 color=color|(((0x003f)&((temp)>>2))<<5);
 2797              		.loc 1 736 17 is_stmt 1 discriminator 3 view .LVU696
 2798              		.loc 1 736 39 is_stmt 0 discriminator 3 view .LVU697
 2799 0030 8308     		lsrs	r3, r0, #2
 2800              		.loc 1 736 52 discriminator 3 view .LVU698
 2801 0032 5B01     		lsls	r3, r3, #5
 2802              		.loc 1 736 28 discriminator 3 view .LVU699
 2803 0034 43EAC223 		orr	r3, r3, r2, lsl #11
 2804 0038 1BB2     		sxth	r3, r3
 2805              		.loc 1 736 22 discriminator 3 view .LVU700
 2806 003a 9BB2     		uxth	r3, r3
 2807              	.LVL359:
 737:./Hardware/LCD/SEEKFREE_18TFT.c ****                 color=color|(0x001f&((temp)>>3));
 2808              		.loc 1 737 17 is_stmt 1 discriminator 3 view .LVU701
 738:./Hardware/LCD/SEEKFREE_18TFT.c ****                 lcd_writedata_16bit(color); 
 2809              		.loc 1 738 17 discriminator 3 view .LVU702
 2810 003c 43EAD000 		orr	r0, r3, r0, lsr #3
 2811              	.LVL360:
 2812              		.loc 1 738 17 is_stmt 0 discriminator 3 view .LVU703
 2813 0040 FFF7FEFF 		bl	lcd_writedata_16bit
 2814              	.LVL361:
 732:./Hardware/LCD/SEEKFREE_18TFT.c ****             {
 2815              		.loc 1 732 31 is_stmt 1 discriminator 3 view .LVU704
 732:./Hardware/LCD/SEEKFREE_18TFT.c ****             {
 2816              		.loc 1 732 32 is_stmt 0 discriminator 3 view .LVU705
 2817 0044 0134     		adds	r4, r4, #1
 2818              	.LVL362:
 2819              	.L163:
 732:./Hardware/LCD/SEEKFREE_18TFT.c ****             {
 2820              		.loc 1 732 21 is_stmt 1 discriminator 1 view .LVU706
 732:./Hardware/LCD/SEEKFREE_18TFT.c ****             {
 2821              		.loc 1 732 13 is_stmt 0 discriminator 1 view .LVU707
 2822 0046 A742     		cmp	r7, r4
 2823 0048 E9D8     		bhi	.L164
 729:./Hardware/LCD/SEEKFREE_18TFT.c ****         {
 2824              		.loc 1 729 27 is_stmt 1 discriminator 2 view .LVU708
 729:./Hardware/LCD/SEEKFREE_18TFT.c ****         {
 2825              		.loc 1 729 28 is_stmt 0 discriminator 2 view .LVU709
 2826 004a 0136     		adds	r6, r6, #1
 2827              	.LVL363:
 2828              	.L162:
 729:./Hardware/LCD/SEEKFREE_18TFT.c ****         {
 2829              		.loc 1 729 17 is_stmt 1 discriminator 1 view .LVU710
 729:./Hardware/LCD/SEEKFREE_18TFT.c ****         {
ARM GAS  /tmp/ccnOyTCl.s 			page 66


 2830              		.loc 1 729 9 is_stmt 0 discriminator 1 view .LVU711
 2831 004c B045     		cmp	r8, r6
 2832 004e 07D9     		bls	.L167
 731:./Hardware/LCD/SEEKFREE_18TFT.c ****             for(i=0;i<coord_x;i++)
 2833              		.loc 1 731 13 is_stmt 1 view .LVU712
 2834 0050 3346     		mov	r3, r6
 2835 0052 7A1E     		subs	r2, r7, #1
 2836 0054 3146     		mov	r1, r6
 2837 0056 0020     		movs	r0, #0
 2838 0058 FFF7FEFF 		bl	lcd_set_region
 2839              	.LVL364:
 732:./Hardware/LCD/SEEKFREE_18TFT.c ****             {
 2840              		.loc 1 732 13 view .LVU713
 732:./Hardware/LCD/SEEKFREE_18TFT.c ****             {
 2841              		.loc 1 732 18 is_stmt 0 view .LVU714
 2842 005c 0024     		movs	r4, #0
 732:./Hardware/LCD/SEEKFREE_18TFT.c ****             {
 2843              		.loc 1 732 13 view .LVU715
 2844 005e F2E7     		b	.L163
 2845              	.LVL365:
 2846              	.L167:
 739:./Hardware/LCD/SEEKFREE_18TFT.c ****             }
 740:./Hardware/LCD/SEEKFREE_18TFT.c ****         }
 741:./Hardware/LCD/SEEKFREE_18TFT.c ****         
 742:./Hardware/LCD/SEEKFREE_18TFT.c ****     }
 743:./Hardware/LCD/SEEKFREE_18TFT.c ****     else//横屏
 744:./Hardware/LCD/SEEKFREE_18TFT.c ****     {
 745:./Hardware/LCD/SEEKFREE_18TFT.c ****         coord_x = width>TFT_X_MAX?TFT_X_MAX:width;
 746:./Hardware/LCD/SEEKFREE_18TFT.c ****         coord_y = height>TFT_Y_MAX?TFT_Y_MAX:height;
 747:./Hardware/LCD/SEEKFREE_18TFT.c ****         lcd_set_region(0,0,coord_x-1,coord_y-1);
 748:./Hardware/LCD/SEEKFREE_18TFT.c **** 
 749:./Hardware/LCD/SEEKFREE_18TFT.c ****         for(j=0;j<coord_y;j++)
 750:./Hardware/LCD/SEEKFREE_18TFT.c ****         {
 751:./Hardware/LCD/SEEKFREE_18TFT.c ****             for(i=0;i<coord_x;i++)
 752:./Hardware/LCD/SEEKFREE_18TFT.c ****             {
 753:./Hardware/LCD/SEEKFREE_18TFT.c ****                 temp = *(p+j*width+i*width/coord_x);//读取像素点
 754:./Hardware/LCD/SEEKFREE_18TFT.c ****                 color=(0x001f&((temp)>>3))<<11;
 755:./Hardware/LCD/SEEKFREE_18TFT.c ****                 color=color|(((0x003f)&((temp)>>2))<<5);
 756:./Hardware/LCD/SEEKFREE_18TFT.c ****                 color=color|(0x001f&((temp)>>3));
 757:./Hardware/LCD/SEEKFREE_18TFT.c ****                 lcd_writedata_16bit(color); 
 758:./Hardware/LCD/SEEKFREE_18TFT.c ****             }
 759:./Hardware/LCD/SEEKFREE_18TFT.c ****         }
 760:./Hardware/LCD/SEEKFREE_18TFT.c ****     }
 761:./Hardware/LCD/SEEKFREE_18TFT.c **** }
 2847              		.loc 1 761 1 view .LVU716
 2848 0060 BDE8F883 		pop	{r3, r4, r5, r6, r7, r8, r9, pc}
 2849              		.loc 1 761 1 view .LVU717
 2850              		.cfi_endproc
 2851              	.LFE756:
 2853              		.section	.text.lcd_displayimage032_zoom,"ax",%progbits
 2854              		.align	1
 2855              		.global	lcd_displayimage032_zoom
 2856              		.syntax unified
 2857              		.thumb
 2858              		.thumb_func
 2859              		.fpu fpv4-sp-d16
 2861              	lcd_displayimage032_zoom:
ARM GAS  /tmp/ccnOyTCl.s 			page 67


 2862              	.LVL366:
 2863              	.LFB757:
 762:./Hardware/LCD/SEEKFREE_18TFT.c **** 
 763:./Hardware/LCD/SEEKFREE_18TFT.c **** //-------------------------------------------------------------------------------------------------
 764:./Hardware/LCD/SEEKFREE_18TFT.c **** //  @brief      总钻风(灰度摄像头)液晶缩放显示函数
 765:./Hardware/LCD/SEEKFREE_18TFT.c **** //  @param      *p     			图像数组地址
 766:./Hardware/LCD/SEEKFREE_18TFT.c **** //  @param      width     	    图像宽度
 767:./Hardware/LCD/SEEKFREE_18TFT.c **** //  @param      height     	    图像高度
 768:./Hardware/LCD/SEEKFREE_18TFT.c **** //  @param      dis_width       图像显示宽度  0 -（TFT_X_MAX-1）
 769:./Hardware/LCD/SEEKFREE_18TFT.c **** //  @param      dis_height      图像显示高度  0 -（TFT_Y_MAX-1）
 770:./Hardware/LCD/SEEKFREE_18TFT.c **** //  @return     void
 771:./Hardware/LCD/SEEKFREE_18TFT.c **** //  @since      v1.0
 772:./Hardware/LCD/SEEKFREE_18TFT.c **** //  Sample usage:              
 773:./Hardware/LCD/SEEKFREE_18TFT.c **** //  @note       图像的宽度如果超过液晶的宽度，则自动进行缩放显示。这样
 774:./Hardware/LCD/SEEKFREE_18TFT.c **** //-------------------------------------------------------------------------------------------------
 775:./Hardware/LCD/SEEKFREE_18TFT.c **** void lcd_displayimage032_zoom(uint8 *p, uint16 width, uint16 height, uint16 dis_width, uint16 dis_h
 776:./Hardware/LCD/SEEKFREE_18TFT.c **** {
 2864              		.loc 1 776 1 is_stmt 1 view -0
 2865              		.cfi_startproc
 2866              		@ args = 4, pretend = 0, frame = 0
 2867              		@ frame_needed = 0, uses_anonymous_args = 0
 2868              		.loc 1 776 1 is_stmt 0 view .LVU719
 2869 0000 2DE9F047 		push	{r4, r5, r6, r7, r8, r9, r10, lr}
 2870              	.LCFI39:
 2871              		.cfi_def_cfa_offset 32
 2872              		.cfi_offset 4, -32
 2873              		.cfi_offset 5, -28
 2874              		.cfi_offset 6, -24
 2875              		.cfi_offset 7, -20
 2876              		.cfi_offset 8, -16
 2877              		.cfi_offset 9, -12
 2878              		.cfi_offset 10, -8
 2879              		.cfi_offset 14, -4
 2880 0004 8246     		mov	r10, r0
 2881 0006 0E46     		mov	r6, r1
 2882 0008 9146     		mov	r9, r2
 2883 000a 1D46     		mov	r5, r3
 2884 000c BDF82080 		ldrh	r8, [sp, #32]
 777:./Hardware/LCD/SEEKFREE_18TFT.c ****     uint32 i,j;
 2885              		.loc 1 777 5 is_stmt 1 view .LVU720
 778:./Hardware/LCD/SEEKFREE_18TFT.c ****                 
 779:./Hardware/LCD/SEEKFREE_18TFT.c ****     uint16 color = 0;
 2886              		.loc 1 779 5 view .LVU721
 2887              	.LVL367:
 780:./Hardware/LCD/SEEKFREE_18TFT.c **** 	uint16 temp = 0;
 2888              		.loc 1 780 2 view .LVU722
 781:./Hardware/LCD/SEEKFREE_18TFT.c **** 
 782:./Hardware/LCD/SEEKFREE_18TFT.c ****     lcd_set_region(0,0,dis_width-1,dis_height-1);//设置显示区域 
 2889              		.loc 1 782 5 view .LVU723
 2890 0010 08F1FF33 		add	r3, r8, #-1
 2891              	.LVL368:
 2892              		.loc 1 782 5 is_stmt 0 view .LVU724
 2893 0014 6A1E     		subs	r2, r5, #1
 2894              	.LVL369:
 2895              		.loc 1 782 5 view .LVU725
 2896 0016 0021     		movs	r1, #0
 2897              	.LVL370:
ARM GAS  /tmp/ccnOyTCl.s 			page 68


 2898              		.loc 1 782 5 view .LVU726
 2899 0018 0846     		mov	r0, r1
 2900              	.LVL371:
 2901              		.loc 1 782 5 view .LVU727
 2902 001a FFF7FEFF 		bl	lcd_set_region
 2903              	.LVL372:
 783:./Hardware/LCD/SEEKFREE_18TFT.c ****     
 784:./Hardware/LCD/SEEKFREE_18TFT.c ****     for(j=0;j<dis_height;j++)
 2904              		.loc 1 784 5 is_stmt 1 view .LVU728
 2905              		.loc 1 784 10 is_stmt 0 view .LVU729
 2906 001e 0027     		movs	r7, #0
 2907              		.loc 1 784 5 view .LVU730
 2908 0020 1EE0     		b	.L169
 2909              	.LVL373:
 2910              	.L170:
 785:./Hardware/LCD/SEEKFREE_18TFT.c ****     {
 786:./Hardware/LCD/SEEKFREE_18TFT.c ****         for(i=0;i<dis_width;i++)
 787:./Hardware/LCD/SEEKFREE_18TFT.c ****         {
 788:./Hardware/LCD/SEEKFREE_18TFT.c ****             temp = *(p+(j*height/dis_height)*width+i*width/dis_width);//读取像素点
 2911              		.loc 1 788 13 is_stmt 1 discriminator 3 view .LVU731
 2912              		.loc 1 788 26 is_stmt 0 discriminator 3 view .LVU732
 2913 0022 07FB09F3 		mul	r3, r7, r9
 2914              		.loc 1 788 33 discriminator 3 view .LVU733
 2915 0026 B3FBF8F2 		udiv	r2, r3, r8
 2916              		.loc 1 788 53 discriminator 3 view .LVU734
 2917 002a 04FB06F3 		mul	r3, r4, r6
 2918              		.loc 1 788 59 discriminator 3 view .LVU735
 2919 002e B3FBF5F3 		udiv	r3, r3, r5
 2920              		.loc 1 788 51 discriminator 3 view .LVU736
 2921 0032 06FB0233 		mla	r3, r6, r2, r3
 2922              		.loc 1 788 20 discriminator 3 view .LVU737
 2923 0036 1AF80300 		ldrb	r0, [r10, r3]	@ zero_extendqisi2
 2924              	.LVL374:
 789:./Hardware/LCD/SEEKFREE_18TFT.c ****             color=(0x001f&((temp)>>3))<<11;
 2925              		.loc 1 789 13 is_stmt 1 discriminator 3 view .LVU738
 2926              		.loc 1 789 26 is_stmt 0 discriminator 3 view .LVU739
 2927 003a C308     		lsrs	r3, r0, #3
 2928              	.LVL375:
 790:./Hardware/LCD/SEEKFREE_18TFT.c ****             color=color|(((0x003f)&((temp)>>2))<<5);
 2929              		.loc 1 790 13 is_stmt 1 discriminator 3 view .LVU740
 2930              		.loc 1 790 35 is_stmt 0 discriminator 3 view .LVU741
 2931 003c 4FEA900C 		lsr	ip, r0, #2
 2932              		.loc 1 790 48 discriminator 3 view .LVU742
 2933 0040 4FEA4C1C 		lsl	ip, ip, #5
 2934              		.loc 1 790 24 discriminator 3 view .LVU743
 2935 0044 4CEAC32C 		orr	ip, ip, r3, lsl #11
 2936 0048 0FFA8CFC 		sxth	ip, ip
 2937              		.loc 1 790 18 discriminator 3 view .LVU744
 2938 004c 1FFA8CFC 		uxth	ip, ip
 2939              	.LVL376:
 791:./Hardware/LCD/SEEKFREE_18TFT.c ****             color=color|(0x001f&((temp)>>3));
 2940              		.loc 1 791 13 is_stmt 1 discriminator 3 view .LVU745
 792:./Hardware/LCD/SEEKFREE_18TFT.c ****             lcd_writedata_16bit(color); 
 2941              		.loc 1 792 13 discriminator 3 view .LVU746
 2942 0050 4CEAD000 		orr	r0, ip, r0, lsr #3
 2943              	.LVL377:
 2944              		.loc 1 792 13 is_stmt 0 discriminator 3 view .LVU747
ARM GAS  /tmp/ccnOyTCl.s 			page 69


 2945 0054 FFF7FEFF 		bl	lcd_writedata_16bit
 2946              	.LVL378:
 786:./Hardware/LCD/SEEKFREE_18TFT.c ****         {
 2947              		.loc 1 786 29 is_stmt 1 discriminator 3 view .LVU748
 786:./Hardware/LCD/SEEKFREE_18TFT.c ****         {
 2948              		.loc 1 786 30 is_stmt 0 discriminator 3 view .LVU749
 2949 0058 0134     		adds	r4, r4, #1
 2950              	.LVL379:
 2951              	.L171:
 786:./Hardware/LCD/SEEKFREE_18TFT.c ****         {
 2952              		.loc 1 786 17 is_stmt 1 discriminator 1 view .LVU750
 786:./Hardware/LCD/SEEKFREE_18TFT.c ****         {
 2953              		.loc 1 786 9 is_stmt 0 discriminator 1 view .LVU751
 2954 005a A542     		cmp	r5, r4
 2955 005c E1D8     		bhi	.L170
 784:./Hardware/LCD/SEEKFREE_18TFT.c ****     {
 2956              		.loc 1 784 26 is_stmt 1 discriminator 2 view .LVU752
 784:./Hardware/LCD/SEEKFREE_18TFT.c ****     {
 2957              		.loc 1 784 27 is_stmt 0 discriminator 2 view .LVU753
 2958 005e 0137     		adds	r7, r7, #1
 2959              	.LVL380:
 2960              	.L169:
 784:./Hardware/LCD/SEEKFREE_18TFT.c ****     {
 2961              		.loc 1 784 13 is_stmt 1 discriminator 1 view .LVU754
 784:./Hardware/LCD/SEEKFREE_18TFT.c ****     {
 2962              		.loc 1 784 5 is_stmt 0 discriminator 1 view .LVU755
 2963 0060 B845     		cmp	r8, r7
 2964 0062 01D9     		bls	.L174
 786:./Hardware/LCD/SEEKFREE_18TFT.c ****         {
 2965              		.loc 1 786 14 view .LVU756
 2966 0064 0024     		movs	r4, #0
 2967 0066 F8E7     		b	.L171
 2968              	.L174:
 793:./Hardware/LCD/SEEKFREE_18TFT.c ****         }
 794:./Hardware/LCD/SEEKFREE_18TFT.c ****     }
 795:./Hardware/LCD/SEEKFREE_18TFT.c **** }
 2969              		.loc 1 795 1 view .LVU757
 2970 0068 BDE8F087 		pop	{r4, r5, r6, r7, r8, r9, r10, pc}
 2971              		.loc 1 795 1 view .LVU758
 2972              		.cfi_endproc
 2973              	.LFE757:
 2975              		.section	.text.lcd_displayimage7725,"ax",%progbits
 2976              		.align	1
 2977              		.global	lcd_displayimage7725
 2978              		.syntax unified
 2979              		.thumb
 2980              		.thumb_func
 2981              		.fpu fpv4-sp-d16
 2983              	lcd_displayimage7725:
 2984              	.LVL381:
 2985              	.LFB758:
 796:./Hardware/LCD/SEEKFREE_18TFT.c **** 
 797:./Hardware/LCD/SEEKFREE_18TFT.c **** //-------------------------------------------------------------------------------------------------
 798:./Hardware/LCD/SEEKFREE_18TFT.c **** //  @brief      小钻风(二值化摄像头)液晶显示函数
 799:./Hardware/LCD/SEEKFREE_18TFT.c **** //  @param      *p     			图像数组地址
 800:./Hardware/LCD/SEEKFREE_18TFT.c **** //  @param      width     	    图像宽度
 801:./Hardware/LCD/SEEKFREE_18TFT.c **** //  @param      height     	    图像高度
ARM GAS  /tmp/ccnOyTCl.s 			page 70


 802:./Hardware/LCD/SEEKFREE_18TFT.c **** //  @return     void
 803:./Hardware/LCD/SEEKFREE_18TFT.c **** //  @since      v1.0
 804:./Hardware/LCD/SEEKFREE_18TFT.c **** //  @note      	图像分辨率需要设置在120(高)*160(宽)以下       
 805:./Hardware/LCD/SEEKFREE_18TFT.c **** //-------------------------------------------------------------------------------------------------
 806:./Hardware/LCD/SEEKFREE_18TFT.c **** void lcd_displayimage7725(uint8 *p, uint16 width, uint16 height) 
 807:./Hardware/LCD/SEEKFREE_18TFT.c **** {
 2986              		.loc 1 807 1 is_stmt 1 view -0
 2987              		.cfi_startproc
 2988              		@ args = 0, pretend = 0, frame = 0
 2989              		@ frame_needed = 0, uses_anonymous_args = 0
 2990              		.loc 1 807 1 is_stmt 0 view .LVU760
 2991 0000 2DE9F843 		push	{r3, r4, r5, r6, r7, r8, r9, lr}
 2992              	.LCFI40:
 2993              		.cfi_def_cfa_offset 32
 2994              		.cfi_offset 3, -32
 2995              		.cfi_offset 4, -28
 2996              		.cfi_offset 5, -24
 2997              		.cfi_offset 6, -20
 2998              		.cfi_offset 7, -16
 2999              		.cfi_offset 8, -12
 3000              		.cfi_offset 9, -8
 3001              		.cfi_offset 14, -4
 3002 0004 0746     		mov	r7, r0
 3003 0006 8846     		mov	r8, r1
 3004 0008 9146     		mov	r9, r2
 808:./Hardware/LCD/SEEKFREE_18TFT.c ****     int i,j; 
 3005              		.loc 1 808 5 is_stmt 1 view .LVU761
 809:./Hardware/LCD/SEEKFREE_18TFT.c **** 	
 810:./Hardware/LCD/SEEKFREE_18TFT.c ****     uint16 temp = 0;
 3006              		.loc 1 810 5 view .LVU762
 3007              	.LVL382:
 811:./Hardware/LCD/SEEKFREE_18TFT.c ****     lcd_set_region(0,0,width-1,height-1);
 3008              		.loc 1 811 5 view .LVU763
 3009 000a 531E     		subs	r3, r2, #1
 3010 000c 4A1E     		subs	r2, r1, #1
 3011              	.LVL383:
 3012              		.loc 1 811 5 is_stmt 0 view .LVU764
 3013 000e 0021     		movs	r1, #0
 3014              	.LVL384:
 3015              		.loc 1 811 5 view .LVU765
 3016 0010 0846     		mov	r0, r1
 3017              	.LVL385:
 3018              		.loc 1 811 5 view .LVU766
 3019 0012 FFF7FEFF 		bl	lcd_set_region
 3020              	.LVL386:
 812:./Hardware/LCD/SEEKFREE_18TFT.c **** 	for(i=0;i<height * (width/8);i++)
 3021              		.loc 1 812 2 is_stmt 1 view .LVU767
 3022              		.loc 1 812 7 is_stmt 0 view .LVU768
 3023 0016 0026     		movs	r6, #0
 3024              		.loc 1 812 2 view .LVU769
 3025 0018 10E0     		b	.L176
 3026              	.LVL387:
 3027              	.L178:
 813:./Hardware/LCD/SEEKFREE_18TFT.c ****     {
 814:./Hardware/LCD/SEEKFREE_18TFT.c ****         temp = *p;
 815:./Hardware/LCD/SEEKFREE_18TFT.c ****         p++;
 816:./Hardware/LCD/SEEKFREE_18TFT.c ****         for(j=0; j<8; j++)
ARM GAS  /tmp/ccnOyTCl.s 			page 71


 817:./Hardware/LCD/SEEKFREE_18TFT.c ****         {
 818:./Hardware/LCD/SEEKFREE_18TFT.c ****             if( (temp<<j)&0x80 )	lcd_writedata_16bit(WHITE);
 819:./Hardware/LCD/SEEKFREE_18TFT.c ****             else					lcd_writedata_16bit(BLACK);
 3028              		.loc 1 819 22 is_stmt 1 view .LVU770
 3029 001a 0020     		movs	r0, #0
 3030 001c FFF7FEFF 		bl	lcd_writedata_16bit
 3031              	.LVL388:
 3032              	.L179:
 816:./Hardware/LCD/SEEKFREE_18TFT.c ****         {
 3033              		.loc 1 816 23 discriminator 2 view .LVU771
 816:./Hardware/LCD/SEEKFREE_18TFT.c ****         {
 3034              		.loc 1 816 24 is_stmt 0 discriminator 2 view .LVU772
 3035 0020 0134     		adds	r4, r4, #1
 3036              	.LVL389:
 3037              	.L177:
 816:./Hardware/LCD/SEEKFREE_18TFT.c ****         {
 3038              		.loc 1 816 18 is_stmt 1 discriminator 1 view .LVU773
 816:./Hardware/LCD/SEEKFREE_18TFT.c ****         {
 3039              		.loc 1 816 9 is_stmt 0 discriminator 1 view .LVU774
 3040 0022 072C     		cmp	r4, #7
 3041 0024 09DC     		bgt	.L183
 818:./Hardware/LCD/SEEKFREE_18TFT.c ****             else					lcd_writedata_16bit(BLACK);
 3042              		.loc 1 818 13 is_stmt 1 view .LVU775
 818:./Hardware/LCD/SEEKFREE_18TFT.c ****             else					lcd_writedata_16bit(BLACK);
 3043              		.loc 1 818 22 is_stmt 0 view .LVU776
 3044 0026 05FA04F3 		lsl	r3, r5, r4
 818:./Hardware/LCD/SEEKFREE_18TFT.c ****             else					lcd_writedata_16bit(BLACK);
 3045              		.loc 1 818 15 view .LVU777
 3046 002a 13F0800F 		tst	r3, #128
 3047 002e F4D0     		beq	.L178
 818:./Hardware/LCD/SEEKFREE_18TFT.c ****             else					lcd_writedata_16bit(BLACK);
 3048              		.loc 1 818 34 is_stmt 1 discriminator 1 view .LVU778
 3049 0030 4FF6FF70 		movw	r0, #65535
 3050 0034 FFF7FEFF 		bl	lcd_writedata_16bit
 3051              	.LVL390:
 3052 0038 F2E7     		b	.L179
 3053              	.L183:
 812:./Hardware/LCD/SEEKFREE_18TFT.c ****     {
 3054              		.loc 1 812 31 discriminator 2 view .LVU779
 812:./Hardware/LCD/SEEKFREE_18TFT.c ****     {
 3055              		.loc 1 812 32 is_stmt 0 discriminator 2 view .LVU780
 3056 003a 0136     		adds	r6, r6, #1
 3057              	.LVL391:
 3058              	.L176:
 812:./Hardware/LCD/SEEKFREE_18TFT.c ****     {
 3059              		.loc 1 812 10 is_stmt 1 discriminator 1 view .LVU781
 812:./Hardware/LCD/SEEKFREE_18TFT.c ****     {
 3060              		.loc 1 812 27 is_stmt 0 discriminator 1 view .LVU782
 3061 003c 4FEAD803 		lsr	r3, r8, #3
 812:./Hardware/LCD/SEEKFREE_18TFT.c ****     {
 3062              		.loc 1 812 19 discriminator 1 view .LVU783
 3063 0040 03FB09F3 		mul	r3, r3, r9
 812:./Hardware/LCD/SEEKFREE_18TFT.c ****     {
 3064              		.loc 1 812 2 discriminator 1 view .LVU784
 3065 0044 B342     		cmp	r3, r6
 3066 0046 03DD     		ble	.L184
 814:./Hardware/LCD/SEEKFREE_18TFT.c ****         p++;
ARM GAS  /tmp/ccnOyTCl.s 			page 72


 3067              		.loc 1 814 9 is_stmt 1 view .LVU785
 814:./Hardware/LCD/SEEKFREE_18TFT.c ****         p++;
 3068              		.loc 1 814 16 is_stmt 0 view .LVU786
 3069 0048 17F8015B 		ldrb	r5, [r7], #1	@ zero_extendqisi2
 3070              	.LVL392:
 815:./Hardware/LCD/SEEKFREE_18TFT.c ****         for(j=0; j<8; j++)
 3071              		.loc 1 815 9 is_stmt 1 view .LVU787
 816:./Hardware/LCD/SEEKFREE_18TFT.c ****         {
 3072              		.loc 1 816 9 view .LVU788
 816:./Hardware/LCD/SEEKFREE_18TFT.c ****         {
 3073              		.loc 1 816 14 is_stmt 0 view .LVU789
 3074 004c 0024     		movs	r4, #0
 816:./Hardware/LCD/SEEKFREE_18TFT.c ****         {
 3075              		.loc 1 816 9 view .LVU790
 3076 004e E8E7     		b	.L177
 3077              	.LVL393:
 3078              	.L184:
 820:./Hardware/LCD/SEEKFREE_18TFT.c ****         }
 821:./Hardware/LCD/SEEKFREE_18TFT.c ****     }
 822:./Hardware/LCD/SEEKFREE_18TFT.c **** }
 3079              		.loc 1 822 1 view .LVU791
 3080 0050 BDE8F883 		pop	{r3, r4, r5, r6, r7, r8, r9, pc}
 3081              		.loc 1 822 1 view .LVU792
 3082              		.cfi_endproc
 3083              	.LFE758:
 3085              		.section	.text.lcd_display_chinese,"ax",%progbits
 3086              		.align	1
 3087              		.global	lcd_display_chinese
 3088              		.syntax unified
 3089              		.thumb
 3090              		.thumb_func
 3091              		.fpu fpv4-sp-d16
 3093              	lcd_display_chinese:
 3094              	.LVL394:
 3095              	.LFB759:
 823:./Hardware/LCD/SEEKFREE_18TFT.c **** 
 824:./Hardware/LCD/SEEKFREE_18TFT.c **** //-------------------------------------------------------------------------------------------------
 825:./Hardware/LCD/SEEKFREE_18TFT.c **** //  @brief      汉字显示
 826:./Hardware/LCD/SEEKFREE_18TFT.c **** //  @param      x       横坐标 0-（TFT_X_MAX-1）
 827:./Hardware/LCD/SEEKFREE_18TFT.c **** //  @param      y       纵坐标 0-（TFT_Y_MAX-1）
 828:./Hardware/LCD/SEEKFREE_18TFT.c **** //  @param      size    取模的时候设置的汉字字体大小，也就是一个汉字占用的
 829:./Hardware/LCD/SEEKFREE_18TFT.c **** //  @param      *p      需要显示的汉字数组
 830:./Hardware/LCD/SEEKFREE_18TFT.c **** //  @param      number  需要显示多少位
 831:./Hardware/LCD/SEEKFREE_18TFT.c **** //  @param      color   显示颜色
 832:./Hardware/LCD/SEEKFREE_18TFT.c **** //  @return     void
 833:./Hardware/LCD/SEEKFREE_18TFT.c **** //  @since      v1.0
 834:./Hardware/LCD/SEEKFREE_18TFT.c **** //  Sample usage:		lcd_display_chinese(0,0,16,chinese_test[0],4,RED);//显示font文件里面的 
 835:./Hardware/LCD/SEEKFREE_18TFT.c **** //  @Note       使用PCtoLCD2002软件取模		    阴码、逐行式、顺向   16*16
 836:./Hardware/LCD/SEEKFREE_18TFT.c **** //-------------------------------------------------------------------------------------------------
 837:./Hardware/LCD/SEEKFREE_18TFT.c **** void lcd_display_chinese(uint16 x, uint16 y, uint8 size, const uint8 *p, uint8 number, uint16 color
 838:./Hardware/LCD/SEEKFREE_18TFT.c **** {
 3096              		.loc 1 838 1 is_stmt 1 view -0
 3097              		.cfi_startproc
 3098              		@ args = 8, pretend = 0, frame = 8
 3099              		@ frame_needed = 0, uses_anonymous_args = 0
 3100              		.loc 1 838 1 is_stmt 0 view .LVU794
 3101 0000 2DE9F04F 		push	{r4, r5, r6, r7, r8, r9, r10, fp, lr}
ARM GAS  /tmp/ccnOyTCl.s 			page 73


 3102              	.LCFI41:
 3103              		.cfi_def_cfa_offset 36
 3104              		.cfi_offset 4, -36
 3105              		.cfi_offset 5, -32
 3106              		.cfi_offset 6, -28
 3107              		.cfi_offset 7, -24
 3108              		.cfi_offset 8, -20
 3109              		.cfi_offset 9, -16
 3110              		.cfi_offset 10, -12
 3111              		.cfi_offset 11, -8
 3112              		.cfi_offset 14, -4
 3113 0004 83B0     		sub	sp, sp, #12
 3114              	.LCFI42:
 3115              		.cfi_def_cfa_offset 48
 3116 0006 9246     		mov	r10, r2
 3117 0008 0093     		str	r3, [sp]
 3118 000a 9DF83030 		ldrb	r3, [sp, #48]	@ zero_extendqisi2
 3119              	.LVL395:
 3120              		.loc 1 838 1 view .LVU795
 3121 000e 0193     		str	r3, [sp, #4]
 3122 0010 BDF83460 		ldrh	r6, [sp, #52]
 839:./Hardware/LCD/SEEKFREE_18TFT.c ****     int i, j, k; 
 3123              		.loc 1 839 5 is_stmt 1 view .LVU796
 840:./Hardware/LCD/SEEKFREE_18TFT.c ****     uint8 temp, temp1, temp2;
 3124              		.loc 1 840 5 view .LVU797
 841:./Hardware/LCD/SEEKFREE_18TFT.c ****     const uint8 *p_data;
 3125              		.loc 1 841 5 view .LVU798
 842:./Hardware/LCD/SEEKFREE_18TFT.c ****     
 843:./Hardware/LCD/SEEKFREE_18TFT.c ****     temp2 = size/8;
 3126              		.loc 1 843 5 view .LVU799
 3127              		.loc 1 843 11 is_stmt 0 view .LVU800
 3128 0014 4FEAD208 		lsr	r8, r2, #3
 3129              	.LVL396:
 844:./Hardware/LCD/SEEKFREE_18TFT.c ****     
 845:./Hardware/LCD/SEEKFREE_18TFT.c ****     lcd_set_region(x,y,number*size-1+x,y+size-1);
 3130              		.loc 1 845 5 is_stmt 1 view .LVU801
 3131              		.loc 1 845 30 is_stmt 0 view .LVU802
 3132 0018 02FB03F2 		mul	r2, r2, r3
 3133              	.LVL397:
 3134              		.loc 1 845 35 view .LVU803
 3135 001c 013A     		subs	r2, r2, #1
 3136              		.loc 1 845 41 view .LVU804
 3137 001e 01EB0A03 		add	r3, r1, r10
 3138              		.loc 1 845 5 view .LVU805
 3139 0022 013B     		subs	r3, r3, #1
 3140 0024 0244     		add	r2, r2, r0
 3141 0026 FFF7FEFF 		bl	lcd_set_region
 3142              	.LVL398:
 846:./Hardware/LCD/SEEKFREE_18TFT.c ****     
 847:./Hardware/LCD/SEEKFREE_18TFT.c ****     for(i=0;i<size;i++)
 3143              		.loc 1 847 5 is_stmt 1 view .LVU806
 3144              		.loc 1 847 10 is_stmt 0 view .LVU807
 3145 002a 4FF0000B 		mov	fp, #0
 3146              		.loc 1 847 5 view .LVU808
 3147 002e 24E0     		b	.L186
 3148              	.LVL399:
 3149              	.L188:
ARM GAS  /tmp/ccnOyTCl.s 			page 74


 848:./Hardware/LCD/SEEKFREE_18TFT.c ****     {
 849:./Hardware/LCD/SEEKFREE_18TFT.c ****         temp1 = number;
 850:./Hardware/LCD/SEEKFREE_18TFT.c ****         p_data = p+i*temp2;
 851:./Hardware/LCD/SEEKFREE_18TFT.c ****         while(temp1--)
 852:./Hardware/LCD/SEEKFREE_18TFT.c ****         {
 853:./Hardware/LCD/SEEKFREE_18TFT.c ****             for(k=0;k<temp2;k++)
 854:./Hardware/LCD/SEEKFREE_18TFT.c ****             {
 855:./Hardware/LCD/SEEKFREE_18TFT.c ****                 for(j=8;j>0;j--)
 856:./Hardware/LCD/SEEKFREE_18TFT.c ****                 {
 857:./Hardware/LCD/SEEKFREE_18TFT.c ****                     temp = (*p_data>>(j-1)) & 0x01;
 858:./Hardware/LCD/SEEKFREE_18TFT.c ****                     if(temp)    lcd_writedata_16bit(color);
 859:./Hardware/LCD/SEEKFREE_18TFT.c ****                     else        lcd_writedata_16bit(BGCOLOR);
 3150              		.loc 1 859 33 is_stmt 1 view .LVU809
 3151 0030 4FF6FF70 		movw	r0, #65535
 3152 0034 FFF7FEFF 		bl	lcd_writedata_16bit
 3153              	.LVL400:
 3154              	.L191:
 855:./Hardware/LCD/SEEKFREE_18TFT.c ****                 {
 3155              		.loc 1 855 25 discriminator 1 view .LVU810
 855:./Hardware/LCD/SEEKFREE_18TFT.c ****                 {
 3156              		.loc 1 855 17 is_stmt 0 discriminator 1 view .LVU811
 3157 0038 002C     		cmp	r4, #0
 3158 003a 09DD     		ble	.L197
 857:./Hardware/LCD/SEEKFREE_18TFT.c ****                     if(temp)    lcd_writedata_16bit(color);
 3159              		.loc 1 857 21 is_stmt 1 view .LVU812
 857:./Hardware/LCD/SEEKFREE_18TFT.c ****                     if(temp)    lcd_writedata_16bit(color);
 3160              		.loc 1 857 29 is_stmt 0 view .LVU813
 3161 003c 2B78     		ldrb	r3, [r5]	@ zero_extendqisi2
 857:./Hardware/LCD/SEEKFREE_18TFT.c ****                     if(temp)    lcd_writedata_16bit(color);
 3162              		.loc 1 857 40 view .LVU814
 3163 003e 013C     		subs	r4, r4, #1
 3164              	.LVL401:
 857:./Hardware/LCD/SEEKFREE_18TFT.c ****                     if(temp)    lcd_writedata_16bit(color);
 3165              		.loc 1 857 36 view .LVU815
 3166 0040 2341     		asrs	r3, r3, r4
 3167              	.LVL402:
 858:./Hardware/LCD/SEEKFREE_18TFT.c ****                     else        lcd_writedata_16bit(BGCOLOR);
 3168              		.loc 1 858 21 is_stmt 1 view .LVU816
 858:./Hardware/LCD/SEEKFREE_18TFT.c ****                     else        lcd_writedata_16bit(BGCOLOR);
 3169              		.loc 1 858 23 is_stmt 0 view .LVU817
 3170 0042 13F0010F 		tst	r3, #1
 3171 0046 F3D0     		beq	.L188
 858:./Hardware/LCD/SEEKFREE_18TFT.c ****                     else        lcd_writedata_16bit(BGCOLOR);
 3172              		.loc 1 858 33 is_stmt 1 discriminator 1 view .LVU818
 3173 0048 3046     		mov	r0, r6
 3174 004a FFF7FEFF 		bl	lcd_writedata_16bit
 3175              	.LVL403:
 858:./Hardware/LCD/SEEKFREE_18TFT.c ****                     else        lcd_writedata_16bit(BGCOLOR);
 3176              		.loc 1 858 33 is_stmt 0 discriminator 1 view .LVU819
 3177 004e F3E7     		b	.L191
 3178              	.LVL404:
 3179              	.L197:
 860:./Hardware/LCD/SEEKFREE_18TFT.c ****                 }
 861:./Hardware/LCD/SEEKFREE_18TFT.c ****                 p_data++;
 3180              		.loc 1 861 17 is_stmt 1 discriminator 2 view .LVU820
 3181              		.loc 1 861 23 is_stmt 0 discriminator 2 view .LVU821
 3182 0050 0135     		adds	r5, r5, #1
ARM GAS  /tmp/ccnOyTCl.s 			page 75


 3183              	.LVL405:
 853:./Hardware/LCD/SEEKFREE_18TFT.c ****             {
 3184              		.loc 1 853 29 is_stmt 1 discriminator 2 view .LVU822
 853:./Hardware/LCD/SEEKFREE_18TFT.c ****             {
 3185              		.loc 1 853 30 is_stmt 0 discriminator 2 view .LVU823
 3186 0052 0137     		adds	r7, r7, #1
 3187              	.LVL406:
 3188              	.L192:
 853:./Hardware/LCD/SEEKFREE_18TFT.c ****             {
 3189              		.loc 1 853 21 is_stmt 1 discriminator 1 view .LVU824
 853:./Hardware/LCD/SEEKFREE_18TFT.c ****             {
 3190              		.loc 1 853 13 is_stmt 0 discriminator 1 view .LVU825
 3191 0054 B845     		cmp	r8, r7
 3192 0056 01DD     		ble	.L198
 855:./Hardware/LCD/SEEKFREE_18TFT.c ****                 {
 3193              		.loc 1 855 22 view .LVU826
 3194 0058 0824     		movs	r4, #8
 3195 005a EDE7     		b	.L191
 3196              	.L198:
 862:./Hardware/LCD/SEEKFREE_18TFT.c ****             }
 863:./Hardware/LCD/SEEKFREE_18TFT.c ****             p_data = p_data - temp2 + temp2*size;
 3197              		.loc 1 863 13 is_stmt 1 view .LVU827
 3198              		.loc 1 863 44 is_stmt 0 view .LVU828
 3199 005c 08FB0AF3 		mul	r3, r8, r10
 3200              		.loc 1 863 37 view .LVU829
 3201 0060 A3EB0803 		sub	r3, r3, r8
 3202              		.loc 1 863 20 view .LVU830
 3203 0064 1D44     		add	r5, r5, r3
 3204              	.LVL407:
 851:./Hardware/LCD/SEEKFREE_18TFT.c ****         {
 3205              		.loc 1 851 20 view .LVU831
 3206 0066 4B46     		mov	r3, r9
 3207              	.LVL408:
 3208              	.L187:
 851:./Hardware/LCD/SEEKFREE_18TFT.c ****         {
 3209              		.loc 1 851 14 is_stmt 1 view .LVU832
 851:./Hardware/LCD/SEEKFREE_18TFT.c ****         {
 3210              		.loc 1 851 20 is_stmt 0 view .LVU833
 3211 0068 03F1FF39 		add	r9, r3, #-1
 3212 006c 5FFA89F9 		uxtb	r9, r9
 3213              	.LVL409:
 851:./Hardware/LCD/SEEKFREE_18TFT.c ****         {
 3214              		.loc 1 851 14 view .LVU834
 3215 0070 0BB1     		cbz	r3, .L199
 853:./Hardware/LCD/SEEKFREE_18TFT.c ****             {
 3216              		.loc 1 853 18 view .LVU835
 3217 0072 0027     		movs	r7, #0
 3218 0074 EEE7     		b	.L192
 3219              	.L199:
 847:./Hardware/LCD/SEEKFREE_18TFT.c ****     {
 3220              		.loc 1 847 20 is_stmt 1 discriminator 2 view .LVU836
 847:./Hardware/LCD/SEEKFREE_18TFT.c ****     {
 3221              		.loc 1 847 21 is_stmt 0 discriminator 2 view .LVU837
 3222 0076 0BF1010B 		add	fp, fp, #1
 3223              	.LVL410:
 3224              	.L186:
 847:./Hardware/LCD/SEEKFREE_18TFT.c ****     {
ARM GAS  /tmp/ccnOyTCl.s 			page 76


 3225              		.loc 1 847 13 is_stmt 1 discriminator 1 view .LVU838
 847:./Hardware/LCD/SEEKFREE_18TFT.c ****     {
 3226              		.loc 1 847 5 is_stmt 0 discriminator 1 view .LVU839
 3227 007a DA45     		cmp	r10, fp
 3228 007c 04DD     		ble	.L200
 849:./Hardware/LCD/SEEKFREE_18TFT.c ****         p_data = p+i*temp2;
 3229              		.loc 1 849 9 is_stmt 1 view .LVU840
 3230              	.LVL411:
 850:./Hardware/LCD/SEEKFREE_18TFT.c ****         while(temp1--)
 3231              		.loc 1 850 9 view .LVU841
 850:./Hardware/LCD/SEEKFREE_18TFT.c ****         while(temp1--)
 3232              		.loc 1 850 16 is_stmt 0 view .LVU842
 3233 007e 009B     		ldr	r3, [sp]
 3234 0080 0BFB0835 		mla	r5, fp, r8, r3
 3235              	.LVL412:
 851:./Hardware/LCD/SEEKFREE_18TFT.c ****         {
 3236              		.loc 1 851 9 is_stmt 1 view .LVU843
 849:./Hardware/LCD/SEEKFREE_18TFT.c ****         p_data = p+i*temp2;
 3237              		.loc 1 849 15 is_stmt 0 view .LVU844
 3238 0084 019B     		ldr	r3, [sp, #4]
 851:./Hardware/LCD/SEEKFREE_18TFT.c ****         {
 3239              		.loc 1 851 14 view .LVU845
 3240 0086 EFE7     		b	.L187
 3241              	.LVL413:
 3242              	.L200:
 864:./Hardware/LCD/SEEKFREE_18TFT.c ****         }   
 865:./Hardware/LCD/SEEKFREE_18TFT.c ****     }
 866:./Hardware/LCD/SEEKFREE_18TFT.c **** }
 3243              		.loc 1 866 1 view .LVU846
 3244 0088 03B0     		add	sp, sp, #12
 3245              	.LCFI43:
 3246              		.cfi_def_cfa_offset 36
 3247              	.LVL414:
 3248              		.loc 1 866 1 view .LVU847
 3249              		@ sp needed
 3250 008a BDE8F08F 		pop	{r4, r5, r6, r7, r8, r9, r10, fp, pc}
 3251              		.loc 1 866 1 view .LVU848
 3252              		.cfi_endproc
 3253              	.LFE759:
 3255              		.text
 3256              	.Letext0:
 3257              		.file 2 "/home/hao/Documents/gcc-arm-none-eabi/arm-none-eabi/include/machine/_default_types.h"
 3258              		.file 3 "/home/hao/Documents/gcc-arm-none-eabi/arm-none-eabi/include/sys/_stdint.h"
 3259              		.file 4 "Drivers/CMSIS/Device/ST/STM32F4xx/Include/stm32f429xx.h"
 3260              		.file 5 "Drivers/STM32F4xx_HAL_Driver/Inc/stm32f4xx_hal_gpio.h"
 3261              		.file 6 "./Hardware/LCD/SEEKFREE_FONT.h"
 3262              		.file 7 "Drivers/STM32F4xx_HAL_Driver/Inc/stm32f4xx_ll_rcc.h"
 3263              		.file 8 "Drivers/STM32F4xx_HAL_Driver/Inc/stm32f4xx_ll_dma.h"
 3264              		.file 9 "Drivers/STM32F4xx_HAL_Driver/Inc/stm32f4xx_hal.h"
ARM GAS  /tmp/ccnOyTCl.s 			page 77

