ARM GAS  /tmp/ccKeTRIy.s 			page 1


   1              		.cpu cortex-m4
   2              		.eabi_attribute 27, 1
   3              		.eabi_attribute 28, 1
   4              		.eabi_attribute 20, 1
   5              		.eabi_attribute 21, 1
   6              		.eabi_attribute 23, 3
   7              		.eabi_attribute 24, 1
   8              		.eabi_attribute 25, 1
   9              		.eabi_attribute 26, 1
  10              		.eabi_attribute 30, 1
  11              		.eabi_attribute 34, 1
  12              		.eabi_attribute 18, 4
  13              		.file	"stm32f4xx_hal_rtc_ex.c"
  14              		.text
  15              	.Ltext0:
  16              		.cfi_sections	.debug_frame
  17              		.section	.text.HAL_RTCEx_SetTimeStamp,"ax",%progbits
  18              		.align	1
  19              		.global	HAL_RTCEx_SetTimeStamp
  20              		.arch armv7e-m
  21              		.syntax unified
  22              		.thumb
  23              		.thumb_func
  24              		.fpu fpv4-sp-d16
  26              	HAL_RTCEx_SetTimeStamp:
  27              	.LVL0:
  28              	.LFB130:
  29              		.file 1 "Drivers/STM32F4xx_HAL_Driver/Src/stm32f4xx_hal_rtc_ex.c"
   1:Drivers/STM32F4xx_HAL_Driver/Src/stm32f4xx_hal_rtc_ex.c **** /**
   2:Drivers/STM32F4xx_HAL_Driver/Src/stm32f4xx_hal_rtc_ex.c ****   ******************************************************************************
   3:Drivers/STM32F4xx_HAL_Driver/Src/stm32f4xx_hal_rtc_ex.c ****   * @file    stm32f4xx_hal_rtc_ex.c
   4:Drivers/STM32F4xx_HAL_Driver/Src/stm32f4xx_hal_rtc_ex.c ****   * @author  MCD Application Team
   5:Drivers/STM32F4xx_HAL_Driver/Src/stm32f4xx_hal_rtc_ex.c ****   * @brief   Extended RTC HAL module driver.
   6:Drivers/STM32F4xx_HAL_Driver/Src/stm32f4xx_hal_rtc_ex.c ****   *          This file provides firmware functions to manage the following
   7:Drivers/STM32F4xx_HAL_Driver/Src/stm32f4xx_hal_rtc_ex.c ****   *          functionalities of the Real-Time Clock (RTC) Extended peripheral:
   8:Drivers/STM32F4xx_HAL_Driver/Src/stm32f4xx_hal_rtc_ex.c ****   *           + RTC Timestamp functions
   9:Drivers/STM32F4xx_HAL_Driver/Src/stm32f4xx_hal_rtc_ex.c ****   *           + RTC Tamper functions
  10:Drivers/STM32F4xx_HAL_Driver/Src/stm32f4xx_hal_rtc_ex.c ****   *           + RTC Wakeup functions
  11:Drivers/STM32F4xx_HAL_Driver/Src/stm32f4xx_hal_rtc_ex.c ****   *           + Extended Control functions
  12:Drivers/STM32F4xx_HAL_Driver/Src/stm32f4xx_hal_rtc_ex.c ****   *           + Extended RTC features functions
  13:Drivers/STM32F4xx_HAL_Driver/Src/stm32f4xx_hal_rtc_ex.c ****   *
  14:Drivers/STM32F4xx_HAL_Driver/Src/stm32f4xx_hal_rtc_ex.c ****   ******************************************************************************
  15:Drivers/STM32F4xx_HAL_Driver/Src/stm32f4xx_hal_rtc_ex.c ****   * @attention
  16:Drivers/STM32F4xx_HAL_Driver/Src/stm32f4xx_hal_rtc_ex.c ****   *
  17:Drivers/STM32F4xx_HAL_Driver/Src/stm32f4xx_hal_rtc_ex.c ****   * Copyright (c) 2017 STMicroelectronics.
  18:Drivers/STM32F4xx_HAL_Driver/Src/stm32f4xx_hal_rtc_ex.c ****   * All rights reserved.
  19:Drivers/STM32F4xx_HAL_Driver/Src/stm32f4xx_hal_rtc_ex.c ****   *
  20:Drivers/STM32F4xx_HAL_Driver/Src/stm32f4xx_hal_rtc_ex.c ****   * This software is licensed under terms that can be found in the LICENSE file
  21:Drivers/STM32F4xx_HAL_Driver/Src/stm32f4xx_hal_rtc_ex.c ****   * in the root directory of this software component.
  22:Drivers/STM32F4xx_HAL_Driver/Src/stm32f4xx_hal_rtc_ex.c ****   * If no LICENSE file comes with this software, it is provided AS-IS.
  23:Drivers/STM32F4xx_HAL_Driver/Src/stm32f4xx_hal_rtc_ex.c ****   *
  24:Drivers/STM32F4xx_HAL_Driver/Src/stm32f4xx_hal_rtc_ex.c ****   ******************************************************************************
  25:Drivers/STM32F4xx_HAL_Driver/Src/stm32f4xx_hal_rtc_ex.c ****   @verbatim
  26:Drivers/STM32F4xx_HAL_Driver/Src/stm32f4xx_hal_rtc_ex.c ****   ==============================================================================
  27:Drivers/STM32F4xx_HAL_Driver/Src/stm32f4xx_hal_rtc_ex.c ****                         ##### How to use this driver #####
  28:Drivers/STM32F4xx_HAL_Driver/Src/stm32f4xx_hal_rtc_ex.c ****   ==============================================================================
  29:Drivers/STM32F4xx_HAL_Driver/Src/stm32f4xx_hal_rtc_ex.c ****   [..]
ARM GAS  /tmp/ccKeTRIy.s 			page 2


  30:Drivers/STM32F4xx_HAL_Driver/Src/stm32f4xx_hal_rtc_ex.c ****     (+) Enable the RTC domain access.
  31:Drivers/STM32F4xx_HAL_Driver/Src/stm32f4xx_hal_rtc_ex.c ****     (+) Configure the RTC Prescaler (Asynchronous and Synchronous) and RTC hour
  32:Drivers/STM32F4xx_HAL_Driver/Src/stm32f4xx_hal_rtc_ex.c ****         format using the HAL_RTC_Init() function.
  33:Drivers/STM32F4xx_HAL_Driver/Src/stm32f4xx_hal_rtc_ex.c **** 
  34:Drivers/STM32F4xx_HAL_Driver/Src/stm32f4xx_hal_rtc_ex.c ****   *** RTC Wakeup configuration ***
  35:Drivers/STM32F4xx_HAL_Driver/Src/stm32f4xx_hal_rtc_ex.c ****   ================================
  36:Drivers/STM32F4xx_HAL_Driver/Src/stm32f4xx_hal_rtc_ex.c ****   [..]
  37:Drivers/STM32F4xx_HAL_Driver/Src/stm32f4xx_hal_rtc_ex.c ****     (+) To configure the RTC Wakeup Clock source and Counter use the
  38:Drivers/STM32F4xx_HAL_Driver/Src/stm32f4xx_hal_rtc_ex.c ****         HAL_RTCEx_SetWakeUpTimer() function.
  39:Drivers/STM32F4xx_HAL_Driver/Src/stm32f4xx_hal_rtc_ex.c ****         You can also configure the RTC Wakeup timer in interrupt mode using the
  40:Drivers/STM32F4xx_HAL_Driver/Src/stm32f4xx_hal_rtc_ex.c ****         HAL_RTCEx_SetWakeUpTimer_IT() function.
  41:Drivers/STM32F4xx_HAL_Driver/Src/stm32f4xx_hal_rtc_ex.c ****     (+) To read the RTC Wakeup Counter register, use the HAL_RTCEx_GetWakeUpTimer()
  42:Drivers/STM32F4xx_HAL_Driver/Src/stm32f4xx_hal_rtc_ex.c ****         function.
  43:Drivers/STM32F4xx_HAL_Driver/Src/stm32f4xx_hal_rtc_ex.c **** 
  44:Drivers/STM32F4xx_HAL_Driver/Src/stm32f4xx_hal_rtc_ex.c ****   *** Timestamp configuration ***
  45:Drivers/STM32F4xx_HAL_Driver/Src/stm32f4xx_hal_rtc_ex.c ****   ===============================
  46:Drivers/STM32F4xx_HAL_Driver/Src/stm32f4xx_hal_rtc_ex.c ****   [..]
  47:Drivers/STM32F4xx_HAL_Driver/Src/stm32f4xx_hal_rtc_ex.c ****     (+) To configure the RTC Timestamp use the HAL_RTCEx_SetTimeStamp() function.
  48:Drivers/STM32F4xx_HAL_Driver/Src/stm32f4xx_hal_rtc_ex.c ****         You can also configure the RTC Timestamp with interrupt mode using the
  49:Drivers/STM32F4xx_HAL_Driver/Src/stm32f4xx_hal_rtc_ex.c ****         HAL_RTCEx_SetTimeStamp_IT() function.
  50:Drivers/STM32F4xx_HAL_Driver/Src/stm32f4xx_hal_rtc_ex.c ****     (+) To read the RTC Timestamp Time and Date register, use the
  51:Drivers/STM32F4xx_HAL_Driver/Src/stm32f4xx_hal_rtc_ex.c ****         HAL_RTCEx_GetTimeStamp() function.
  52:Drivers/STM32F4xx_HAL_Driver/Src/stm32f4xx_hal_rtc_ex.c ****     (+) The Timestamp alternate function can be mapped either to RTC_AF1 (PC13)
  53:Drivers/STM32F4xx_HAL_Driver/Src/stm32f4xx_hal_rtc_ex.c ****         or RTC_AF2 (PI8) depending on the value of TSINSEL bit in RTC_TAFCR
  54:Drivers/STM32F4xx_HAL_Driver/Src/stm32f4xx_hal_rtc_ex.c ****         register.
  55:Drivers/STM32F4xx_HAL_Driver/Src/stm32f4xx_hal_rtc_ex.c ****         For STM32F446xx devices RTC_AF2 corresponds to pin PA0 and not to pin PI8.
  56:Drivers/STM32F4xx_HAL_Driver/Src/stm32f4xx_hal_rtc_ex.c ****         The corresponding pin is also selected by HAL_RTCEx_SetTimeStamp()
  57:Drivers/STM32F4xx_HAL_Driver/Src/stm32f4xx_hal_rtc_ex.c ****         or HAL_RTCEx_SetTimeStamp_IT() functions.
  58:Drivers/STM32F4xx_HAL_Driver/Src/stm32f4xx_hal_rtc_ex.c **** 
  59:Drivers/STM32F4xx_HAL_Driver/Src/stm32f4xx_hal_rtc_ex.c ****   *** Tamper configuration ***
  60:Drivers/STM32F4xx_HAL_Driver/Src/stm32f4xx_hal_rtc_ex.c ****   ============================
  61:Drivers/STM32F4xx_HAL_Driver/Src/stm32f4xx_hal_rtc_ex.c ****   [..]
  62:Drivers/STM32F4xx_HAL_Driver/Src/stm32f4xx_hal_rtc_ex.c ****     (+) To Enable the RTC Tamper and configure the Tamper filter count, trigger
  63:Drivers/STM32F4xx_HAL_Driver/Src/stm32f4xx_hal_rtc_ex.c ****         Edge or Level according to the Tamper filter value (if equal to 0 Edge
  64:Drivers/STM32F4xx_HAL_Driver/Src/stm32f4xx_hal_rtc_ex.c ****         else Level), sampling frequency, precharge or discharge and Pull-UP use
  65:Drivers/STM32F4xx_HAL_Driver/Src/stm32f4xx_hal_rtc_ex.c ****         the HAL_RTCEx_SetTamper() function.
  66:Drivers/STM32F4xx_HAL_Driver/Src/stm32f4xx_hal_rtc_ex.c ****         You can configure RTC Tamper in interrupt mode using HAL_RTCEx_SetTamper_IT()
  67:Drivers/STM32F4xx_HAL_Driver/Src/stm32f4xx_hal_rtc_ex.c ****         function.
  68:Drivers/STM32F4xx_HAL_Driver/Src/stm32f4xx_hal_rtc_ex.c ****     (+) The TAMPER1 alternate function can be mapped either to RTC_AF1 (PC13)
  69:Drivers/STM32F4xx_HAL_Driver/Src/stm32f4xx_hal_rtc_ex.c ****         or RTC_AF2 (PI8) depending on the value of TAMP1INSEL bit in RTC_TAFCR
  70:Drivers/STM32F4xx_HAL_Driver/Src/stm32f4xx_hal_rtc_ex.c ****         register.
  71:Drivers/STM32F4xx_HAL_Driver/Src/stm32f4xx_hal_rtc_ex.c ****         The corresponding pin is also selected by HAL_RTCEx_SetTamper()
  72:Drivers/STM32F4xx_HAL_Driver/Src/stm32f4xx_hal_rtc_ex.c ****         or HAL_RTCEx_SetTamper_IT() functions.
  73:Drivers/STM32F4xx_HAL_Driver/Src/stm32f4xx_hal_rtc_ex.c ****     (+) The TAMPER2 alternate function is mapped to RTC_AF2 (PI8).
  74:Drivers/STM32F4xx_HAL_Driver/Src/stm32f4xx_hal_rtc_ex.c ****         For STM32F446xx devices RTC_AF2 corresponds to pin PA0 and not to pin PI8.
  75:Drivers/STM32F4xx_HAL_Driver/Src/stm32f4xx_hal_rtc_ex.c **** 
  76:Drivers/STM32F4xx_HAL_Driver/Src/stm32f4xx_hal_rtc_ex.c ****   *** Backup Data Registers configuration ***
  77:Drivers/STM32F4xx_HAL_Driver/Src/stm32f4xx_hal_rtc_ex.c ****   ===========================================
  78:Drivers/STM32F4xx_HAL_Driver/Src/stm32f4xx_hal_rtc_ex.c ****   [..]
  79:Drivers/STM32F4xx_HAL_Driver/Src/stm32f4xx_hal_rtc_ex.c ****     (+) To write to the RTC Backup Data registers, use the HAL_RTCEx_BKUPWrite()
  80:Drivers/STM32F4xx_HAL_Driver/Src/stm32f4xx_hal_rtc_ex.c ****         function.
  81:Drivers/STM32F4xx_HAL_Driver/Src/stm32f4xx_hal_rtc_ex.c ****     (+) To read the RTC Backup Data registers, use the HAL_RTCEx_BKUPRead()
  82:Drivers/STM32F4xx_HAL_Driver/Src/stm32f4xx_hal_rtc_ex.c ****         function.
  83:Drivers/STM32F4xx_HAL_Driver/Src/stm32f4xx_hal_rtc_ex.c **** 
  84:Drivers/STM32F4xx_HAL_Driver/Src/stm32f4xx_hal_rtc_ex.c ****   *** Coarse Digital Calibration configuration ***
  85:Drivers/STM32F4xx_HAL_Driver/Src/stm32f4xx_hal_rtc_ex.c ****   ================================================
  86:Drivers/STM32F4xx_HAL_Driver/Src/stm32f4xx_hal_rtc_ex.c ****   [..]
ARM GAS  /tmp/ccKeTRIy.s 			page 3


  87:Drivers/STM32F4xx_HAL_Driver/Src/stm32f4xx_hal_rtc_ex.c ****     (+) The Coarse Digital Calibration can be used to compensate crystal inaccuracy
  88:Drivers/STM32F4xx_HAL_Driver/Src/stm32f4xx_hal_rtc_ex.c ****         by setting the DCS bit in RTC_CALIBR register.
  89:Drivers/STM32F4xx_HAL_Driver/Src/stm32f4xx_hal_rtc_ex.c ****     (+) When positive calibration is enabled (DCS = ‘0’), 2 asynchronous prescaler
  90:Drivers/STM32F4xx_HAL_Driver/Src/stm32f4xx_hal_rtc_ex.c ****         clock cycles are added every minute during 2xDC minutes.
  91:Drivers/STM32F4xx_HAL_Driver/Src/stm32f4xx_hal_rtc_ex.c ****         This causes the calendar to be updated sooner, thereby adjusting the
  92:Drivers/STM32F4xx_HAL_Driver/Src/stm32f4xx_hal_rtc_ex.c ****         effective RTC frequency to be a bit higher.
  93:Drivers/STM32F4xx_HAL_Driver/Src/stm32f4xx_hal_rtc_ex.c ****     (+) When negative calibration is enabled (DCS = ‘1’), 1 asynchronous prescaler
  94:Drivers/STM32F4xx_HAL_Driver/Src/stm32f4xx_hal_rtc_ex.c ****         clock cycle is removed every minute during 2xDC minutes.
  95:Drivers/STM32F4xx_HAL_Driver/Src/stm32f4xx_hal_rtc_ex.c ****         This causes the calendar to be updated later, thereby adjusting the
  96:Drivers/STM32F4xx_HAL_Driver/Src/stm32f4xx_hal_rtc_ex.c ****         effective RTC frequency to be a bit lower.
  97:Drivers/STM32F4xx_HAL_Driver/Src/stm32f4xx_hal_rtc_ex.c ****     (+) DC is configured through bits DC[4:0] of RTC_CALIBR register. This number
  98:Drivers/STM32F4xx_HAL_Driver/Src/stm32f4xx_hal_rtc_ex.c ****         ranges from 0 to 31 corresponding to a time interval (2xDC) ranging from
  99:Drivers/STM32F4xx_HAL_Driver/Src/stm32f4xx_hal_rtc_ex.c ****         0 to 62.
 100:Drivers/STM32F4xx_HAL_Driver/Src/stm32f4xx_hal_rtc_ex.c ****     (+) In order to measure the clock deviation, a 512 Hz clock is output for
 101:Drivers/STM32F4xx_HAL_Driver/Src/stm32f4xx_hal_rtc_ex.c ****         calibration.
 102:Drivers/STM32F4xx_HAL_Driver/Src/stm32f4xx_hal_rtc_ex.c ****     (+) The RTC Coarse Digital Calibration value and sign can be calibrated using
 103:Drivers/STM32F4xx_HAL_Driver/Src/stm32f4xx_hal_rtc_ex.c ****         the HAL_RTCEx_SetCoarseCalib() function.
 104:Drivers/STM32F4xx_HAL_Driver/Src/stm32f4xx_hal_rtc_ex.c **** 
 105:Drivers/STM32F4xx_HAL_Driver/Src/stm32f4xx_hal_rtc_ex.c ****   *** Smooth Digital Calibration configuration ***
 106:Drivers/STM32F4xx_HAL_Driver/Src/stm32f4xx_hal_rtc_ex.c ****   ================================================
 107:Drivers/STM32F4xx_HAL_Driver/Src/stm32f4xx_hal_rtc_ex.c ****   [..]
 108:Drivers/STM32F4xx_HAL_Driver/Src/stm32f4xx_hal_rtc_ex.c ****     (+) RTC frequency can be digitally calibrated with a resolution of about
 109:Drivers/STM32F4xx_HAL_Driver/Src/stm32f4xx_hal_rtc_ex.c ****         0.954 ppm with a range from -487.1 ppm to +488.5 ppm.
 110:Drivers/STM32F4xx_HAL_Driver/Src/stm32f4xx_hal_rtc_ex.c ****         The correction of the frequency is performed using a series of small
 111:Drivers/STM32F4xx_HAL_Driver/Src/stm32f4xx_hal_rtc_ex.c ****         adjustments (adding and/or subtracting individual RTCCLK pulses).
 112:Drivers/STM32F4xx_HAL_Driver/Src/stm32f4xx_hal_rtc_ex.c ****     (+) The smooth digital calibration is performed during a cycle of about 2^20
 113:Drivers/STM32F4xx_HAL_Driver/Src/stm32f4xx_hal_rtc_ex.c ****         RTCCLK pulses (or 32 seconds) when the input frequency is 32,768 Hz.
 114:Drivers/STM32F4xx_HAL_Driver/Src/stm32f4xx_hal_rtc_ex.c ****         This cycle is maintained by a 20-bit counter clocked by RTCCLK.
 115:Drivers/STM32F4xx_HAL_Driver/Src/stm32f4xx_hal_rtc_ex.c ****     (+) The smooth calibration register (RTC_CALR) specifies the number of RTCCLK
 116:Drivers/STM32F4xx_HAL_Driver/Src/stm32f4xx_hal_rtc_ex.c ****         clock cycles to be masked during the 32-second cycle.
 117:Drivers/STM32F4xx_HAL_Driver/Src/stm32f4xx_hal_rtc_ex.c ****     (+) The RTC Smooth Digital Calibration value and the corresponding calibration
 118:Drivers/STM32F4xx_HAL_Driver/Src/stm32f4xx_hal_rtc_ex.c ****         cycle period (32s, 16s, or 8s) can be calibrated using the
 119:Drivers/STM32F4xx_HAL_Driver/Src/stm32f4xx_hal_rtc_ex.c ****         HAL_RTCEx_SetSmoothCalib() function.
 120:Drivers/STM32F4xx_HAL_Driver/Src/stm32f4xx_hal_rtc_ex.c **** 
 121:Drivers/STM32F4xx_HAL_Driver/Src/stm32f4xx_hal_rtc_ex.c ****   @endverbatim
 122:Drivers/STM32F4xx_HAL_Driver/Src/stm32f4xx_hal_rtc_ex.c ****   ******************************************************************************
 123:Drivers/STM32F4xx_HAL_Driver/Src/stm32f4xx_hal_rtc_ex.c ****   */
 124:Drivers/STM32F4xx_HAL_Driver/Src/stm32f4xx_hal_rtc_ex.c **** 
 125:Drivers/STM32F4xx_HAL_Driver/Src/stm32f4xx_hal_rtc_ex.c **** /* Includes ------------------------------------------------------------------*/
 126:Drivers/STM32F4xx_HAL_Driver/Src/stm32f4xx_hal_rtc_ex.c **** #include "stm32f4xx_hal.h"
 127:Drivers/STM32F4xx_HAL_Driver/Src/stm32f4xx_hal_rtc_ex.c **** 
 128:Drivers/STM32F4xx_HAL_Driver/Src/stm32f4xx_hal_rtc_ex.c **** /** @addtogroup STM32F4xx_HAL_Driver
 129:Drivers/STM32F4xx_HAL_Driver/Src/stm32f4xx_hal_rtc_ex.c ****   * @{
 130:Drivers/STM32F4xx_HAL_Driver/Src/stm32f4xx_hal_rtc_ex.c ****   */
 131:Drivers/STM32F4xx_HAL_Driver/Src/stm32f4xx_hal_rtc_ex.c **** 
 132:Drivers/STM32F4xx_HAL_Driver/Src/stm32f4xx_hal_rtc_ex.c **** /** @defgroup RTCEx RTCEx
 133:Drivers/STM32F4xx_HAL_Driver/Src/stm32f4xx_hal_rtc_ex.c ****   * @brief    RTC Extended HAL module driver
 134:Drivers/STM32F4xx_HAL_Driver/Src/stm32f4xx_hal_rtc_ex.c ****   * @{
 135:Drivers/STM32F4xx_HAL_Driver/Src/stm32f4xx_hal_rtc_ex.c ****   */
 136:Drivers/STM32F4xx_HAL_Driver/Src/stm32f4xx_hal_rtc_ex.c **** 
 137:Drivers/STM32F4xx_HAL_Driver/Src/stm32f4xx_hal_rtc_ex.c **** #ifdef HAL_RTC_MODULE_ENABLED
 138:Drivers/STM32F4xx_HAL_Driver/Src/stm32f4xx_hal_rtc_ex.c **** 
 139:Drivers/STM32F4xx_HAL_Driver/Src/stm32f4xx_hal_rtc_ex.c **** /* Private typedef -----------------------------------------------------------*/
 140:Drivers/STM32F4xx_HAL_Driver/Src/stm32f4xx_hal_rtc_ex.c **** /* Private define ------------------------------------------------------------*/
 141:Drivers/STM32F4xx_HAL_Driver/Src/stm32f4xx_hal_rtc_ex.c **** /* Private macro -------------------------------------------------------------*/
 142:Drivers/STM32F4xx_HAL_Driver/Src/stm32f4xx_hal_rtc_ex.c **** /* Private variables ---------------------------------------------------------*/
 143:Drivers/STM32F4xx_HAL_Driver/Src/stm32f4xx_hal_rtc_ex.c **** /* Private function prototypes -----------------------------------------------*/
ARM GAS  /tmp/ccKeTRIy.s 			page 4


 144:Drivers/STM32F4xx_HAL_Driver/Src/stm32f4xx_hal_rtc_ex.c **** /* Exported functions --------------------------------------------------------*/
 145:Drivers/STM32F4xx_HAL_Driver/Src/stm32f4xx_hal_rtc_ex.c **** 
 146:Drivers/STM32F4xx_HAL_Driver/Src/stm32f4xx_hal_rtc_ex.c **** /** @defgroup RTCEx_Exported_Functions RTCEx Exported Functions
 147:Drivers/STM32F4xx_HAL_Driver/Src/stm32f4xx_hal_rtc_ex.c ****   * @{
 148:Drivers/STM32F4xx_HAL_Driver/Src/stm32f4xx_hal_rtc_ex.c ****   */
 149:Drivers/STM32F4xx_HAL_Driver/Src/stm32f4xx_hal_rtc_ex.c **** 
 150:Drivers/STM32F4xx_HAL_Driver/Src/stm32f4xx_hal_rtc_ex.c **** /** @defgroup RTCEx_Exported_Functions_Group1 RTC Timestamp and Tamper functions
 151:Drivers/STM32F4xx_HAL_Driver/Src/stm32f4xx_hal_rtc_ex.c ****   * @brief    RTC Timestamp and Tamper functions
 152:Drivers/STM32F4xx_HAL_Driver/Src/stm32f4xx_hal_rtc_ex.c ****   *
 153:Drivers/STM32F4xx_HAL_Driver/Src/stm32f4xx_hal_rtc_ex.c **** @verbatim
 154:Drivers/STM32F4xx_HAL_Driver/Src/stm32f4xx_hal_rtc_ex.c ****  ===============================================================================
 155:Drivers/STM32F4xx_HAL_Driver/Src/stm32f4xx_hal_rtc_ex.c ****                  ##### RTC Timestamp and Tamper functions #####
 156:Drivers/STM32F4xx_HAL_Driver/Src/stm32f4xx_hal_rtc_ex.c ****  ===============================================================================
 157:Drivers/STM32F4xx_HAL_Driver/Src/stm32f4xx_hal_rtc_ex.c **** 
 158:Drivers/STM32F4xx_HAL_Driver/Src/stm32f4xx_hal_rtc_ex.c ****  [..] This section provides functions allowing to configure Timestamp feature
 159:Drivers/STM32F4xx_HAL_Driver/Src/stm32f4xx_hal_rtc_ex.c **** 
 160:Drivers/STM32F4xx_HAL_Driver/Src/stm32f4xx_hal_rtc_ex.c **** @endverbatim
 161:Drivers/STM32F4xx_HAL_Driver/Src/stm32f4xx_hal_rtc_ex.c ****   * @{
 162:Drivers/STM32F4xx_HAL_Driver/Src/stm32f4xx_hal_rtc_ex.c ****   */
 163:Drivers/STM32F4xx_HAL_Driver/Src/stm32f4xx_hal_rtc_ex.c **** 
 164:Drivers/STM32F4xx_HAL_Driver/Src/stm32f4xx_hal_rtc_ex.c **** /**
 165:Drivers/STM32F4xx_HAL_Driver/Src/stm32f4xx_hal_rtc_ex.c ****   * @brief  Sets Timestamp.
 166:Drivers/STM32F4xx_HAL_Driver/Src/stm32f4xx_hal_rtc_ex.c ****   * @note   This API must be called before enabling the Timestamp feature.
 167:Drivers/STM32F4xx_HAL_Driver/Src/stm32f4xx_hal_rtc_ex.c ****   * @param  hrtc pointer to a RTC_HandleTypeDef structure that contains
 168:Drivers/STM32F4xx_HAL_Driver/Src/stm32f4xx_hal_rtc_ex.c ****   *                the configuration information for RTC.
 169:Drivers/STM32F4xx_HAL_Driver/Src/stm32f4xx_hal_rtc_ex.c ****   * @param  RTC_TimeStampEdge Specifies the pin edge on which the Timestamp is
 170:Drivers/STM32F4xx_HAL_Driver/Src/stm32f4xx_hal_rtc_ex.c ****   *         activated.
 171:Drivers/STM32F4xx_HAL_Driver/Src/stm32f4xx_hal_rtc_ex.c ****   *          This parameter can be one of the following values:
 172:Drivers/STM32F4xx_HAL_Driver/Src/stm32f4xx_hal_rtc_ex.c ****   *             @arg RTC_TIMESTAMPEDGE_RISING: the Timestamp event occurs on
 173:Drivers/STM32F4xx_HAL_Driver/Src/stm32f4xx_hal_rtc_ex.c ****   *                                        the rising edge of the related pin.
 174:Drivers/STM32F4xx_HAL_Driver/Src/stm32f4xx_hal_rtc_ex.c ****   *             @arg RTC_TIMESTAMPEDGE_FALLING: the Timestamp event occurs on
 175:Drivers/STM32F4xx_HAL_Driver/Src/stm32f4xx_hal_rtc_ex.c ****   *                                        the falling edge of the related pin.
 176:Drivers/STM32F4xx_HAL_Driver/Src/stm32f4xx_hal_rtc_ex.c ****   * @param  RTC_TimeStampPin Specifies the RTC Timestamp Pin.
 177:Drivers/STM32F4xx_HAL_Driver/Src/stm32f4xx_hal_rtc_ex.c ****   *          This parameter can be one of the following values:
 178:Drivers/STM32F4xx_HAL_Driver/Src/stm32f4xx_hal_rtc_ex.c ****   *             @arg RTC_TIMESTAMPPIN_DEFAULT: PC13 is selected as RTC Timestamp Pin.
 179:Drivers/STM32F4xx_HAL_Driver/Src/stm32f4xx_hal_rtc_ex.c ****   *             @arg RTC_TIMESTAMPPIN_POS1: PI8 is selected as RTC Timestamp Pin.
 180:Drivers/STM32F4xx_HAL_Driver/Src/stm32f4xx_hal_rtc_ex.c ****   * @note RTC_TIMESTAMPPIN_POS1 corresponds to pin PA0 in the case of
 181:Drivers/STM32F4xx_HAL_Driver/Src/stm32f4xx_hal_rtc_ex.c ****   *       STM32F446xx devices.
 182:Drivers/STM32F4xx_HAL_Driver/Src/stm32f4xx_hal_rtc_ex.c ****   * @note RTC_TIMESTAMPPIN_POS1 is not applicable to the following list of devices:
 183:Drivers/STM32F4xx_HAL_Driver/Src/stm32f4xx_hal_rtc_ex.c ****   *       STM32F412xx, STM32F413xx and STM32F423xx.
 184:Drivers/STM32F4xx_HAL_Driver/Src/stm32f4xx_hal_rtc_ex.c ****   * @retval HAL status
 185:Drivers/STM32F4xx_HAL_Driver/Src/stm32f4xx_hal_rtc_ex.c ****   */
 186:Drivers/STM32F4xx_HAL_Driver/Src/stm32f4xx_hal_rtc_ex.c **** HAL_StatusTypeDef HAL_RTCEx_SetTimeStamp(RTC_HandleTypeDef *hrtc, uint32_t RTC_TimeStampEdge, uint3
 187:Drivers/STM32F4xx_HAL_Driver/Src/stm32f4xx_hal_rtc_ex.c **** {
  30              		.loc 1 187 1 view -0
  31              		.cfi_startproc
  32              		@ args = 0, pretend = 0, frame = 0
  33              		@ frame_needed = 0, uses_anonymous_args = 0
  34              		@ link register save eliminated.
 188:Drivers/STM32F4xx_HAL_Driver/Src/stm32f4xx_hal_rtc_ex.c ****   uint32_t tmpreg = 0U;
  35              		.loc 1 188 3 view .LVU1
 189:Drivers/STM32F4xx_HAL_Driver/Src/stm32f4xx_hal_rtc_ex.c **** 
 190:Drivers/STM32F4xx_HAL_Driver/Src/stm32f4xx_hal_rtc_ex.c ****   /* Check the parameters */
 191:Drivers/STM32F4xx_HAL_Driver/Src/stm32f4xx_hal_rtc_ex.c ****   assert_param(IS_TIMESTAMP_EDGE(RTC_TimeStampEdge));
  36              		.loc 1 191 3 view .LVU2
 192:Drivers/STM32F4xx_HAL_Driver/Src/stm32f4xx_hal_rtc_ex.c ****   assert_param(IS_RTC_TIMESTAMP_PIN(RTC_TimeStampPin));
  37              		.loc 1 192 3 view .LVU3
ARM GAS  /tmp/ccKeTRIy.s 			page 5


 193:Drivers/STM32F4xx_HAL_Driver/Src/stm32f4xx_hal_rtc_ex.c **** 
 194:Drivers/STM32F4xx_HAL_Driver/Src/stm32f4xx_hal_rtc_ex.c ****   /* Process Locked */
 195:Drivers/STM32F4xx_HAL_Driver/Src/stm32f4xx_hal_rtc_ex.c ****   __HAL_LOCK(hrtc);
  38              		.loc 1 195 3 view .LVU4
  39              		.loc 1 195 3 view .LVU5
  40 0000 037F     		ldrb	r3, [r0, #28]	@ zero_extendqisi2
  41 0002 012B     		cmp	r3, #1
  42 0004 39D0     		beq	.L3
 187:Drivers/STM32F4xx_HAL_Driver/Src/stm32f4xx_hal_rtc_ex.c ****   uint32_t tmpreg = 0U;
  43              		.loc 1 187 1 is_stmt 0 discriminator 2 view .LVU6
  44 0006 10B4     		push	{r4}
  45              	.LCFI0:
  46              		.cfi_def_cfa_offset 4
  47              		.cfi_offset 4, -4
  48              		.loc 1 195 3 is_stmt 1 discriminator 2 view .LVU7
  49 0008 4FF0010C 		mov	ip, #1
  50 000c 80F81CC0 		strb	ip, [r0, #28]
  51              		.loc 1 195 3 discriminator 2 view .LVU8
 196:Drivers/STM32F4xx_HAL_Driver/Src/stm32f4xx_hal_rtc_ex.c **** 
 197:Drivers/STM32F4xx_HAL_Driver/Src/stm32f4xx_hal_rtc_ex.c ****   /* Change RTC state to BUSY */
 198:Drivers/STM32F4xx_HAL_Driver/Src/stm32f4xx_hal_rtc_ex.c ****   hrtc->State = HAL_RTC_STATE_BUSY;
  52              		.loc 1 198 3 discriminator 2 view .LVU9
  53              		.loc 1 198 15 is_stmt 0 discriminator 2 view .LVU10
  54 0010 0223     		movs	r3, #2
  55 0012 4377     		strb	r3, [r0, #29]
 199:Drivers/STM32F4xx_HAL_Driver/Src/stm32f4xx_hal_rtc_ex.c **** 
 200:Drivers/STM32F4xx_HAL_Driver/Src/stm32f4xx_hal_rtc_ex.c ****   hrtc->Instance->TAFCR &= (uint32_t)~RTC_TAFCR_TSINSEL;
  56              		.loc 1 200 3 is_stmt 1 discriminator 2 view .LVU11
  57              		.loc 1 200 7 is_stmt 0 discriminator 2 view .LVU12
  58 0014 0468     		ldr	r4, [r0]
  59              		.loc 1 200 25 discriminator 2 view .LVU13
  60 0016 236C     		ldr	r3, [r4, #64]
  61 0018 23F40033 		bic	r3, r3, #131072
  62 001c 2364     		str	r3, [r4, #64]
 201:Drivers/STM32F4xx_HAL_Driver/Src/stm32f4xx_hal_rtc_ex.c ****   hrtc->Instance->TAFCR |= (uint32_t)(RTC_TimeStampPin);
  63              		.loc 1 201 3 is_stmt 1 discriminator 2 view .LVU14
  64              		.loc 1 201 7 is_stmt 0 discriminator 2 view .LVU15
  65 001e 0468     		ldr	r4, [r0]
  66              		.loc 1 201 25 discriminator 2 view .LVU16
  67 0020 236C     		ldr	r3, [r4, #64]
  68 0022 1A43     		orrs	r2, r2, r3
  69              	.LVL1:
  70              		.loc 1 201 25 discriminator 2 view .LVU17
  71 0024 2264     		str	r2, [r4, #64]
 202:Drivers/STM32F4xx_HAL_Driver/Src/stm32f4xx_hal_rtc_ex.c **** 
 203:Drivers/STM32F4xx_HAL_Driver/Src/stm32f4xx_hal_rtc_ex.c ****   /* Get the RTC_CR register and clear the bits to be configured */
 204:Drivers/STM32F4xx_HAL_Driver/Src/stm32f4xx_hal_rtc_ex.c ****   tmpreg = (uint32_t)(hrtc->Instance->CR & (uint32_t)~(RTC_CR_TSEDGE | RTC_CR_TSE));
  72              		.loc 1 204 3 is_stmt 1 discriminator 2 view .LVU18
  73              		.loc 1 204 27 is_stmt 0 discriminator 2 view .LVU19
  74 0026 0468     		ldr	r4, [r0]
  75              		.loc 1 204 37 discriminator 2 view .LVU20
  76 0028 A368     		ldr	r3, [r4, #8]
  77              		.loc 1 204 10 discriminator 2 view .LVU21
  78 002a 23F40063 		bic	r3, r3, #2048
  79 002e 23F00803 		bic	r3, r3, #8
  80              	.LVL2:
 205:Drivers/STM32F4xx_HAL_Driver/Src/stm32f4xx_hal_rtc_ex.c **** 
ARM GAS  /tmp/ccKeTRIy.s 			page 6


 206:Drivers/STM32F4xx_HAL_Driver/Src/stm32f4xx_hal_rtc_ex.c ****   /* Configure the Timestamp TSEDGE bit */
 207:Drivers/STM32F4xx_HAL_Driver/Src/stm32f4xx_hal_rtc_ex.c ****   tmpreg |= RTC_TimeStampEdge;
  81              		.loc 1 207 3 is_stmt 1 discriminator 2 view .LVU22
  82              		.loc 1 207 10 is_stmt 0 discriminator 2 view .LVU23
  83 0032 0B43     		orrs	r3, r3, r1
  84              	.LVL3:
 208:Drivers/STM32F4xx_HAL_Driver/Src/stm32f4xx_hal_rtc_ex.c **** 
 209:Drivers/STM32F4xx_HAL_Driver/Src/stm32f4xx_hal_rtc_ex.c ****   /* Disable the write protection for RTC registers */
 210:Drivers/STM32F4xx_HAL_Driver/Src/stm32f4xx_hal_rtc_ex.c ****   __HAL_RTC_WRITEPROTECTION_DISABLE(hrtc);
  85              		.loc 1 210 3 is_stmt 1 discriminator 2 view .LVU24
  86              		.loc 1 210 3 discriminator 2 view .LVU25
  87 0034 CA22     		movs	r2, #202
  88 0036 6262     		str	r2, [r4, #36]
  89              		.loc 1 210 3 discriminator 2 view .LVU26
  90 0038 0268     		ldr	r2, [r0]
  91 003a 5321     		movs	r1, #83
  92              	.LVL4:
  93              		.loc 1 210 3 is_stmt 0 discriminator 2 view .LVU27
  94 003c 5162     		str	r1, [r2, #36]
  95              		.loc 1 210 3 is_stmt 1 discriminator 2 view .LVU28
 211:Drivers/STM32F4xx_HAL_Driver/Src/stm32f4xx_hal_rtc_ex.c **** 
 212:Drivers/STM32F4xx_HAL_Driver/Src/stm32f4xx_hal_rtc_ex.c ****   /* Copy the desired configuration into the CR register */
 213:Drivers/STM32F4xx_HAL_Driver/Src/stm32f4xx_hal_rtc_ex.c ****   hrtc->Instance->CR = (uint32_t)tmpreg;
  96              		.loc 1 213 3 discriminator 2 view .LVU29
  97              		.loc 1 213 7 is_stmt 0 discriminator 2 view .LVU30
  98 003e 0268     		ldr	r2, [r0]
  99              		.loc 1 213 22 discriminator 2 view .LVU31
 100 0040 9360     		str	r3, [r2, #8]
 214:Drivers/STM32F4xx_HAL_Driver/Src/stm32f4xx_hal_rtc_ex.c **** 
 215:Drivers/STM32F4xx_HAL_Driver/Src/stm32f4xx_hal_rtc_ex.c ****   /* Clear RTC Timestamp flag */
 216:Drivers/STM32F4xx_HAL_Driver/Src/stm32f4xx_hal_rtc_ex.c ****   __HAL_RTC_TIMESTAMP_CLEAR_FLAG(hrtc, RTC_FLAG_TSF);
 101              		.loc 1 216 3 is_stmt 1 discriminator 2 view .LVU32
 102 0042 0268     		ldr	r2, [r0]
 103 0044 D368     		ldr	r3, [r2, #12]
 104              	.LVL5:
 105              		.loc 1 216 3 is_stmt 0 discriminator 2 view .LVU33
 106 0046 DBB2     		uxtb	r3, r3
 107 0048 63F40863 		orn	r3, r3, #2176
 108 004c D360     		str	r3, [r2, #12]
 217:Drivers/STM32F4xx_HAL_Driver/Src/stm32f4xx_hal_rtc_ex.c **** 
 218:Drivers/STM32F4xx_HAL_Driver/Src/stm32f4xx_hal_rtc_ex.c ****   /* Clear RTC Timestamp overrun Flag */
 219:Drivers/STM32F4xx_HAL_Driver/Src/stm32f4xx_hal_rtc_ex.c ****   __HAL_RTC_TIMESTAMP_CLEAR_FLAG(hrtc, RTC_FLAG_TSOVF);
 109              		.loc 1 219 3 is_stmt 1 discriminator 2 view .LVU34
 110 004e 0268     		ldr	r2, [r0]
 111 0050 D368     		ldr	r3, [r2, #12]
 112 0052 DBB2     		uxtb	r3, r3
 113 0054 63F48453 		orn	r3, r3, #4224
 114 0058 D360     		str	r3, [r2, #12]
 220:Drivers/STM32F4xx_HAL_Driver/Src/stm32f4xx_hal_rtc_ex.c **** 
 221:Drivers/STM32F4xx_HAL_Driver/Src/stm32f4xx_hal_rtc_ex.c ****   /* Enable the Timestamp saving */
 222:Drivers/STM32F4xx_HAL_Driver/Src/stm32f4xx_hal_rtc_ex.c ****   __HAL_RTC_TIMESTAMP_ENABLE(hrtc);
 115              		.loc 1 222 3 discriminator 2 view .LVU35
 116 005a 0268     		ldr	r2, [r0]
 117 005c 9368     		ldr	r3, [r2, #8]
 118 005e 43F40063 		orr	r3, r3, #2048
 119 0062 9360     		str	r3, [r2, #8]
 223:Drivers/STM32F4xx_HAL_Driver/Src/stm32f4xx_hal_rtc_ex.c **** 
ARM GAS  /tmp/ccKeTRIy.s 			page 7


 224:Drivers/STM32F4xx_HAL_Driver/Src/stm32f4xx_hal_rtc_ex.c ****   /* Enable the write protection for RTC registers */
 225:Drivers/STM32F4xx_HAL_Driver/Src/stm32f4xx_hal_rtc_ex.c ****   __HAL_RTC_WRITEPROTECTION_ENABLE(hrtc);
 120              		.loc 1 225 3 discriminator 2 view .LVU36
 121              		.loc 1 225 3 discriminator 2 view .LVU37
 122 0064 0368     		ldr	r3, [r0]
 123 0066 FF22     		movs	r2, #255
 124 0068 5A62     		str	r2, [r3, #36]
 125              		.loc 1 225 3 discriminator 2 view .LVU38
 226:Drivers/STM32F4xx_HAL_Driver/Src/stm32f4xx_hal_rtc_ex.c **** 
 227:Drivers/STM32F4xx_HAL_Driver/Src/stm32f4xx_hal_rtc_ex.c ****   /* Change RTC state back to READY */
 228:Drivers/STM32F4xx_HAL_Driver/Src/stm32f4xx_hal_rtc_ex.c ****   hrtc->State = HAL_RTC_STATE_READY;
 126              		.loc 1 228 3 discriminator 2 view .LVU39
 127              		.loc 1 228 15 is_stmt 0 discriminator 2 view .LVU40
 128 006a 80F81DC0 		strb	ip, [r0, #29]
 229:Drivers/STM32F4xx_HAL_Driver/Src/stm32f4xx_hal_rtc_ex.c **** 
 230:Drivers/STM32F4xx_HAL_Driver/Src/stm32f4xx_hal_rtc_ex.c ****   /* Process Unlocked */
 231:Drivers/STM32F4xx_HAL_Driver/Src/stm32f4xx_hal_rtc_ex.c ****   __HAL_UNLOCK(hrtc);
 129              		.loc 1 231 3 is_stmt 1 discriminator 2 view .LVU41
 130              		.loc 1 231 3 discriminator 2 view .LVU42
 131 006e 0023     		movs	r3, #0
 132 0070 0377     		strb	r3, [r0, #28]
 133              		.loc 1 231 3 discriminator 2 view .LVU43
 232:Drivers/STM32F4xx_HAL_Driver/Src/stm32f4xx_hal_rtc_ex.c **** 
 233:Drivers/STM32F4xx_HAL_Driver/Src/stm32f4xx_hal_rtc_ex.c ****   return HAL_OK;
 134              		.loc 1 233 3 discriminator 2 view .LVU44
 135              		.loc 1 233 10 is_stmt 0 discriminator 2 view .LVU45
 136 0072 1846     		mov	r0, r3
 137              	.LVL6:
 234:Drivers/STM32F4xx_HAL_Driver/Src/stm32f4xx_hal_rtc_ex.c **** }
 138              		.loc 1 234 1 discriminator 2 view .LVU46
 139 0074 5DF8044B 		ldr	r4, [sp], #4
 140              	.LCFI1:
 141              		.cfi_restore 4
 142              		.cfi_def_cfa_offset 0
 143 0078 7047     		bx	lr
 144              	.LVL7:
 145              	.L3:
 195:Drivers/STM32F4xx_HAL_Driver/Src/stm32f4xx_hal_rtc_ex.c **** 
 146              		.loc 1 195 3 view .LVU47
 147 007a 0220     		movs	r0, #2
 148              	.LVL8:
 149              		.loc 1 234 1 view .LVU48
 150 007c 7047     		bx	lr
 151              		.cfi_endproc
 152              	.LFE130:
 154              		.section	.text.HAL_RTCEx_SetTimeStamp_IT,"ax",%progbits
 155              		.align	1
 156              		.global	HAL_RTCEx_SetTimeStamp_IT
 157              		.syntax unified
 158              		.thumb
 159              		.thumb_func
 160              		.fpu fpv4-sp-d16
 162              	HAL_RTCEx_SetTimeStamp_IT:
 163              	.LVL9:
 164              	.LFB131:
 235:Drivers/STM32F4xx_HAL_Driver/Src/stm32f4xx_hal_rtc_ex.c **** 
 236:Drivers/STM32F4xx_HAL_Driver/Src/stm32f4xx_hal_rtc_ex.c **** /**
ARM GAS  /tmp/ccKeTRIy.s 			page 8


 237:Drivers/STM32F4xx_HAL_Driver/Src/stm32f4xx_hal_rtc_ex.c ****   * @brief  Sets Timestamp with Interrupt.
 238:Drivers/STM32F4xx_HAL_Driver/Src/stm32f4xx_hal_rtc_ex.c ****   * @param  hrtc pointer to a RTC_HandleTypeDef structure that contains
 239:Drivers/STM32F4xx_HAL_Driver/Src/stm32f4xx_hal_rtc_ex.c ****   *                the configuration information for RTC.
 240:Drivers/STM32F4xx_HAL_Driver/Src/stm32f4xx_hal_rtc_ex.c ****   * @note   This API must be called before enabling the Timestamp feature.
 241:Drivers/STM32F4xx_HAL_Driver/Src/stm32f4xx_hal_rtc_ex.c ****   * @param  RTC_TimeStampEdge Specifies the pin edge on which the Timestamp is
 242:Drivers/STM32F4xx_HAL_Driver/Src/stm32f4xx_hal_rtc_ex.c ****   *         activated.
 243:Drivers/STM32F4xx_HAL_Driver/Src/stm32f4xx_hal_rtc_ex.c ****   *          This parameter can be one of the following values:
 244:Drivers/STM32F4xx_HAL_Driver/Src/stm32f4xx_hal_rtc_ex.c ****   *             @arg RTC_TIMESTAMPEDGE_RISING: the Timestamp event occurs on
 245:Drivers/STM32F4xx_HAL_Driver/Src/stm32f4xx_hal_rtc_ex.c ****   *                                        the rising edge of the related pin.
 246:Drivers/STM32F4xx_HAL_Driver/Src/stm32f4xx_hal_rtc_ex.c ****   *             @arg RTC_TIMESTAMPEDGE_FALLING: the Timestamp event occurs on
 247:Drivers/STM32F4xx_HAL_Driver/Src/stm32f4xx_hal_rtc_ex.c ****   *                                        the falling edge of the related pin.
 248:Drivers/STM32F4xx_HAL_Driver/Src/stm32f4xx_hal_rtc_ex.c ****   * @param  RTC_TimeStampPin Specifies the RTC Timestamp Pin.
 249:Drivers/STM32F4xx_HAL_Driver/Src/stm32f4xx_hal_rtc_ex.c ****   *          This parameter can be one of the following values:
 250:Drivers/STM32F4xx_HAL_Driver/Src/stm32f4xx_hal_rtc_ex.c ****   *             @arg RTC_TIMESTAMPPIN_DEFAULT: PC13 is selected as RTC Timestamp Pin.
 251:Drivers/STM32F4xx_HAL_Driver/Src/stm32f4xx_hal_rtc_ex.c ****   *             @arg RTC_TIMESTAMPPIN_POS1: PI8 is selected as RTC Timestamp Pin.
 252:Drivers/STM32F4xx_HAL_Driver/Src/stm32f4xx_hal_rtc_ex.c ****   * @note RTC_TIMESTAMPPIN_POS1 corresponds to pin PA0 in the case of
 253:Drivers/STM32F4xx_HAL_Driver/Src/stm32f4xx_hal_rtc_ex.c ****   *       STM32F446xx devices.
 254:Drivers/STM32F4xx_HAL_Driver/Src/stm32f4xx_hal_rtc_ex.c ****   * @note RTC_TIMESTAMPPIN_POS1 is not applicable to the following list of devices:
 255:Drivers/STM32F4xx_HAL_Driver/Src/stm32f4xx_hal_rtc_ex.c ****   *       STM32F412xx, STM32F413xx and STM32F423xx.
 256:Drivers/STM32F4xx_HAL_Driver/Src/stm32f4xx_hal_rtc_ex.c ****   * @retval HAL status
 257:Drivers/STM32F4xx_HAL_Driver/Src/stm32f4xx_hal_rtc_ex.c ****   */
 258:Drivers/STM32F4xx_HAL_Driver/Src/stm32f4xx_hal_rtc_ex.c **** HAL_StatusTypeDef HAL_RTCEx_SetTimeStamp_IT(RTC_HandleTypeDef *hrtc, uint32_t RTC_TimeStampEdge, ui
 259:Drivers/STM32F4xx_HAL_Driver/Src/stm32f4xx_hal_rtc_ex.c **** {
 165              		.loc 1 259 1 is_stmt 1 view -0
 166              		.cfi_startproc
 167              		@ args = 0, pretend = 0, frame = 0
 168              		@ frame_needed = 0, uses_anonymous_args = 0
 169              		@ link register save eliminated.
 260:Drivers/STM32F4xx_HAL_Driver/Src/stm32f4xx_hal_rtc_ex.c ****   uint32_t tmpreg = 0U;
 170              		.loc 1 260 3 view .LVU50
 261:Drivers/STM32F4xx_HAL_Driver/Src/stm32f4xx_hal_rtc_ex.c **** 
 262:Drivers/STM32F4xx_HAL_Driver/Src/stm32f4xx_hal_rtc_ex.c ****   /* Check the parameters */
 263:Drivers/STM32F4xx_HAL_Driver/Src/stm32f4xx_hal_rtc_ex.c ****   assert_param(IS_TIMESTAMP_EDGE(RTC_TimeStampEdge));
 171              		.loc 1 263 3 view .LVU51
 264:Drivers/STM32F4xx_HAL_Driver/Src/stm32f4xx_hal_rtc_ex.c ****   assert_param(IS_RTC_TIMESTAMP_PIN(RTC_TimeStampPin));
 172              		.loc 1 264 3 view .LVU52
 265:Drivers/STM32F4xx_HAL_Driver/Src/stm32f4xx_hal_rtc_ex.c **** 
 266:Drivers/STM32F4xx_HAL_Driver/Src/stm32f4xx_hal_rtc_ex.c ****   /* Process Locked */
 267:Drivers/STM32F4xx_HAL_Driver/Src/stm32f4xx_hal_rtc_ex.c ****   __HAL_LOCK(hrtc);
 173              		.loc 1 267 3 view .LVU53
 174              		.loc 1 267 3 view .LVU54
 175 0000 037F     		ldrb	r3, [r0, #28]	@ zero_extendqisi2
 176 0002 012B     		cmp	r3, #1
 177 0004 47D0     		beq	.L10
 259:Drivers/STM32F4xx_HAL_Driver/Src/stm32f4xx_hal_rtc_ex.c ****   uint32_t tmpreg = 0U;
 178              		.loc 1 259 1 is_stmt 0 discriminator 2 view .LVU55
 179 0006 10B4     		push	{r4}
 180              	.LCFI2:
 181              		.cfi_def_cfa_offset 4
 182              		.cfi_offset 4, -4
 183              		.loc 1 267 3 is_stmt 1 discriminator 2 view .LVU56
 184 0008 4FF0010C 		mov	ip, #1
 185 000c 80F81CC0 		strb	ip, [r0, #28]
 186              		.loc 1 267 3 discriminator 2 view .LVU57
 268:Drivers/STM32F4xx_HAL_Driver/Src/stm32f4xx_hal_rtc_ex.c **** 
 269:Drivers/STM32F4xx_HAL_Driver/Src/stm32f4xx_hal_rtc_ex.c ****   /* Change RTC state to BUSY */
 270:Drivers/STM32F4xx_HAL_Driver/Src/stm32f4xx_hal_rtc_ex.c ****   hrtc->State = HAL_RTC_STATE_BUSY;
ARM GAS  /tmp/ccKeTRIy.s 			page 9


 187              		.loc 1 270 3 discriminator 2 view .LVU58
 188              		.loc 1 270 15 is_stmt 0 discriminator 2 view .LVU59
 189 0010 0223     		movs	r3, #2
 190 0012 4377     		strb	r3, [r0, #29]
 271:Drivers/STM32F4xx_HAL_Driver/Src/stm32f4xx_hal_rtc_ex.c **** 
 272:Drivers/STM32F4xx_HAL_Driver/Src/stm32f4xx_hal_rtc_ex.c ****   hrtc->Instance->TAFCR &= (uint32_t)~RTC_TAFCR_TSINSEL;
 191              		.loc 1 272 3 is_stmt 1 discriminator 2 view .LVU60
 192              		.loc 1 272 7 is_stmt 0 discriminator 2 view .LVU61
 193 0014 0468     		ldr	r4, [r0]
 194              		.loc 1 272 25 discriminator 2 view .LVU62
 195 0016 236C     		ldr	r3, [r4, #64]
 196 0018 23F40033 		bic	r3, r3, #131072
 197 001c 2364     		str	r3, [r4, #64]
 273:Drivers/STM32F4xx_HAL_Driver/Src/stm32f4xx_hal_rtc_ex.c ****   hrtc->Instance->TAFCR |= (uint32_t)(RTC_TimeStampPin);
 198              		.loc 1 273 3 is_stmt 1 discriminator 2 view .LVU63
 199              		.loc 1 273 7 is_stmt 0 discriminator 2 view .LVU64
 200 001e 0468     		ldr	r4, [r0]
 201              		.loc 1 273 25 discriminator 2 view .LVU65
 202 0020 236C     		ldr	r3, [r4, #64]
 203 0022 1A43     		orrs	r2, r2, r3
 204              	.LVL10:
 205              		.loc 1 273 25 discriminator 2 view .LVU66
 206 0024 2264     		str	r2, [r4, #64]
 274:Drivers/STM32F4xx_HAL_Driver/Src/stm32f4xx_hal_rtc_ex.c **** 
 275:Drivers/STM32F4xx_HAL_Driver/Src/stm32f4xx_hal_rtc_ex.c ****   /* Get the RTC_CR register and clear the bits to be configured */
 276:Drivers/STM32F4xx_HAL_Driver/Src/stm32f4xx_hal_rtc_ex.c ****   tmpreg = (uint32_t)(hrtc->Instance->CR & (uint32_t)~(RTC_CR_TSEDGE | RTC_CR_TSE));
 207              		.loc 1 276 3 is_stmt 1 discriminator 2 view .LVU67
 208              		.loc 1 276 27 is_stmt 0 discriminator 2 view .LVU68
 209 0026 0468     		ldr	r4, [r0]
 210              		.loc 1 276 37 discriminator 2 view .LVU69
 211 0028 A368     		ldr	r3, [r4, #8]
 212              		.loc 1 276 10 discriminator 2 view .LVU70
 213 002a 23F40063 		bic	r3, r3, #2048
 214 002e 23F00803 		bic	r3, r3, #8
 215              	.LVL11:
 277:Drivers/STM32F4xx_HAL_Driver/Src/stm32f4xx_hal_rtc_ex.c **** 
 278:Drivers/STM32F4xx_HAL_Driver/Src/stm32f4xx_hal_rtc_ex.c ****   /* Configure the Timestamp TSEDGE bit */
 279:Drivers/STM32F4xx_HAL_Driver/Src/stm32f4xx_hal_rtc_ex.c ****   tmpreg |= RTC_TimeStampEdge;
 216              		.loc 1 279 3 is_stmt 1 discriminator 2 view .LVU71
 217              		.loc 1 279 10 is_stmt 0 discriminator 2 view .LVU72
 218 0032 0B43     		orrs	r3, r3, r1
 219              	.LVL12:
 280:Drivers/STM32F4xx_HAL_Driver/Src/stm32f4xx_hal_rtc_ex.c **** 
 281:Drivers/STM32F4xx_HAL_Driver/Src/stm32f4xx_hal_rtc_ex.c ****   /* Disable the write protection for RTC registers */
 282:Drivers/STM32F4xx_HAL_Driver/Src/stm32f4xx_hal_rtc_ex.c ****   __HAL_RTC_WRITEPROTECTION_DISABLE(hrtc);
 220              		.loc 1 282 3 is_stmt 1 discriminator 2 view .LVU73
 221              		.loc 1 282 3 discriminator 2 view .LVU74
 222 0034 CA22     		movs	r2, #202
 223 0036 6262     		str	r2, [r4, #36]
 224              		.loc 1 282 3 discriminator 2 view .LVU75
 225 0038 0268     		ldr	r2, [r0]
 226 003a 5321     		movs	r1, #83
 227              	.LVL13:
 228              		.loc 1 282 3 is_stmt 0 discriminator 2 view .LVU76
 229 003c 5162     		str	r1, [r2, #36]
 230              		.loc 1 282 3 is_stmt 1 discriminator 2 view .LVU77
 283:Drivers/STM32F4xx_HAL_Driver/Src/stm32f4xx_hal_rtc_ex.c **** 
ARM GAS  /tmp/ccKeTRIy.s 			page 10


 284:Drivers/STM32F4xx_HAL_Driver/Src/stm32f4xx_hal_rtc_ex.c ****   /* Copy the desired configuration into the CR register */
 285:Drivers/STM32F4xx_HAL_Driver/Src/stm32f4xx_hal_rtc_ex.c ****   hrtc->Instance->CR = (uint32_t)tmpreg;
 231              		.loc 1 285 3 discriminator 2 view .LVU78
 232              		.loc 1 285 7 is_stmt 0 discriminator 2 view .LVU79
 233 003e 0268     		ldr	r2, [r0]
 234              		.loc 1 285 22 discriminator 2 view .LVU80
 235 0040 9360     		str	r3, [r2, #8]
 286:Drivers/STM32F4xx_HAL_Driver/Src/stm32f4xx_hal_rtc_ex.c **** 
 287:Drivers/STM32F4xx_HAL_Driver/Src/stm32f4xx_hal_rtc_ex.c ****   /* Clear RTC Timestamp flag */
 288:Drivers/STM32F4xx_HAL_Driver/Src/stm32f4xx_hal_rtc_ex.c ****   __HAL_RTC_TIMESTAMP_CLEAR_FLAG(hrtc, RTC_FLAG_TSF);
 236              		.loc 1 288 3 is_stmt 1 discriminator 2 view .LVU81
 237 0042 0268     		ldr	r2, [r0]
 238 0044 D368     		ldr	r3, [r2, #12]
 239              	.LVL14:
 240              		.loc 1 288 3 is_stmt 0 discriminator 2 view .LVU82
 241 0046 DBB2     		uxtb	r3, r3
 242 0048 63F40863 		orn	r3, r3, #2176
 243 004c D360     		str	r3, [r2, #12]
 289:Drivers/STM32F4xx_HAL_Driver/Src/stm32f4xx_hal_rtc_ex.c **** 
 290:Drivers/STM32F4xx_HAL_Driver/Src/stm32f4xx_hal_rtc_ex.c ****   /* Clear RTC Timestamp overrun Flag */
 291:Drivers/STM32F4xx_HAL_Driver/Src/stm32f4xx_hal_rtc_ex.c ****   __HAL_RTC_TIMESTAMP_CLEAR_FLAG(hrtc, RTC_FLAG_TSOVF);
 244              		.loc 1 291 3 is_stmt 1 discriminator 2 view .LVU83
 245 004e 0268     		ldr	r2, [r0]
 246 0050 D368     		ldr	r3, [r2, #12]
 247 0052 DBB2     		uxtb	r3, r3
 248 0054 63F48453 		orn	r3, r3, #4224
 249 0058 D360     		str	r3, [r2, #12]
 292:Drivers/STM32F4xx_HAL_Driver/Src/stm32f4xx_hal_rtc_ex.c **** 
 293:Drivers/STM32F4xx_HAL_Driver/Src/stm32f4xx_hal_rtc_ex.c ****   /* Enable the Timestamp saving */
 294:Drivers/STM32F4xx_HAL_Driver/Src/stm32f4xx_hal_rtc_ex.c ****   __HAL_RTC_TIMESTAMP_ENABLE(hrtc);
 250              		.loc 1 294 3 discriminator 2 view .LVU84
 251 005a 0268     		ldr	r2, [r0]
 252 005c 9368     		ldr	r3, [r2, #8]
 253 005e 43F40063 		orr	r3, r3, #2048
 254 0062 9360     		str	r3, [r2, #8]
 295:Drivers/STM32F4xx_HAL_Driver/Src/stm32f4xx_hal_rtc_ex.c **** 
 296:Drivers/STM32F4xx_HAL_Driver/Src/stm32f4xx_hal_rtc_ex.c ****   /* Enable IT Timestamp */
 297:Drivers/STM32F4xx_HAL_Driver/Src/stm32f4xx_hal_rtc_ex.c ****   __HAL_RTC_TIMESTAMP_ENABLE_IT(hrtc, RTC_IT_TS);
 255              		.loc 1 297 3 discriminator 2 view .LVU85
 256 0064 0268     		ldr	r2, [r0]
 257 0066 9368     		ldr	r3, [r2, #8]
 258 0068 43F40043 		orr	r3, r3, #32768
 259 006c 9360     		str	r3, [r2, #8]
 298:Drivers/STM32F4xx_HAL_Driver/Src/stm32f4xx_hal_rtc_ex.c **** 
 299:Drivers/STM32F4xx_HAL_Driver/Src/stm32f4xx_hal_rtc_ex.c ****   /* Enable the write protection for RTC registers */
 300:Drivers/STM32F4xx_HAL_Driver/Src/stm32f4xx_hal_rtc_ex.c ****   __HAL_RTC_WRITEPROTECTION_ENABLE(hrtc);
 260              		.loc 1 300 3 discriminator 2 view .LVU86
 261              		.loc 1 300 3 discriminator 2 view .LVU87
 262 006e 0368     		ldr	r3, [r0]
 263 0070 FF22     		movs	r2, #255
 264 0072 5A62     		str	r2, [r3, #36]
 265              		.loc 1 300 3 discriminator 2 view .LVU88
 301:Drivers/STM32F4xx_HAL_Driver/Src/stm32f4xx_hal_rtc_ex.c **** 
 302:Drivers/STM32F4xx_HAL_Driver/Src/stm32f4xx_hal_rtc_ex.c ****   /* RTC Timestamp Interrupt Configuration: EXTI configuration */
 303:Drivers/STM32F4xx_HAL_Driver/Src/stm32f4xx_hal_rtc_ex.c ****   __HAL_RTC_TAMPER_TIMESTAMP_EXTI_ENABLE_IT();
 266              		.loc 1 303 3 discriminator 2 view .LVU89
 267 0074 094B     		ldr	r3, .L15
ARM GAS  /tmp/ccKeTRIy.s 			page 11


 268 0076 1A68     		ldr	r2, [r3]
 269 0078 42F40012 		orr	r2, r2, #2097152
 270 007c 1A60     		str	r2, [r3]
 304:Drivers/STM32F4xx_HAL_Driver/Src/stm32f4xx_hal_rtc_ex.c ****   __HAL_RTC_TAMPER_TIMESTAMP_EXTI_ENABLE_RISING_EDGE();
 271              		.loc 1 304 3 discriminator 2 view .LVU90
 272 007e 9A68     		ldr	r2, [r3, #8]
 273 0080 42F40012 		orr	r2, r2, #2097152
 274 0084 9A60     		str	r2, [r3, #8]
 305:Drivers/STM32F4xx_HAL_Driver/Src/stm32f4xx_hal_rtc_ex.c **** 
 306:Drivers/STM32F4xx_HAL_Driver/Src/stm32f4xx_hal_rtc_ex.c ****   /* Change RTC state back to READY */
 307:Drivers/STM32F4xx_HAL_Driver/Src/stm32f4xx_hal_rtc_ex.c ****   hrtc->State = HAL_RTC_STATE_READY;
 275              		.loc 1 307 3 discriminator 2 view .LVU91
 276              		.loc 1 307 15 is_stmt 0 discriminator 2 view .LVU92
 277 0086 80F81DC0 		strb	ip, [r0, #29]
 308:Drivers/STM32F4xx_HAL_Driver/Src/stm32f4xx_hal_rtc_ex.c **** 
 309:Drivers/STM32F4xx_HAL_Driver/Src/stm32f4xx_hal_rtc_ex.c ****   /* Process Unlocked */
 310:Drivers/STM32F4xx_HAL_Driver/Src/stm32f4xx_hal_rtc_ex.c ****   __HAL_UNLOCK(hrtc);
 278              		.loc 1 310 3 is_stmt 1 discriminator 2 view .LVU93
 279              		.loc 1 310 3 discriminator 2 view .LVU94
 280 008a 0023     		movs	r3, #0
 281 008c 0377     		strb	r3, [r0, #28]
 282              		.loc 1 310 3 discriminator 2 view .LVU95
 311:Drivers/STM32F4xx_HAL_Driver/Src/stm32f4xx_hal_rtc_ex.c **** 
 312:Drivers/STM32F4xx_HAL_Driver/Src/stm32f4xx_hal_rtc_ex.c ****   return HAL_OK;
 283              		.loc 1 312 3 discriminator 2 view .LVU96
 284              		.loc 1 312 10 is_stmt 0 discriminator 2 view .LVU97
 285 008e 1846     		mov	r0, r3
 286              	.LVL15:
 313:Drivers/STM32F4xx_HAL_Driver/Src/stm32f4xx_hal_rtc_ex.c **** }
 287              		.loc 1 313 1 discriminator 2 view .LVU98
 288 0090 5DF8044B 		ldr	r4, [sp], #4
 289              	.LCFI3:
 290              		.cfi_restore 4
 291              		.cfi_def_cfa_offset 0
 292 0094 7047     		bx	lr
 293              	.LVL16:
 294              	.L10:
 267:Drivers/STM32F4xx_HAL_Driver/Src/stm32f4xx_hal_rtc_ex.c **** 
 295              		.loc 1 267 3 view .LVU99
 296 0096 0220     		movs	r0, #2
 297              	.LVL17:
 298              		.loc 1 313 1 view .LVU100
 299 0098 7047     		bx	lr
 300              	.L16:
 301 009a 00BF     		.align	2
 302              	.L15:
 303 009c 003C0140 		.word	1073822720
 304              		.cfi_endproc
 305              	.LFE131:
 307              		.section	.text.HAL_RTCEx_DeactivateTimeStamp,"ax",%progbits
 308              		.align	1
 309              		.global	HAL_RTCEx_DeactivateTimeStamp
 310              		.syntax unified
 311              		.thumb
 312              		.thumb_func
 313              		.fpu fpv4-sp-d16
 315              	HAL_RTCEx_DeactivateTimeStamp:
ARM GAS  /tmp/ccKeTRIy.s 			page 12


 316              	.LVL18:
 317              	.LFB132:
 314:Drivers/STM32F4xx_HAL_Driver/Src/stm32f4xx_hal_rtc_ex.c **** 
 315:Drivers/STM32F4xx_HAL_Driver/Src/stm32f4xx_hal_rtc_ex.c **** /**
 316:Drivers/STM32F4xx_HAL_Driver/Src/stm32f4xx_hal_rtc_ex.c ****   * @brief  Deactivates Timestamp.
 317:Drivers/STM32F4xx_HAL_Driver/Src/stm32f4xx_hal_rtc_ex.c ****   * @param  hrtc pointer to a RTC_HandleTypeDef structure that contains
 318:Drivers/STM32F4xx_HAL_Driver/Src/stm32f4xx_hal_rtc_ex.c ****   *                the configuration information for RTC.
 319:Drivers/STM32F4xx_HAL_Driver/Src/stm32f4xx_hal_rtc_ex.c ****   * @retval HAL status
 320:Drivers/STM32F4xx_HAL_Driver/Src/stm32f4xx_hal_rtc_ex.c ****   */
 321:Drivers/STM32F4xx_HAL_Driver/Src/stm32f4xx_hal_rtc_ex.c **** HAL_StatusTypeDef HAL_RTCEx_DeactivateTimeStamp(RTC_HandleTypeDef *hrtc)
 322:Drivers/STM32F4xx_HAL_Driver/Src/stm32f4xx_hal_rtc_ex.c **** {
 318              		.loc 1 322 1 is_stmt 1 view -0
 319              		.cfi_startproc
 320              		@ args = 0, pretend = 0, frame = 0
 321              		@ frame_needed = 0, uses_anonymous_args = 0
 322              		@ link register save eliminated.
 323:Drivers/STM32F4xx_HAL_Driver/Src/stm32f4xx_hal_rtc_ex.c ****   uint32_t tmpreg = 0U;
 323              		.loc 1 323 3 view .LVU102
 324:Drivers/STM32F4xx_HAL_Driver/Src/stm32f4xx_hal_rtc_ex.c **** 
 325:Drivers/STM32F4xx_HAL_Driver/Src/stm32f4xx_hal_rtc_ex.c ****   /* Process Locked */
 326:Drivers/STM32F4xx_HAL_Driver/Src/stm32f4xx_hal_rtc_ex.c ****   __HAL_LOCK(hrtc);
 324              		.loc 1 326 3 view .LVU103
 325              		.loc 1 326 3 view .LVU104
 326 0000 037F     		ldrb	r3, [r0, #28]	@ zero_extendqisi2
 327 0002 012B     		cmp	r3, #1
 328 0004 1DD0     		beq	.L19
 329              		.loc 1 326 3 discriminator 2 view .LVU105
 330 0006 0122     		movs	r2, #1
 331 0008 0277     		strb	r2, [r0, #28]
 332              		.loc 1 326 3 discriminator 2 view .LVU106
 327:Drivers/STM32F4xx_HAL_Driver/Src/stm32f4xx_hal_rtc_ex.c **** 
 328:Drivers/STM32F4xx_HAL_Driver/Src/stm32f4xx_hal_rtc_ex.c ****   hrtc->State = HAL_RTC_STATE_BUSY;
 333              		.loc 1 328 3 discriminator 2 view .LVU107
 334              		.loc 1 328 15 is_stmt 0 discriminator 2 view .LVU108
 335 000a 0223     		movs	r3, #2
 336 000c 4377     		strb	r3, [r0, #29]
 329:Drivers/STM32F4xx_HAL_Driver/Src/stm32f4xx_hal_rtc_ex.c **** 
 330:Drivers/STM32F4xx_HAL_Driver/Src/stm32f4xx_hal_rtc_ex.c ****   /* Disable the write protection for RTC registers */
 331:Drivers/STM32F4xx_HAL_Driver/Src/stm32f4xx_hal_rtc_ex.c ****   __HAL_RTC_WRITEPROTECTION_DISABLE(hrtc);
 337              		.loc 1 331 3 is_stmt 1 discriminator 2 view .LVU109
 338              		.loc 1 331 3 discriminator 2 view .LVU110
 339 000e 0368     		ldr	r3, [r0]
 340 0010 CA21     		movs	r1, #202
 341 0012 5962     		str	r1, [r3, #36]
 342              		.loc 1 331 3 discriminator 2 view .LVU111
 343 0014 0368     		ldr	r3, [r0]
 344 0016 5321     		movs	r1, #83
 345 0018 5962     		str	r1, [r3, #36]
 346              		.loc 1 331 3 discriminator 2 view .LVU112
 332:Drivers/STM32F4xx_HAL_Driver/Src/stm32f4xx_hal_rtc_ex.c **** 
 333:Drivers/STM32F4xx_HAL_Driver/Src/stm32f4xx_hal_rtc_ex.c ****   /* In case of interrupt mode is used, the interrupt source must disabled */
 334:Drivers/STM32F4xx_HAL_Driver/Src/stm32f4xx_hal_rtc_ex.c ****   __HAL_RTC_TIMESTAMP_DISABLE_IT(hrtc, RTC_IT_TS);
 347              		.loc 1 334 3 discriminator 2 view .LVU113
 348 001a 0168     		ldr	r1, [r0]
 349 001c 8B68     		ldr	r3, [r1, #8]
 350 001e 23F40043 		bic	r3, r3, #32768
 351 0022 8B60     		str	r3, [r1, #8]
ARM GAS  /tmp/ccKeTRIy.s 			page 13


 335:Drivers/STM32F4xx_HAL_Driver/Src/stm32f4xx_hal_rtc_ex.c **** 
 336:Drivers/STM32F4xx_HAL_Driver/Src/stm32f4xx_hal_rtc_ex.c ****   /* Get the RTC_CR register and clear the bits to be configured */
 337:Drivers/STM32F4xx_HAL_Driver/Src/stm32f4xx_hal_rtc_ex.c ****   tmpreg = (uint32_t)(hrtc->Instance->CR & (uint32_t)~(RTC_CR_TSEDGE | RTC_CR_TSE));
 352              		.loc 1 337 3 discriminator 2 view .LVU114
 353              		.loc 1 337 27 is_stmt 0 discriminator 2 view .LVU115
 354 0024 0168     		ldr	r1, [r0]
 355              		.loc 1 337 37 discriminator 2 view .LVU116
 356 0026 8B68     		ldr	r3, [r1, #8]
 357              		.loc 1 337 10 discriminator 2 view .LVU117
 358 0028 23F40063 		bic	r3, r3, #2048
 359 002c 23F00803 		bic	r3, r3, #8
 360              	.LVL19:
 338:Drivers/STM32F4xx_HAL_Driver/Src/stm32f4xx_hal_rtc_ex.c **** 
 339:Drivers/STM32F4xx_HAL_Driver/Src/stm32f4xx_hal_rtc_ex.c ****   /* Configure the Timestamp TSEDGE and Enable bits */
 340:Drivers/STM32F4xx_HAL_Driver/Src/stm32f4xx_hal_rtc_ex.c ****   hrtc->Instance->CR = (uint32_t)tmpreg;
 361              		.loc 1 340 3 is_stmt 1 discriminator 2 view .LVU118
 362              		.loc 1 340 22 is_stmt 0 discriminator 2 view .LVU119
 363 0030 8B60     		str	r3, [r1, #8]
 341:Drivers/STM32F4xx_HAL_Driver/Src/stm32f4xx_hal_rtc_ex.c **** 
 342:Drivers/STM32F4xx_HAL_Driver/Src/stm32f4xx_hal_rtc_ex.c ****   /* Enable the write protection for RTC registers */
 343:Drivers/STM32F4xx_HAL_Driver/Src/stm32f4xx_hal_rtc_ex.c ****   __HAL_RTC_WRITEPROTECTION_ENABLE(hrtc);
 364              		.loc 1 343 3 is_stmt 1 discriminator 2 view .LVU120
 365              		.loc 1 343 3 discriminator 2 view .LVU121
 366 0032 0368     		ldr	r3, [r0]
 367              	.LVL20:
 368              		.loc 1 343 3 is_stmt 0 discriminator 2 view .LVU122
 369 0034 FF21     		movs	r1, #255
 370              	.LVL21:
 371              		.loc 1 343 3 discriminator 2 view .LVU123
 372 0036 5962     		str	r1, [r3, #36]
 373              		.loc 1 343 3 is_stmt 1 discriminator 2 view .LVU124
 344:Drivers/STM32F4xx_HAL_Driver/Src/stm32f4xx_hal_rtc_ex.c **** 
 345:Drivers/STM32F4xx_HAL_Driver/Src/stm32f4xx_hal_rtc_ex.c ****   hrtc->State = HAL_RTC_STATE_READY;
 374              		.loc 1 345 3 discriminator 2 view .LVU125
 375              		.loc 1 345 15 is_stmt 0 discriminator 2 view .LVU126
 376 0038 4277     		strb	r2, [r0, #29]
 346:Drivers/STM32F4xx_HAL_Driver/Src/stm32f4xx_hal_rtc_ex.c **** 
 347:Drivers/STM32F4xx_HAL_Driver/Src/stm32f4xx_hal_rtc_ex.c ****   /* Process Unlocked */
 348:Drivers/STM32F4xx_HAL_Driver/Src/stm32f4xx_hal_rtc_ex.c ****   __HAL_UNLOCK(hrtc);
 377              		.loc 1 348 3 is_stmt 1 discriminator 2 view .LVU127
 378              		.loc 1 348 3 discriminator 2 view .LVU128
 379 003a 0023     		movs	r3, #0
 380 003c 0377     		strb	r3, [r0, #28]
 381              		.loc 1 348 3 discriminator 2 view .LVU129
 349:Drivers/STM32F4xx_HAL_Driver/Src/stm32f4xx_hal_rtc_ex.c **** 
 350:Drivers/STM32F4xx_HAL_Driver/Src/stm32f4xx_hal_rtc_ex.c ****   return HAL_OK;
 382              		.loc 1 350 3 discriminator 2 view .LVU130
 383              		.loc 1 350 10 is_stmt 0 discriminator 2 view .LVU131
 384 003e 1846     		mov	r0, r3
 385              	.LVL22:
 386              		.loc 1 350 10 discriminator 2 view .LVU132
 387 0040 7047     		bx	lr
 388              	.LVL23:
 389              	.L19:
 326:Drivers/STM32F4xx_HAL_Driver/Src/stm32f4xx_hal_rtc_ex.c **** 
 390              		.loc 1 326 3 view .LVU133
 391 0042 0220     		movs	r0, #2
ARM GAS  /tmp/ccKeTRIy.s 			page 14


 392              	.LVL24:
 351:Drivers/STM32F4xx_HAL_Driver/Src/stm32f4xx_hal_rtc_ex.c **** }
 393              		.loc 1 351 1 view .LVU134
 394 0044 7047     		bx	lr
 395              		.cfi_endproc
 396              	.LFE132:
 398              		.section	.text.HAL_RTCEx_GetTimeStamp,"ax",%progbits
 399              		.align	1
 400              		.global	HAL_RTCEx_GetTimeStamp
 401              		.syntax unified
 402              		.thumb
 403              		.thumb_func
 404              		.fpu fpv4-sp-d16
 406              	HAL_RTCEx_GetTimeStamp:
 407              	.LVL25:
 408              	.LFB133:
 352:Drivers/STM32F4xx_HAL_Driver/Src/stm32f4xx_hal_rtc_ex.c **** 
 353:Drivers/STM32F4xx_HAL_Driver/Src/stm32f4xx_hal_rtc_ex.c **** /**
 354:Drivers/STM32F4xx_HAL_Driver/Src/stm32f4xx_hal_rtc_ex.c ****   * @brief  Gets the RTC Timestamp value.
 355:Drivers/STM32F4xx_HAL_Driver/Src/stm32f4xx_hal_rtc_ex.c ****   * @param  hrtc pointer to a RTC_HandleTypeDef structure that contains
 356:Drivers/STM32F4xx_HAL_Driver/Src/stm32f4xx_hal_rtc_ex.c ****   *                the configuration information for RTC.
 357:Drivers/STM32F4xx_HAL_Driver/Src/stm32f4xx_hal_rtc_ex.c ****   * @param  sTimeStamp Pointer to Time structure
 358:Drivers/STM32F4xx_HAL_Driver/Src/stm32f4xx_hal_rtc_ex.c ****   * @param  sTimeStampDate Pointer to Date structure
 359:Drivers/STM32F4xx_HAL_Driver/Src/stm32f4xx_hal_rtc_ex.c ****   * @param  Format specifies the format of the entered parameters.
 360:Drivers/STM32F4xx_HAL_Driver/Src/stm32f4xx_hal_rtc_ex.c ****   *          This parameter can be one of the following values:
 361:Drivers/STM32F4xx_HAL_Driver/Src/stm32f4xx_hal_rtc_ex.c ****   *             @arg RTC_FORMAT_BIN: Binary data format
 362:Drivers/STM32F4xx_HAL_Driver/Src/stm32f4xx_hal_rtc_ex.c ****   *             @arg RTC_FORMAT_BCD: BCD data format
 363:Drivers/STM32F4xx_HAL_Driver/Src/stm32f4xx_hal_rtc_ex.c ****   * @retval HAL status
 364:Drivers/STM32F4xx_HAL_Driver/Src/stm32f4xx_hal_rtc_ex.c ****   */
 365:Drivers/STM32F4xx_HAL_Driver/Src/stm32f4xx_hal_rtc_ex.c **** HAL_StatusTypeDef HAL_RTCEx_GetTimeStamp(RTC_HandleTypeDef *hrtc, RTC_TimeTypeDef *sTimeStamp, RTC_
 366:Drivers/STM32F4xx_HAL_Driver/Src/stm32f4xx_hal_rtc_ex.c **** {
 409              		.loc 1 366 1 is_stmt 1 view -0
 410              		.cfi_startproc
 411              		@ args = 0, pretend = 0, frame = 0
 412              		@ frame_needed = 0, uses_anonymous_args = 0
 413              		.loc 1 366 1 is_stmt 0 view .LVU136
 414 0000 70B5     		push	{r4, r5, r6, lr}
 415              	.LCFI4:
 416              		.cfi_def_cfa_offset 16
 417              		.cfi_offset 4, -16
 418              		.cfi_offset 5, -12
 419              		.cfi_offset 6, -8
 420              		.cfi_offset 14, -4
 421 0002 0646     		mov	r6, r0
 422 0004 0C46     		mov	r4, r1
 423 0006 1546     		mov	r5, r2
 367:Drivers/STM32F4xx_HAL_Driver/Src/stm32f4xx_hal_rtc_ex.c ****   uint32_t tmptime = 0U;
 424              		.loc 1 367 3 is_stmt 1 view .LVU137
 425              	.LVL26:
 368:Drivers/STM32F4xx_HAL_Driver/Src/stm32f4xx_hal_rtc_ex.c ****   uint32_t tmpdate = 0U;
 426              		.loc 1 368 3 view .LVU138
 369:Drivers/STM32F4xx_HAL_Driver/Src/stm32f4xx_hal_rtc_ex.c **** 
 370:Drivers/STM32F4xx_HAL_Driver/Src/stm32f4xx_hal_rtc_ex.c ****   /* Check the parameters */
 371:Drivers/STM32F4xx_HAL_Driver/Src/stm32f4xx_hal_rtc_ex.c ****   assert_param(IS_RTC_FORMAT(Format));
 427              		.loc 1 371 3 view .LVU139
 372:Drivers/STM32F4xx_HAL_Driver/Src/stm32f4xx_hal_rtc_ex.c **** 
 373:Drivers/STM32F4xx_HAL_Driver/Src/stm32f4xx_hal_rtc_ex.c ****   /* Get the Timestamp time and date registers values */
ARM GAS  /tmp/ccKeTRIy.s 			page 15


 374:Drivers/STM32F4xx_HAL_Driver/Src/stm32f4xx_hal_rtc_ex.c ****   tmptime = (uint32_t)(hrtc->Instance->TSTR & RTC_TR_RESERVED_MASK);
 428              		.loc 1 374 3 view .LVU140
 429              		.loc 1 374 28 is_stmt 0 view .LVU141
 430 0008 0168     		ldr	r1, [r0]
 431              	.LVL27:
 432              		.loc 1 374 38 view .LVU142
 433 000a 0A6B     		ldr	r2, [r1, #48]
 434              	.LVL28:
 375:Drivers/STM32F4xx_HAL_Driver/Src/stm32f4xx_hal_rtc_ex.c ****   tmpdate = (uint32_t)(hrtc->Instance->TSDR & RTC_DR_RESERVED_MASK);
 435              		.loc 1 375 3 is_stmt 1 view .LVU143
 436              		.loc 1 375 38 is_stmt 0 view .LVU144
 437 000c 496B     		ldr	r1, [r1, #52]
 438              	.LVL29:
 376:Drivers/STM32F4xx_HAL_Driver/Src/stm32f4xx_hal_rtc_ex.c **** 
 377:Drivers/STM32F4xx_HAL_Driver/Src/stm32f4xx_hal_rtc_ex.c ****   /* Fill the Time structure fields with the read parameters */
 378:Drivers/STM32F4xx_HAL_Driver/Src/stm32f4xx_hal_rtc_ex.c ****   sTimeStamp->Hours      = (uint8_t)((tmptime & (RTC_TSTR_HT  | RTC_TSTR_HU))  >> RTC_TSTR_HU_Pos);
 439              		.loc 1 378 3 is_stmt 1 view .LVU145
 440              		.loc 1 378 28 is_stmt 0 view .LVU146
 441 000e C2F30540 		ubfx	r0, r2, #16, #6
 442              	.LVL30:
 443              		.loc 1 378 26 view .LVU147
 444 0012 2070     		strb	r0, [r4]
 379:Drivers/STM32F4xx_HAL_Driver/Src/stm32f4xx_hal_rtc_ex.c ****   sTimeStamp->Minutes    = (uint8_t)((tmptime & (RTC_TSTR_MNT | RTC_TSTR_MNU)) >> RTC_TSTR_MNU_Pos)
 445              		.loc 1 379 3 is_stmt 1 view .LVU148
 446              		.loc 1 379 28 is_stmt 0 view .LVU149
 447 0014 C2F30620 		ubfx	r0, r2, #8, #7
 448              		.loc 1 379 26 view .LVU150
 449 0018 6070     		strb	r0, [r4, #1]
 380:Drivers/STM32F4xx_HAL_Driver/Src/stm32f4xx_hal_rtc_ex.c ****   sTimeStamp->Seconds    = (uint8_t)((tmptime & (RTC_TSTR_ST  | RTC_TSTR_SU))  >> RTC_TSTR_SU_Pos);
 450              		.loc 1 380 3 is_stmt 1 view .LVU151
 451              		.loc 1 380 28 is_stmt 0 view .LVU152
 452 001a 02F07F00 		and	r0, r2, #127
 453              		.loc 1 380 26 view .LVU153
 454 001e A070     		strb	r0, [r4, #2]
 381:Drivers/STM32F4xx_HAL_Driver/Src/stm32f4xx_hal_rtc_ex.c ****   sTimeStamp->TimeFormat = (uint8_t)((tmptime & (RTC_TSTR_PM))                 >> RTC_TSTR_PM_Pos);
 455              		.loc 1 381 3 is_stmt 1 view .LVU154
 456              		.loc 1 381 28 is_stmt 0 view .LVU155
 457 0020 C2F38052 		ubfx	r2, r2, #22, #1
 458              	.LVL31:
 459              		.loc 1 381 26 view .LVU156
 460 0024 E270     		strb	r2, [r4, #3]
 382:Drivers/STM32F4xx_HAL_Driver/Src/stm32f4xx_hal_rtc_ex.c ****   sTimeStamp->SubSeconds = (uint32_t) hrtc->Instance->TSSSR;
 461              		.loc 1 382 3 is_stmt 1 view .LVU157
 462              		.loc 1 382 43 is_stmt 0 view .LVU158
 463 0026 3268     		ldr	r2, [r6]
 464              		.loc 1 382 53 view .LVU159
 465 0028 926B     		ldr	r2, [r2, #56]
 466              		.loc 1 382 26 view .LVU160
 467 002a 6260     		str	r2, [r4, #4]
 383:Drivers/STM32F4xx_HAL_Driver/Src/stm32f4xx_hal_rtc_ex.c **** 
 384:Drivers/STM32F4xx_HAL_Driver/Src/stm32f4xx_hal_rtc_ex.c ****   /* Fill the Date structure fields with the read parameters */
 385:Drivers/STM32F4xx_HAL_Driver/Src/stm32f4xx_hal_rtc_ex.c ****   sTimeStampDate->Year    = 0U;
 468              		.loc 1 385 3 is_stmt 1 view .LVU161
 469              		.loc 1 385 27 is_stmt 0 view .LVU162
 470 002c 0022     		movs	r2, #0
 471 002e EA70     		strb	r2, [r5, #3]
 386:Drivers/STM32F4xx_HAL_Driver/Src/stm32f4xx_hal_rtc_ex.c ****   sTimeStampDate->Month   = (uint8_t)((tmpdate & (RTC_TSDR_MT | RTC_TSDR_MU)) >> RTC_TSDR_MU_Pos);
ARM GAS  /tmp/ccKeTRIy.s 			page 16


 472              		.loc 1 386 3 is_stmt 1 view .LVU163
 473              		.loc 1 386 29 is_stmt 0 view .LVU164
 474 0030 C1F30422 		ubfx	r2, r1, #8, #5
 475              		.loc 1 386 27 view .LVU165
 476 0034 6A70     		strb	r2, [r5, #1]
 387:Drivers/STM32F4xx_HAL_Driver/Src/stm32f4xx_hal_rtc_ex.c ****   sTimeStampDate->Date    = (uint8_t)((tmpdate & (RTC_TSDR_DT | RTC_TSDR_DU)) >> RTC_TSDR_DU_Pos);
 477              		.loc 1 387 3 is_stmt 1 view .LVU166
 478              		.loc 1 387 29 is_stmt 0 view .LVU167
 479 0036 01F03F02 		and	r2, r1, #63
 480              		.loc 1 387 27 view .LVU168
 481 003a AA70     		strb	r2, [r5, #2]
 388:Drivers/STM32F4xx_HAL_Driver/Src/stm32f4xx_hal_rtc_ex.c ****   sTimeStampDate->WeekDay = (uint8_t)((tmpdate & (RTC_TSDR_WDU))              >> RTC_TSDR_WDU_Pos);
 482              		.loc 1 388 3 is_stmt 1 view .LVU169
 483              		.loc 1 388 29 is_stmt 0 view .LVU170
 484 003c C1F34231 		ubfx	r1, r1, #13, #3
 485              	.LVL32:
 486              		.loc 1 388 27 view .LVU171
 487 0040 2970     		strb	r1, [r5]
 389:Drivers/STM32F4xx_HAL_Driver/Src/stm32f4xx_hal_rtc_ex.c **** 
 390:Drivers/STM32F4xx_HAL_Driver/Src/stm32f4xx_hal_rtc_ex.c ****   /* Check the input parameters format */
 391:Drivers/STM32F4xx_HAL_Driver/Src/stm32f4xx_hal_rtc_ex.c ****   if (Format == RTC_FORMAT_BIN)
 488              		.loc 1 391 3 is_stmt 1 view .LVU172
 489              		.loc 1 391 6 is_stmt 0 view .LVU173
 490 0042 3BB1     		cbz	r3, .L23
 491              	.LVL33:
 492              	.L21:
 392:Drivers/STM32F4xx_HAL_Driver/Src/stm32f4xx_hal_rtc_ex.c ****   {
 393:Drivers/STM32F4xx_HAL_Driver/Src/stm32f4xx_hal_rtc_ex.c ****     /* Convert the Timestamp structure parameters to Binary format */
 394:Drivers/STM32F4xx_HAL_Driver/Src/stm32f4xx_hal_rtc_ex.c ****     sTimeStamp->Hours   = (uint8_t)RTC_Bcd2ToByte(sTimeStamp->Hours);
 395:Drivers/STM32F4xx_HAL_Driver/Src/stm32f4xx_hal_rtc_ex.c ****     sTimeStamp->Minutes = (uint8_t)RTC_Bcd2ToByte(sTimeStamp->Minutes);
 396:Drivers/STM32F4xx_HAL_Driver/Src/stm32f4xx_hal_rtc_ex.c ****     sTimeStamp->Seconds = (uint8_t)RTC_Bcd2ToByte(sTimeStamp->Seconds);
 397:Drivers/STM32F4xx_HAL_Driver/Src/stm32f4xx_hal_rtc_ex.c **** 
 398:Drivers/STM32F4xx_HAL_Driver/Src/stm32f4xx_hal_rtc_ex.c ****     /* Convert the DateTimeStamp structure parameters to Binary format */
 399:Drivers/STM32F4xx_HAL_Driver/Src/stm32f4xx_hal_rtc_ex.c ****     sTimeStampDate->Month   = (uint8_t)RTC_Bcd2ToByte(sTimeStampDate->Month);
 400:Drivers/STM32F4xx_HAL_Driver/Src/stm32f4xx_hal_rtc_ex.c ****     sTimeStampDate->Date    = (uint8_t)RTC_Bcd2ToByte(sTimeStampDate->Date);
 401:Drivers/STM32F4xx_HAL_Driver/Src/stm32f4xx_hal_rtc_ex.c ****     sTimeStampDate->WeekDay = (uint8_t)RTC_Bcd2ToByte(sTimeStampDate->WeekDay);
 402:Drivers/STM32F4xx_HAL_Driver/Src/stm32f4xx_hal_rtc_ex.c ****   }
 403:Drivers/STM32F4xx_HAL_Driver/Src/stm32f4xx_hal_rtc_ex.c **** 
 404:Drivers/STM32F4xx_HAL_Driver/Src/stm32f4xx_hal_rtc_ex.c ****   /* Clear the Timestamp Flag */
 405:Drivers/STM32F4xx_HAL_Driver/Src/stm32f4xx_hal_rtc_ex.c ****   __HAL_RTC_TIMESTAMP_CLEAR_FLAG(hrtc, RTC_FLAG_TSF);
 493              		.loc 1 405 3 is_stmt 1 view .LVU174
 494 0044 3268     		ldr	r2, [r6]
 495 0046 D368     		ldr	r3, [r2, #12]
 496 0048 DBB2     		uxtb	r3, r3
 497 004a 63F40863 		orn	r3, r3, #2176
 498 004e D360     		str	r3, [r2, #12]
 406:Drivers/STM32F4xx_HAL_Driver/Src/stm32f4xx_hal_rtc_ex.c **** 
 407:Drivers/STM32F4xx_HAL_Driver/Src/stm32f4xx_hal_rtc_ex.c ****   return HAL_OK;
 499              		.loc 1 407 3 view .LVU175
 408:Drivers/STM32F4xx_HAL_Driver/Src/stm32f4xx_hal_rtc_ex.c **** }
 500              		.loc 1 408 1 is_stmt 0 view .LVU176
 501 0050 0020     		movs	r0, #0
 502 0052 70BD     		pop	{r4, r5, r6, pc}
 503              	.LVL34:
 504              	.L23:
 394:Drivers/STM32F4xx_HAL_Driver/Src/stm32f4xx_hal_rtc_ex.c ****     sTimeStamp->Minutes = (uint8_t)RTC_Bcd2ToByte(sTimeStamp->Minutes);
 505              		.loc 1 394 5 is_stmt 1 view .LVU177
ARM GAS  /tmp/ccKeTRIy.s 			page 17


 394:Drivers/STM32F4xx_HAL_Driver/Src/stm32f4xx_hal_rtc_ex.c ****     sTimeStamp->Minutes = (uint8_t)RTC_Bcd2ToByte(sTimeStamp->Minutes);
 506              		.loc 1 394 36 is_stmt 0 view .LVU178
 507 0054 2078     		ldrb	r0, [r4]	@ zero_extendqisi2
 508 0056 FFF7FEFF 		bl	RTC_Bcd2ToByte
 509              	.LVL35:
 394:Drivers/STM32F4xx_HAL_Driver/Src/stm32f4xx_hal_rtc_ex.c ****     sTimeStamp->Minutes = (uint8_t)RTC_Bcd2ToByte(sTimeStamp->Minutes);
 510              		.loc 1 394 25 view .LVU179
 511 005a 2070     		strb	r0, [r4]
 395:Drivers/STM32F4xx_HAL_Driver/Src/stm32f4xx_hal_rtc_ex.c ****     sTimeStamp->Seconds = (uint8_t)RTC_Bcd2ToByte(sTimeStamp->Seconds);
 512              		.loc 1 395 5 is_stmt 1 view .LVU180
 395:Drivers/STM32F4xx_HAL_Driver/Src/stm32f4xx_hal_rtc_ex.c ****     sTimeStamp->Seconds = (uint8_t)RTC_Bcd2ToByte(sTimeStamp->Seconds);
 513              		.loc 1 395 36 is_stmt 0 view .LVU181
 514 005c 6078     		ldrb	r0, [r4, #1]	@ zero_extendqisi2
 515 005e FFF7FEFF 		bl	RTC_Bcd2ToByte
 516              	.LVL36:
 395:Drivers/STM32F4xx_HAL_Driver/Src/stm32f4xx_hal_rtc_ex.c ****     sTimeStamp->Seconds = (uint8_t)RTC_Bcd2ToByte(sTimeStamp->Seconds);
 517              		.loc 1 395 25 view .LVU182
 518 0062 6070     		strb	r0, [r4, #1]
 396:Drivers/STM32F4xx_HAL_Driver/Src/stm32f4xx_hal_rtc_ex.c **** 
 519              		.loc 1 396 5 is_stmt 1 view .LVU183
 396:Drivers/STM32F4xx_HAL_Driver/Src/stm32f4xx_hal_rtc_ex.c **** 
 520              		.loc 1 396 36 is_stmt 0 view .LVU184
 521 0064 A078     		ldrb	r0, [r4, #2]	@ zero_extendqisi2
 522 0066 FFF7FEFF 		bl	RTC_Bcd2ToByte
 523              	.LVL37:
 396:Drivers/STM32F4xx_HAL_Driver/Src/stm32f4xx_hal_rtc_ex.c **** 
 524              		.loc 1 396 25 view .LVU185
 525 006a A070     		strb	r0, [r4, #2]
 399:Drivers/STM32F4xx_HAL_Driver/Src/stm32f4xx_hal_rtc_ex.c ****     sTimeStampDate->Date    = (uint8_t)RTC_Bcd2ToByte(sTimeStampDate->Date);
 526              		.loc 1 399 5 is_stmt 1 view .LVU186
 399:Drivers/STM32F4xx_HAL_Driver/Src/stm32f4xx_hal_rtc_ex.c ****     sTimeStampDate->Date    = (uint8_t)RTC_Bcd2ToByte(sTimeStampDate->Date);
 527              		.loc 1 399 40 is_stmt 0 view .LVU187
 528 006c 6878     		ldrb	r0, [r5, #1]	@ zero_extendqisi2
 529 006e FFF7FEFF 		bl	RTC_Bcd2ToByte
 530              	.LVL38:
 399:Drivers/STM32F4xx_HAL_Driver/Src/stm32f4xx_hal_rtc_ex.c ****     sTimeStampDate->Date    = (uint8_t)RTC_Bcd2ToByte(sTimeStampDate->Date);
 531              		.loc 1 399 29 view .LVU188
 532 0072 6870     		strb	r0, [r5, #1]
 400:Drivers/STM32F4xx_HAL_Driver/Src/stm32f4xx_hal_rtc_ex.c ****     sTimeStampDate->WeekDay = (uint8_t)RTC_Bcd2ToByte(sTimeStampDate->WeekDay);
 533              		.loc 1 400 5 is_stmt 1 view .LVU189
 400:Drivers/STM32F4xx_HAL_Driver/Src/stm32f4xx_hal_rtc_ex.c ****     sTimeStampDate->WeekDay = (uint8_t)RTC_Bcd2ToByte(sTimeStampDate->WeekDay);
 534              		.loc 1 400 40 is_stmt 0 view .LVU190
 535 0074 A878     		ldrb	r0, [r5, #2]	@ zero_extendqisi2
 536 0076 FFF7FEFF 		bl	RTC_Bcd2ToByte
 537              	.LVL39:
 400:Drivers/STM32F4xx_HAL_Driver/Src/stm32f4xx_hal_rtc_ex.c ****     sTimeStampDate->WeekDay = (uint8_t)RTC_Bcd2ToByte(sTimeStampDate->WeekDay);
 538              		.loc 1 400 29 view .LVU191
 539 007a A870     		strb	r0, [r5, #2]
 401:Drivers/STM32F4xx_HAL_Driver/Src/stm32f4xx_hal_rtc_ex.c ****   }
 540              		.loc 1 401 5 is_stmt 1 view .LVU192
 401:Drivers/STM32F4xx_HAL_Driver/Src/stm32f4xx_hal_rtc_ex.c ****   }
 541              		.loc 1 401 40 is_stmt 0 view .LVU193
 542 007c 2878     		ldrb	r0, [r5]	@ zero_extendqisi2
 543 007e FFF7FEFF 		bl	RTC_Bcd2ToByte
 544              	.LVL40:
 401:Drivers/STM32F4xx_HAL_Driver/Src/stm32f4xx_hal_rtc_ex.c ****   }
 545              		.loc 1 401 29 view .LVU194
ARM GAS  /tmp/ccKeTRIy.s 			page 18


 546 0082 2870     		strb	r0, [r5]
 547 0084 DEE7     		b	.L21
 548              		.cfi_endproc
 549              	.LFE133:
 551              		.section	.text.HAL_RTCEx_SetTamper,"ax",%progbits
 552              		.align	1
 553              		.global	HAL_RTCEx_SetTamper
 554              		.syntax unified
 555              		.thumb
 556              		.thumb_func
 557              		.fpu fpv4-sp-d16
 559              	HAL_RTCEx_SetTamper:
 560              	.LVL41:
 561              	.LFB134:
 409:Drivers/STM32F4xx_HAL_Driver/Src/stm32f4xx_hal_rtc_ex.c **** 
 410:Drivers/STM32F4xx_HAL_Driver/Src/stm32f4xx_hal_rtc_ex.c **** /**
 411:Drivers/STM32F4xx_HAL_Driver/Src/stm32f4xx_hal_rtc_ex.c ****   * @brief  Sets Tamper.
 412:Drivers/STM32F4xx_HAL_Driver/Src/stm32f4xx_hal_rtc_ex.c ****   * @note   By calling this API the tamper global interrupt will be disabled.
 413:Drivers/STM32F4xx_HAL_Driver/Src/stm32f4xx_hal_rtc_ex.c ****   * @param  hrtc pointer to a RTC_HandleTypeDef structure that contains
 414:Drivers/STM32F4xx_HAL_Driver/Src/stm32f4xx_hal_rtc_ex.c ****   *                the configuration information for RTC.
 415:Drivers/STM32F4xx_HAL_Driver/Src/stm32f4xx_hal_rtc_ex.c ****   * @param  sTamper Pointer to Tamper Structure.
 416:Drivers/STM32F4xx_HAL_Driver/Src/stm32f4xx_hal_rtc_ex.c ****   * @retval HAL status
 417:Drivers/STM32F4xx_HAL_Driver/Src/stm32f4xx_hal_rtc_ex.c ****   */
 418:Drivers/STM32F4xx_HAL_Driver/Src/stm32f4xx_hal_rtc_ex.c **** HAL_StatusTypeDef HAL_RTCEx_SetTamper(RTC_HandleTypeDef *hrtc, RTC_TamperTypeDef *sTamper)
 419:Drivers/STM32F4xx_HAL_Driver/Src/stm32f4xx_hal_rtc_ex.c **** {
 562              		.loc 1 419 1 is_stmt 1 view -0
 563              		.cfi_startproc
 564              		@ args = 0, pretend = 0, frame = 0
 565              		@ frame_needed = 0, uses_anonymous_args = 0
 566              		@ link register save eliminated.
 420:Drivers/STM32F4xx_HAL_Driver/Src/stm32f4xx_hal_rtc_ex.c ****   uint32_t tmpreg = 0U;
 567              		.loc 1 420 3 view .LVU196
 421:Drivers/STM32F4xx_HAL_Driver/Src/stm32f4xx_hal_rtc_ex.c **** 
 422:Drivers/STM32F4xx_HAL_Driver/Src/stm32f4xx_hal_rtc_ex.c ****   /* Check the parameters */
 423:Drivers/STM32F4xx_HAL_Driver/Src/stm32f4xx_hal_rtc_ex.c ****   assert_param(IS_RTC_TAMPER(sTamper->Tamper));
 568              		.loc 1 423 3 view .LVU197
 424:Drivers/STM32F4xx_HAL_Driver/Src/stm32f4xx_hal_rtc_ex.c ****   assert_param(IS_RTC_TAMPER_PIN(sTamper->PinSelection));
 569              		.loc 1 424 3 view .LVU198
 425:Drivers/STM32F4xx_HAL_Driver/Src/stm32f4xx_hal_rtc_ex.c ****   assert_param(IS_RTC_TAMPER_TRIGGER(sTamper->Trigger));
 570              		.loc 1 425 3 view .LVU199
 426:Drivers/STM32F4xx_HAL_Driver/Src/stm32f4xx_hal_rtc_ex.c ****   assert_param(IS_RTC_TAMPER_FILTER(sTamper->Filter));
 571              		.loc 1 426 3 view .LVU200
 427:Drivers/STM32F4xx_HAL_Driver/Src/stm32f4xx_hal_rtc_ex.c ****   assert_param(IS_RTC_TAMPER_FILTER_CONFIG_CORRECT(sTamper->Filter, sTamper->Trigger));
 572              		.loc 1 427 3 view .LVU201
 428:Drivers/STM32F4xx_HAL_Driver/Src/stm32f4xx_hal_rtc_ex.c ****   assert_param(IS_RTC_TAMPER_SAMPLING_FREQ(sTamper->SamplingFrequency));
 573              		.loc 1 428 3 view .LVU202
 429:Drivers/STM32F4xx_HAL_Driver/Src/stm32f4xx_hal_rtc_ex.c ****   assert_param(IS_RTC_TAMPER_PRECHARGE_DURATION(sTamper->PrechargeDuration));
 574              		.loc 1 429 3 view .LVU203
 430:Drivers/STM32F4xx_HAL_Driver/Src/stm32f4xx_hal_rtc_ex.c ****   assert_param(IS_RTC_TAMPER_PULLUP_STATE(sTamper->TamperPullUp));
 575              		.loc 1 430 3 view .LVU204
 431:Drivers/STM32F4xx_HAL_Driver/Src/stm32f4xx_hal_rtc_ex.c ****   assert_param(IS_RTC_TAMPER_TIMESTAMPONTAMPER_DETECTION(sTamper->TimeStampOnTamperDetection));
 576              		.loc 1 431 3 view .LVU205
 432:Drivers/STM32F4xx_HAL_Driver/Src/stm32f4xx_hal_rtc_ex.c **** 
 433:Drivers/STM32F4xx_HAL_Driver/Src/stm32f4xx_hal_rtc_ex.c ****   /* Process Locked */
 434:Drivers/STM32F4xx_HAL_Driver/Src/stm32f4xx_hal_rtc_ex.c ****   __HAL_LOCK(hrtc);
 577              		.loc 1 434 3 view .LVU206
 578              		.loc 1 434 3 view .LVU207
ARM GAS  /tmp/ccKeTRIy.s 			page 19


 579 0000 037F     		ldrb	r3, [r0, #28]	@ zero_extendqisi2
 580 0002 012B     		cmp	r3, #1
 581 0004 2AD0     		beq	.L28
 419:Drivers/STM32F4xx_HAL_Driver/Src/stm32f4xx_hal_rtc_ex.c ****   uint32_t tmpreg = 0U;
 582              		.loc 1 419 1 is_stmt 0 discriminator 2 view .LVU208
 583 0006 30B4     		push	{r4, r5}
 584              	.LCFI5:
 585              		.cfi_def_cfa_offset 8
 586              		.cfi_offset 4, -8
 587              		.cfi_offset 5, -4
 588              		.loc 1 434 3 is_stmt 1 discriminator 2 view .LVU209
 589 0008 0123     		movs	r3, #1
 590 000a 0377     		strb	r3, [r0, #28]
 591              		.loc 1 434 3 discriminator 2 view .LVU210
 435:Drivers/STM32F4xx_HAL_Driver/Src/stm32f4xx_hal_rtc_ex.c **** 
 436:Drivers/STM32F4xx_HAL_Driver/Src/stm32f4xx_hal_rtc_ex.c ****   hrtc->State = HAL_RTC_STATE_BUSY;
 592              		.loc 1 436 3 discriminator 2 view .LVU211
 593              		.loc 1 436 15 is_stmt 0 discriminator 2 view .LVU212
 594 000c 0223     		movs	r3, #2
 595 000e 4377     		strb	r3, [r0, #29]
 437:Drivers/STM32F4xx_HAL_Driver/Src/stm32f4xx_hal_rtc_ex.c **** 
 438:Drivers/STM32F4xx_HAL_Driver/Src/stm32f4xx_hal_rtc_ex.c ****   /* Copy control register into temporary variable */
 439:Drivers/STM32F4xx_HAL_Driver/Src/stm32f4xx_hal_rtc_ex.c ****   tmpreg = hrtc->Instance->TAFCR;
 596              		.loc 1 439 3 is_stmt 1 discriminator 2 view .LVU213
 597              		.loc 1 439 16 is_stmt 0 discriminator 2 view .LVU214
 598 0010 0468     		ldr	r4, [r0]
 599              		.loc 1 439 10 discriminator 2 view .LVU215
 600 0012 226C     		ldr	r2, [r4, #64]
 601              	.LVL42:
 440:Drivers/STM32F4xx_HAL_Driver/Src/stm32f4xx_hal_rtc_ex.c **** 
 441:Drivers/STM32F4xx_HAL_Driver/Src/stm32f4xx_hal_rtc_ex.c ****   /* Enable selected tamper */
 442:Drivers/STM32F4xx_HAL_Driver/Src/stm32f4xx_hal_rtc_ex.c ****   tmpreg |= (sTamper->Tamper);
 602              		.loc 1 442 3 is_stmt 1 discriminator 2 view .LVU216
 603              		.loc 1 442 21 is_stmt 0 discriminator 2 view .LVU217
 604 0014 0B68     		ldr	r3, [r1]
 605              		.loc 1 442 10 discriminator 2 view .LVU218
 606 0016 1A43     		orrs	r2, r2, r3
 607              	.LVL43:
 443:Drivers/STM32F4xx_HAL_Driver/Src/stm32f4xx_hal_rtc_ex.c **** 
 444:Drivers/STM32F4xx_HAL_Driver/Src/stm32f4xx_hal_rtc_ex.c ****   /* Configure the tamper trigger bit (this bit is just on the right of the
 445:Drivers/STM32F4xx_HAL_Driver/Src/stm32f4xx_hal_rtc_ex.c ****        tamper enable bit, hence the one-time right shift before updating it) */
 446:Drivers/STM32F4xx_HAL_Driver/Src/stm32f4xx_hal_rtc_ex.c ****   if (sTamper->Trigger == RTC_TAMPERTRIGGER_FALLINGEDGE)
 608              		.loc 1 446 3 is_stmt 1 discriminator 2 view .LVU219
 609              		.loc 1 446 6 is_stmt 0 discriminator 2 view .LVU220
 610 0018 8D68     		ldr	r5, [r1, #8]
 611 001a 022D     		cmp	r5, #2
 612 001c 1BD0     		beq	.L33
 447:Drivers/STM32F4xx_HAL_Driver/Src/stm32f4xx_hal_rtc_ex.c ****   {
 448:Drivers/STM32F4xx_HAL_Driver/Src/stm32f4xx_hal_rtc_ex.c ****     /* Set the tamper trigger bit (case of falling edge or high level) */
 449:Drivers/STM32F4xx_HAL_Driver/Src/stm32f4xx_hal_rtc_ex.c ****     tmpreg |= (uint32_t)(sTamper->Tamper << 1U);
 450:Drivers/STM32F4xx_HAL_Driver/Src/stm32f4xx_hal_rtc_ex.c ****   }
 451:Drivers/STM32F4xx_HAL_Driver/Src/stm32f4xx_hal_rtc_ex.c ****   else
 452:Drivers/STM32F4xx_HAL_Driver/Src/stm32f4xx_hal_rtc_ex.c ****   {
 453:Drivers/STM32F4xx_HAL_Driver/Src/stm32f4xx_hal_rtc_ex.c ****     /* Clear the tamper trigger bit (case of rising edge or low level) */
 454:Drivers/STM32F4xx_HAL_Driver/Src/stm32f4xx_hal_rtc_ex.c ****     tmpreg &= (uint32_t)~(sTamper->Tamper << 1U);
 613              		.loc 1 454 5 is_stmt 1 view .LVU221
 614              		.loc 1 454 12 is_stmt 0 view .LVU222
ARM GAS  /tmp/ccKeTRIy.s 			page 20


 615 001e 22EA4303 		bic	r3, r2, r3, lsl #1
 616              	.LVL44:
 617              	.L27:
 455:Drivers/STM32F4xx_HAL_Driver/Src/stm32f4xx_hal_rtc_ex.c ****   }
 456:Drivers/STM32F4xx_HAL_Driver/Src/stm32f4xx_hal_rtc_ex.c **** 
 457:Drivers/STM32F4xx_HAL_Driver/Src/stm32f4xx_hal_rtc_ex.c ****   /* Clear remaining fields before setting them */
 458:Drivers/STM32F4xx_HAL_Driver/Src/stm32f4xx_hal_rtc_ex.c ****   tmpreg &= ~(RTC_TAMPERFILTER_MASK              | \
 618              		.loc 1 458 3 is_stmt 1 view .LVU223
 619              		.loc 1 458 10 is_stmt 0 view .LVU224
 620 0022 23F4FF32 		bic	r2, r3, #130560
 621 0026 22F4C072 		bic	r2, r2, #384
 622              	.LVL45:
 459:Drivers/STM32F4xx_HAL_Driver/Src/stm32f4xx_hal_rtc_ex.c ****               RTC_TAMPERSAMPLINGFREQ_RTCCLK_MASK | \
 460:Drivers/STM32F4xx_HAL_Driver/Src/stm32f4xx_hal_rtc_ex.c ****               RTC_TAMPERPRECHARGEDURATION_MASK   | \
 461:Drivers/STM32F4xx_HAL_Driver/Src/stm32f4xx_hal_rtc_ex.c ****               RTC_TAMPER_PULLUP_MASK             | \
 462:Drivers/STM32F4xx_HAL_Driver/Src/stm32f4xx_hal_rtc_ex.c ****               RTC_TAFCR_TAMP1INSEL               | \
 463:Drivers/STM32F4xx_HAL_Driver/Src/stm32f4xx_hal_rtc_ex.c ****               RTC_TIMESTAMPONTAMPERDETECTION_MASK);
 464:Drivers/STM32F4xx_HAL_Driver/Src/stm32f4xx_hal_rtc_ex.c **** 
 465:Drivers/STM32F4xx_HAL_Driver/Src/stm32f4xx_hal_rtc_ex.c ****   /* Set remaining parameters of desired configuration into temporary variable */
 466:Drivers/STM32F4xx_HAL_Driver/Src/stm32f4xx_hal_rtc_ex.c ****   tmpreg |= ((uint32_t)sTamper->Filter            | \
 623              		.loc 1 466 3 is_stmt 1 view .LVU225
 624              		.loc 1 466 31 is_stmt 0 view .LVU226
 625 002a CB68     		ldr	r3, [r1, #12]
 626              		.loc 1 466 51 view .LVU227
 627 002c 0D69     		ldr	r5, [r1, #16]
 628 002e 2B43     		orrs	r3, r3, r5
 467:Drivers/STM32F4xx_HAL_Driver/Src/stm32f4xx_hal_rtc_ex.c ****              (uint32_t)sTamper->SamplingFrequency | \
 629              		.loc 1 467 51 view .LVU228
 630 0030 4D69     		ldr	r5, [r1, #20]
 631 0032 2B43     		orrs	r3, r3, r5
 468:Drivers/STM32F4xx_HAL_Driver/Src/stm32f4xx_hal_rtc_ex.c ****              (uint32_t)sTamper->PrechargeDuration | \
 632              		.loc 1 468 51 view .LVU229
 633 0034 8D69     		ldr	r5, [r1, #24]
 634 0036 2B43     		orrs	r3, r3, r5
 469:Drivers/STM32F4xx_HAL_Driver/Src/stm32f4xx_hal_rtc_ex.c ****              (uint32_t)sTamper->TamperPullUp      | \
 635              		.loc 1 469 51 view .LVU230
 636 0038 4D68     		ldr	r5, [r1, #4]
 637 003a 2B43     		orrs	r3, r3, r5
 470:Drivers/STM32F4xx_HAL_Driver/Src/stm32f4xx_hal_rtc_ex.c ****              (uint32_t)sTamper->PinSelection      | \
 471:Drivers/STM32F4xx_HAL_Driver/Src/stm32f4xx_hal_rtc_ex.c ****              (uint32_t)sTamper->TimeStampOnTamperDetection);
 638              		.loc 1 471 31 view .LVU231
 639 003c C969     		ldr	r1, [r1, #28]
 640              	.LVL46:
 470:Drivers/STM32F4xx_HAL_Driver/Src/stm32f4xx_hal_rtc_ex.c ****              (uint32_t)sTamper->PinSelection      | \
 641              		.loc 1 470 51 view .LVU232
 642 003e 0B43     		orrs	r3, r3, r1
 466:Drivers/STM32F4xx_HAL_Driver/Src/stm32f4xx_hal_rtc_ex.c ****              (uint32_t)sTamper->SamplingFrequency | \
 643              		.loc 1 466 10 view .LVU233
 644 0040 1343     		orrs	r3, r3, r2
 645              	.LVL47:
 472:Drivers/STM32F4xx_HAL_Driver/Src/stm32f4xx_hal_rtc_ex.c **** 
 473:Drivers/STM32F4xx_HAL_Driver/Src/stm32f4xx_hal_rtc_ex.c ****   /* Disable tamper global interrupt in case it is enabled */
 474:Drivers/STM32F4xx_HAL_Driver/Src/stm32f4xx_hal_rtc_ex.c ****   tmpreg &= (uint32_t)~RTC_TAFCR_TAMPIE;
 646              		.loc 1 474 3 is_stmt 1 view .LVU234
 647              		.loc 1 474 10 is_stmt 0 view .LVU235
 648 0042 23F00403 		bic	r3, r3, #4
 649              	.LVL48:
ARM GAS  /tmp/ccKeTRIy.s 			page 21


 475:Drivers/STM32F4xx_HAL_Driver/Src/stm32f4xx_hal_rtc_ex.c **** 
 476:Drivers/STM32F4xx_HAL_Driver/Src/stm32f4xx_hal_rtc_ex.c ****   /* Copy desired configuration into configuration register */
 477:Drivers/STM32F4xx_HAL_Driver/Src/stm32f4xx_hal_rtc_ex.c ****   hrtc->Instance->TAFCR = tmpreg;
 650              		.loc 1 477 3 is_stmt 1 view .LVU236
 651              		.loc 1 477 25 is_stmt 0 view .LVU237
 652 0046 2364     		str	r3, [r4, #64]
 478:Drivers/STM32F4xx_HAL_Driver/Src/stm32f4xx_hal_rtc_ex.c **** 
 479:Drivers/STM32F4xx_HAL_Driver/Src/stm32f4xx_hal_rtc_ex.c ****   hrtc->State = HAL_RTC_STATE_READY;
 653              		.loc 1 479 3 is_stmt 1 view .LVU238
 654              		.loc 1 479 15 is_stmt 0 view .LVU239
 655 0048 0123     		movs	r3, #1
 656              	.LVL49:
 657              		.loc 1 479 15 view .LVU240
 658 004a 4377     		strb	r3, [r0, #29]
 659              	.LVL50:
 480:Drivers/STM32F4xx_HAL_Driver/Src/stm32f4xx_hal_rtc_ex.c **** 
 481:Drivers/STM32F4xx_HAL_Driver/Src/stm32f4xx_hal_rtc_ex.c ****   /* Process Unlocked */
 482:Drivers/STM32F4xx_HAL_Driver/Src/stm32f4xx_hal_rtc_ex.c ****   __HAL_UNLOCK(hrtc);
 660              		.loc 1 482 3 is_stmt 1 view .LVU241
 661              		.loc 1 482 3 view .LVU242
 662 004c 0023     		movs	r3, #0
 663 004e 0377     		strb	r3, [r0, #28]
 664              		.loc 1 482 3 view .LVU243
 483:Drivers/STM32F4xx_HAL_Driver/Src/stm32f4xx_hal_rtc_ex.c **** 
 484:Drivers/STM32F4xx_HAL_Driver/Src/stm32f4xx_hal_rtc_ex.c ****   return HAL_OK;
 665              		.loc 1 484 3 view .LVU244
 666              		.loc 1 484 10 is_stmt 0 view .LVU245
 667 0050 1846     		mov	r0, r3
 668              	.LVL51:
 485:Drivers/STM32F4xx_HAL_Driver/Src/stm32f4xx_hal_rtc_ex.c **** }
 669              		.loc 1 485 1 view .LVU246
 670 0052 30BC     		pop	{r4, r5}
 671              	.LCFI6:
 672              		.cfi_remember_state
 673              		.cfi_restore 5
 674              		.cfi_restore 4
 675              		.cfi_def_cfa_offset 0
 676 0054 7047     		bx	lr
 677              	.LVL52:
 678              	.L33:
 679              	.LCFI7:
 680              		.cfi_restore_state
 449:Drivers/STM32F4xx_HAL_Driver/Src/stm32f4xx_hal_rtc_ex.c ****   }
 681              		.loc 1 449 5 is_stmt 1 view .LVU247
 449:Drivers/STM32F4xx_HAL_Driver/Src/stm32f4xx_hal_rtc_ex.c ****   }
 682              		.loc 1 449 12 is_stmt 0 view .LVU248
 683 0056 42EA4303 		orr	r3, r2, r3, lsl #1
 684              	.LVL53:
 449:Drivers/STM32F4xx_HAL_Driver/Src/stm32f4xx_hal_rtc_ex.c ****   }
 685              		.loc 1 449 12 view .LVU249
 686 005a E2E7     		b	.L27
 687              	.LVL54:
 688              	.L28:
 689              	.LCFI8:
 690              		.cfi_def_cfa_offset 0
 691              		.cfi_restore 4
 692              		.cfi_restore 5
ARM GAS  /tmp/ccKeTRIy.s 			page 22


 434:Drivers/STM32F4xx_HAL_Driver/Src/stm32f4xx_hal_rtc_ex.c **** 
 693              		.loc 1 434 3 view .LVU250
 694 005c 0220     		movs	r0, #2
 695              	.LVL55:
 696              		.loc 1 485 1 view .LVU251
 697 005e 7047     		bx	lr
 698              		.cfi_endproc
 699              	.LFE134:
 701              		.section	.text.HAL_RTCEx_SetTamper_IT,"ax",%progbits
 702              		.align	1
 703              		.global	HAL_RTCEx_SetTamper_IT
 704              		.syntax unified
 705              		.thumb
 706              		.thumb_func
 707              		.fpu fpv4-sp-d16
 709              	HAL_RTCEx_SetTamper_IT:
 710              	.LVL56:
 711              	.LFB135:
 486:Drivers/STM32F4xx_HAL_Driver/Src/stm32f4xx_hal_rtc_ex.c **** 
 487:Drivers/STM32F4xx_HAL_Driver/Src/stm32f4xx_hal_rtc_ex.c **** /**
 488:Drivers/STM32F4xx_HAL_Driver/Src/stm32f4xx_hal_rtc_ex.c ****   * @brief  Sets Tamper with interrupt.
 489:Drivers/STM32F4xx_HAL_Driver/Src/stm32f4xx_hal_rtc_ex.c ****   * @note   By calling this API the tamper global interrupt will be enabled.
 490:Drivers/STM32F4xx_HAL_Driver/Src/stm32f4xx_hal_rtc_ex.c ****   * @param  hrtc pointer to a RTC_HandleTypeDef structure that contains
 491:Drivers/STM32F4xx_HAL_Driver/Src/stm32f4xx_hal_rtc_ex.c ****   *                the configuration information for RTC.
 492:Drivers/STM32F4xx_HAL_Driver/Src/stm32f4xx_hal_rtc_ex.c ****   * @param  sTamper Pointer to RTC Tamper.
 493:Drivers/STM32F4xx_HAL_Driver/Src/stm32f4xx_hal_rtc_ex.c ****   * @retval HAL status
 494:Drivers/STM32F4xx_HAL_Driver/Src/stm32f4xx_hal_rtc_ex.c ****   */
 495:Drivers/STM32F4xx_HAL_Driver/Src/stm32f4xx_hal_rtc_ex.c **** HAL_StatusTypeDef HAL_RTCEx_SetTamper_IT(RTC_HandleTypeDef *hrtc, RTC_TamperTypeDef *sTamper)
 496:Drivers/STM32F4xx_HAL_Driver/Src/stm32f4xx_hal_rtc_ex.c **** {
 712              		.loc 1 496 1 is_stmt 1 view -0
 713              		.cfi_startproc
 714              		@ args = 0, pretend = 0, frame = 0
 715              		@ frame_needed = 0, uses_anonymous_args = 0
 716              		@ link register save eliminated.
 497:Drivers/STM32F4xx_HAL_Driver/Src/stm32f4xx_hal_rtc_ex.c ****   uint32_t tmpreg = 0U;
 717              		.loc 1 497 3 view .LVU253
 498:Drivers/STM32F4xx_HAL_Driver/Src/stm32f4xx_hal_rtc_ex.c **** 
 499:Drivers/STM32F4xx_HAL_Driver/Src/stm32f4xx_hal_rtc_ex.c ****   /* Check the parameters */
 500:Drivers/STM32F4xx_HAL_Driver/Src/stm32f4xx_hal_rtc_ex.c ****   assert_param(IS_RTC_TAMPER(sTamper->Tamper));
 718              		.loc 1 500 3 view .LVU254
 501:Drivers/STM32F4xx_HAL_Driver/Src/stm32f4xx_hal_rtc_ex.c ****   assert_param(IS_RTC_TAMPER_PIN(sTamper->PinSelection));
 719              		.loc 1 501 3 view .LVU255
 502:Drivers/STM32F4xx_HAL_Driver/Src/stm32f4xx_hal_rtc_ex.c ****   assert_param(IS_RTC_TAMPER_TRIGGER(sTamper->Trigger));
 720              		.loc 1 502 3 view .LVU256
 503:Drivers/STM32F4xx_HAL_Driver/Src/stm32f4xx_hal_rtc_ex.c ****   assert_param(IS_RTC_TAMPER_FILTER(sTamper->Filter));
 721              		.loc 1 503 3 view .LVU257
 504:Drivers/STM32F4xx_HAL_Driver/Src/stm32f4xx_hal_rtc_ex.c ****   assert_param(IS_RTC_TAMPER_FILTER_CONFIG_CORRECT(sTamper->Filter, sTamper->Trigger));
 722              		.loc 1 504 3 view .LVU258
 505:Drivers/STM32F4xx_HAL_Driver/Src/stm32f4xx_hal_rtc_ex.c ****   assert_param(IS_RTC_TAMPER_SAMPLING_FREQ(sTamper->SamplingFrequency));
 723              		.loc 1 505 3 view .LVU259
 506:Drivers/STM32F4xx_HAL_Driver/Src/stm32f4xx_hal_rtc_ex.c ****   assert_param(IS_RTC_TAMPER_PRECHARGE_DURATION(sTamper->PrechargeDuration));
 724              		.loc 1 506 3 view .LVU260
 507:Drivers/STM32F4xx_HAL_Driver/Src/stm32f4xx_hal_rtc_ex.c ****   assert_param(IS_RTC_TAMPER_PULLUP_STATE(sTamper->TamperPullUp));
 725              		.loc 1 507 3 view .LVU261
 508:Drivers/STM32F4xx_HAL_Driver/Src/stm32f4xx_hal_rtc_ex.c ****   assert_param(IS_RTC_TAMPER_TIMESTAMPONTAMPER_DETECTION(sTamper->TimeStampOnTamperDetection));
 726              		.loc 1 508 3 view .LVU262
 509:Drivers/STM32F4xx_HAL_Driver/Src/stm32f4xx_hal_rtc_ex.c **** 
ARM GAS  /tmp/ccKeTRIy.s 			page 23


 510:Drivers/STM32F4xx_HAL_Driver/Src/stm32f4xx_hal_rtc_ex.c ****   /* Process Locked */
 511:Drivers/STM32F4xx_HAL_Driver/Src/stm32f4xx_hal_rtc_ex.c ****   __HAL_LOCK(hrtc);
 727              		.loc 1 511 3 view .LVU263
 728              		.loc 1 511 3 view .LVU264
 729 0000 037F     		ldrb	r3, [r0, #28]	@ zero_extendqisi2
 730 0002 012B     		cmp	r3, #1
 731 0004 33D0     		beq	.L38
 496:Drivers/STM32F4xx_HAL_Driver/Src/stm32f4xx_hal_rtc_ex.c ****   uint32_t tmpreg = 0U;
 732              		.loc 1 496 1 is_stmt 0 discriminator 2 view .LVU265
 733 0006 30B4     		push	{r4, r5}
 734              	.LCFI9:
 735              		.cfi_def_cfa_offset 8
 736              		.cfi_offset 4, -8
 737              		.cfi_offset 5, -4
 738              		.loc 1 511 3 is_stmt 1 discriminator 2 view .LVU266
 739 0008 0123     		movs	r3, #1
 740 000a 0377     		strb	r3, [r0, #28]
 741              		.loc 1 511 3 discriminator 2 view .LVU267
 512:Drivers/STM32F4xx_HAL_Driver/Src/stm32f4xx_hal_rtc_ex.c **** 
 513:Drivers/STM32F4xx_HAL_Driver/Src/stm32f4xx_hal_rtc_ex.c ****   hrtc->State = HAL_RTC_STATE_BUSY;
 742              		.loc 1 513 3 discriminator 2 view .LVU268
 743              		.loc 1 513 15 is_stmt 0 discriminator 2 view .LVU269
 744 000c 0223     		movs	r3, #2
 745 000e 4377     		strb	r3, [r0, #29]
 514:Drivers/STM32F4xx_HAL_Driver/Src/stm32f4xx_hal_rtc_ex.c **** 
 515:Drivers/STM32F4xx_HAL_Driver/Src/stm32f4xx_hal_rtc_ex.c ****   /* Copy control register into temporary variable */
 516:Drivers/STM32F4xx_HAL_Driver/Src/stm32f4xx_hal_rtc_ex.c ****   tmpreg = hrtc->Instance->TAFCR;
 746              		.loc 1 516 3 is_stmt 1 discriminator 2 view .LVU270
 747              		.loc 1 516 16 is_stmt 0 discriminator 2 view .LVU271
 748 0010 0468     		ldr	r4, [r0]
 749              		.loc 1 516 10 discriminator 2 view .LVU272
 750 0012 226C     		ldr	r2, [r4, #64]
 751              	.LVL57:
 517:Drivers/STM32F4xx_HAL_Driver/Src/stm32f4xx_hal_rtc_ex.c **** 
 518:Drivers/STM32F4xx_HAL_Driver/Src/stm32f4xx_hal_rtc_ex.c ****   /* Enable selected tamper */
 519:Drivers/STM32F4xx_HAL_Driver/Src/stm32f4xx_hal_rtc_ex.c ****   tmpreg |= (sTamper->Tamper);
 752              		.loc 1 519 3 is_stmt 1 discriminator 2 view .LVU273
 753              		.loc 1 519 21 is_stmt 0 discriminator 2 view .LVU274
 754 0014 0B68     		ldr	r3, [r1]
 755              		.loc 1 519 10 discriminator 2 view .LVU275
 756 0016 1A43     		orrs	r2, r2, r3
 757              	.LVL58:
 520:Drivers/STM32F4xx_HAL_Driver/Src/stm32f4xx_hal_rtc_ex.c **** 
 521:Drivers/STM32F4xx_HAL_Driver/Src/stm32f4xx_hal_rtc_ex.c ****   /* Configure the tamper trigger bit (this bit is just on the right of the
 522:Drivers/STM32F4xx_HAL_Driver/Src/stm32f4xx_hal_rtc_ex.c ****        tamper enable bit, hence the one-time right shift before updating it) */
 523:Drivers/STM32F4xx_HAL_Driver/Src/stm32f4xx_hal_rtc_ex.c ****   if (sTamper->Trigger == RTC_TAMPERTRIGGER_FALLINGEDGE)
 758              		.loc 1 523 3 is_stmt 1 discriminator 2 view .LVU276
 759              		.loc 1 523 6 is_stmt 0 discriminator 2 view .LVU277
 760 0018 8D68     		ldr	r5, [r1, #8]
 761 001a 022D     		cmp	r5, #2
 762 001c 24D0     		beq	.L43
 524:Drivers/STM32F4xx_HAL_Driver/Src/stm32f4xx_hal_rtc_ex.c ****   {
 525:Drivers/STM32F4xx_HAL_Driver/Src/stm32f4xx_hal_rtc_ex.c ****     /* Set the tamper trigger bit (case of falling edge or high level) */
 526:Drivers/STM32F4xx_HAL_Driver/Src/stm32f4xx_hal_rtc_ex.c ****     tmpreg |= (uint32_t)(sTamper->Tamper << 1U);
 527:Drivers/STM32F4xx_HAL_Driver/Src/stm32f4xx_hal_rtc_ex.c ****   }
 528:Drivers/STM32F4xx_HAL_Driver/Src/stm32f4xx_hal_rtc_ex.c ****   else
 529:Drivers/STM32F4xx_HAL_Driver/Src/stm32f4xx_hal_rtc_ex.c ****   {
ARM GAS  /tmp/ccKeTRIy.s 			page 24


 530:Drivers/STM32F4xx_HAL_Driver/Src/stm32f4xx_hal_rtc_ex.c ****     /* Clear the tamper trigger bit (case of rising edge or low level) */
 531:Drivers/STM32F4xx_HAL_Driver/Src/stm32f4xx_hal_rtc_ex.c ****     tmpreg &= (uint32_t)~(sTamper->Tamper << 1U);
 763              		.loc 1 531 5 is_stmt 1 view .LVU278
 764              		.loc 1 531 12 is_stmt 0 view .LVU279
 765 001e 22EA4303 		bic	r3, r2, r3, lsl #1
 766              	.LVL59:
 767              	.L37:
 532:Drivers/STM32F4xx_HAL_Driver/Src/stm32f4xx_hal_rtc_ex.c ****   }
 533:Drivers/STM32F4xx_HAL_Driver/Src/stm32f4xx_hal_rtc_ex.c **** 
 534:Drivers/STM32F4xx_HAL_Driver/Src/stm32f4xx_hal_rtc_ex.c ****   /* Clear remaining fields before setting them */
 535:Drivers/STM32F4xx_HAL_Driver/Src/stm32f4xx_hal_rtc_ex.c ****   tmpreg &= ~(RTC_TAMPERFILTER_MASK              | \
 768              		.loc 1 535 3 is_stmt 1 view .LVU280
 769              		.loc 1 535 10 is_stmt 0 view .LVU281
 770 0022 23F4FF32 		bic	r2, r3, #130560
 771 0026 22F4C072 		bic	r2, r2, #384
 772              	.LVL60:
 536:Drivers/STM32F4xx_HAL_Driver/Src/stm32f4xx_hal_rtc_ex.c ****               RTC_TAMPERSAMPLINGFREQ_RTCCLK_MASK | \
 537:Drivers/STM32F4xx_HAL_Driver/Src/stm32f4xx_hal_rtc_ex.c ****               RTC_TAMPERPRECHARGEDURATION_MASK   | \
 538:Drivers/STM32F4xx_HAL_Driver/Src/stm32f4xx_hal_rtc_ex.c ****               RTC_TAMPER_PULLUP_MASK             | \
 539:Drivers/STM32F4xx_HAL_Driver/Src/stm32f4xx_hal_rtc_ex.c ****               RTC_TAFCR_TAMP1INSEL               | \
 540:Drivers/STM32F4xx_HAL_Driver/Src/stm32f4xx_hal_rtc_ex.c ****               RTC_TIMESTAMPONTAMPERDETECTION_MASK);
 541:Drivers/STM32F4xx_HAL_Driver/Src/stm32f4xx_hal_rtc_ex.c **** 
 542:Drivers/STM32F4xx_HAL_Driver/Src/stm32f4xx_hal_rtc_ex.c ****   /* Set remaining parameters of desired configuration into temporary variable */
 543:Drivers/STM32F4xx_HAL_Driver/Src/stm32f4xx_hal_rtc_ex.c ****   tmpreg |= ((uint32_t)sTamper->Filter            | \
 773              		.loc 1 543 3 is_stmt 1 view .LVU282
 774              		.loc 1 543 31 is_stmt 0 view .LVU283
 775 002a CB68     		ldr	r3, [r1, #12]
 776              		.loc 1 543 51 view .LVU284
 777 002c 0D69     		ldr	r5, [r1, #16]
 778 002e 2B43     		orrs	r3, r3, r5
 544:Drivers/STM32F4xx_HAL_Driver/Src/stm32f4xx_hal_rtc_ex.c ****              (uint32_t)sTamper->SamplingFrequency | \
 779              		.loc 1 544 51 view .LVU285
 780 0030 4D69     		ldr	r5, [r1, #20]
 781 0032 2B43     		orrs	r3, r3, r5
 545:Drivers/STM32F4xx_HAL_Driver/Src/stm32f4xx_hal_rtc_ex.c ****              (uint32_t)sTamper->PrechargeDuration | \
 782              		.loc 1 545 51 view .LVU286
 783 0034 8D69     		ldr	r5, [r1, #24]
 784 0036 2B43     		orrs	r3, r3, r5
 546:Drivers/STM32F4xx_HAL_Driver/Src/stm32f4xx_hal_rtc_ex.c ****              (uint32_t)sTamper->TamperPullUp      | \
 785              		.loc 1 546 51 view .LVU287
 786 0038 4D68     		ldr	r5, [r1, #4]
 787 003a 2B43     		orrs	r3, r3, r5
 547:Drivers/STM32F4xx_HAL_Driver/Src/stm32f4xx_hal_rtc_ex.c ****              (uint32_t)sTamper->PinSelection      | \
 548:Drivers/STM32F4xx_HAL_Driver/Src/stm32f4xx_hal_rtc_ex.c ****              (uint32_t)sTamper->TimeStampOnTamperDetection);
 788              		.loc 1 548 31 view .LVU288
 789 003c C969     		ldr	r1, [r1, #28]
 790              	.LVL61:
 547:Drivers/STM32F4xx_HAL_Driver/Src/stm32f4xx_hal_rtc_ex.c ****              (uint32_t)sTamper->PinSelection      | \
 791              		.loc 1 547 51 view .LVU289
 792 003e 0B43     		orrs	r3, r3, r1
 543:Drivers/STM32F4xx_HAL_Driver/Src/stm32f4xx_hal_rtc_ex.c ****              (uint32_t)sTamper->SamplingFrequency | \
 793              		.loc 1 543 10 view .LVU290
 794 0040 1343     		orrs	r3, r3, r2
 795              	.LVL62:
 549:Drivers/STM32F4xx_HAL_Driver/Src/stm32f4xx_hal_rtc_ex.c **** 
 550:Drivers/STM32F4xx_HAL_Driver/Src/stm32f4xx_hal_rtc_ex.c ****   /* Enable global tamper interrupt */
 551:Drivers/STM32F4xx_HAL_Driver/Src/stm32f4xx_hal_rtc_ex.c ****   tmpreg |= (uint32_t)RTC_TAFCR_TAMPIE;
ARM GAS  /tmp/ccKeTRIy.s 			page 25


 796              		.loc 1 551 3 is_stmt 1 view .LVU291
 797              		.loc 1 551 10 is_stmt 0 view .LVU292
 798 0042 43F00403 		orr	r3, r3, #4
 799              	.LVL63:
 552:Drivers/STM32F4xx_HAL_Driver/Src/stm32f4xx_hal_rtc_ex.c **** 
 553:Drivers/STM32F4xx_HAL_Driver/Src/stm32f4xx_hal_rtc_ex.c ****   /* Copy desired configuration into configuration register */
 554:Drivers/STM32F4xx_HAL_Driver/Src/stm32f4xx_hal_rtc_ex.c ****   hrtc->Instance->TAFCR = tmpreg;
 800              		.loc 1 554 3 is_stmt 1 view .LVU293
 801              		.loc 1 554 25 is_stmt 0 view .LVU294
 802 0046 2364     		str	r3, [r4, #64]
 555:Drivers/STM32F4xx_HAL_Driver/Src/stm32f4xx_hal_rtc_ex.c **** 
 556:Drivers/STM32F4xx_HAL_Driver/Src/stm32f4xx_hal_rtc_ex.c ****   /* RTC Tamper Interrupt Configuration: EXTI configuration */
 557:Drivers/STM32F4xx_HAL_Driver/Src/stm32f4xx_hal_rtc_ex.c ****   __HAL_RTC_TAMPER_TIMESTAMP_EXTI_ENABLE_IT();
 803              		.loc 1 557 3 is_stmt 1 view .LVU295
 804 0048 0A4B     		ldr	r3, .L44
 805              	.LVL64:
 806              		.loc 1 557 3 is_stmt 0 view .LVU296
 807 004a 1A68     		ldr	r2, [r3]
 808 004c 42F40012 		orr	r2, r2, #2097152
 809 0050 1A60     		str	r2, [r3]
 810              	.LVL65:
 558:Drivers/STM32F4xx_HAL_Driver/Src/stm32f4xx_hal_rtc_ex.c ****   __HAL_RTC_TAMPER_TIMESTAMP_EXTI_ENABLE_RISING_EDGE();
 811              		.loc 1 558 3 is_stmt 1 view .LVU297
 812 0052 9A68     		ldr	r2, [r3, #8]
 813 0054 42F40012 		orr	r2, r2, #2097152
 814 0058 9A60     		str	r2, [r3, #8]
 559:Drivers/STM32F4xx_HAL_Driver/Src/stm32f4xx_hal_rtc_ex.c **** 
 560:Drivers/STM32F4xx_HAL_Driver/Src/stm32f4xx_hal_rtc_ex.c ****   hrtc->State = HAL_RTC_STATE_READY;
 815              		.loc 1 560 3 view .LVU298
 816              		.loc 1 560 15 is_stmt 0 view .LVU299
 817 005a 0123     		movs	r3, #1
 818 005c 4377     		strb	r3, [r0, #29]
 561:Drivers/STM32F4xx_HAL_Driver/Src/stm32f4xx_hal_rtc_ex.c **** 
 562:Drivers/STM32F4xx_HAL_Driver/Src/stm32f4xx_hal_rtc_ex.c ****   /* Process Unlocked */
 563:Drivers/STM32F4xx_HAL_Driver/Src/stm32f4xx_hal_rtc_ex.c ****   __HAL_UNLOCK(hrtc);
 819              		.loc 1 563 3 is_stmt 1 view .LVU300
 820              		.loc 1 563 3 view .LVU301
 821 005e 0023     		movs	r3, #0
 822 0060 0377     		strb	r3, [r0, #28]
 823              		.loc 1 563 3 view .LVU302
 564:Drivers/STM32F4xx_HAL_Driver/Src/stm32f4xx_hal_rtc_ex.c **** 
 565:Drivers/STM32F4xx_HAL_Driver/Src/stm32f4xx_hal_rtc_ex.c ****   return HAL_OK;
 824              		.loc 1 565 3 view .LVU303
 825              		.loc 1 565 10 is_stmt 0 view .LVU304
 826 0062 1846     		mov	r0, r3
 827              	.LVL66:
 566:Drivers/STM32F4xx_HAL_Driver/Src/stm32f4xx_hal_rtc_ex.c **** }
 828              		.loc 1 566 1 view .LVU305
 829 0064 30BC     		pop	{r4, r5}
 830              	.LCFI10:
 831              		.cfi_remember_state
 832              		.cfi_restore 5
 833              		.cfi_restore 4
 834              		.cfi_def_cfa_offset 0
 835 0066 7047     		bx	lr
 836              	.LVL67:
 837              	.L43:
ARM GAS  /tmp/ccKeTRIy.s 			page 26


 838              	.LCFI11:
 839              		.cfi_restore_state
 526:Drivers/STM32F4xx_HAL_Driver/Src/stm32f4xx_hal_rtc_ex.c ****   }
 840              		.loc 1 526 5 is_stmt 1 view .LVU306
 526:Drivers/STM32F4xx_HAL_Driver/Src/stm32f4xx_hal_rtc_ex.c ****   }
 841              		.loc 1 526 12 is_stmt 0 view .LVU307
 842 0068 42EA4303 		orr	r3, r2, r3, lsl #1
 843              	.LVL68:
 526:Drivers/STM32F4xx_HAL_Driver/Src/stm32f4xx_hal_rtc_ex.c ****   }
 844              		.loc 1 526 12 view .LVU308
 845 006c D9E7     		b	.L37
 846              	.LVL69:
 847              	.L38:
 848              	.LCFI12:
 849              		.cfi_def_cfa_offset 0
 850              		.cfi_restore 4
 851              		.cfi_restore 5
 511:Drivers/STM32F4xx_HAL_Driver/Src/stm32f4xx_hal_rtc_ex.c **** 
 852              		.loc 1 511 3 view .LVU309
 853 006e 0220     		movs	r0, #2
 854              	.LVL70:
 855              		.loc 1 566 1 view .LVU310
 856 0070 7047     		bx	lr
 857              	.L45:
 858 0072 00BF     		.align	2
 859              	.L44:
 860 0074 003C0140 		.word	1073822720
 861              		.cfi_endproc
 862              	.LFE135:
 864              		.section	.text.HAL_RTCEx_DeactivateTamper,"ax",%progbits
 865              		.align	1
 866              		.global	HAL_RTCEx_DeactivateTamper
 867              		.syntax unified
 868              		.thumb
 869              		.thumb_func
 870              		.fpu fpv4-sp-d16
 872              	HAL_RTCEx_DeactivateTamper:
 873              	.LVL71:
 874              	.LFB136:
 567:Drivers/STM32F4xx_HAL_Driver/Src/stm32f4xx_hal_rtc_ex.c **** 
 568:Drivers/STM32F4xx_HAL_Driver/Src/stm32f4xx_hal_rtc_ex.c **** /**
 569:Drivers/STM32F4xx_HAL_Driver/Src/stm32f4xx_hal_rtc_ex.c ****   * @brief  Deactivates Tamper.
 570:Drivers/STM32F4xx_HAL_Driver/Src/stm32f4xx_hal_rtc_ex.c ****   * @note   The tamper global interrupt bit will remain unchanged.
 571:Drivers/STM32F4xx_HAL_Driver/Src/stm32f4xx_hal_rtc_ex.c ****   * @param  hrtc pointer to a RTC_HandleTypeDef structure that contains
 572:Drivers/STM32F4xx_HAL_Driver/Src/stm32f4xx_hal_rtc_ex.c ****   *                the configuration information for RTC.
 573:Drivers/STM32F4xx_HAL_Driver/Src/stm32f4xx_hal_rtc_ex.c ****   * @param  Tamper Selected tamper pin.
 574:Drivers/STM32F4xx_HAL_Driver/Src/stm32f4xx_hal_rtc_ex.c ****   *          This parameter can be any combination of the following values:
 575:Drivers/STM32F4xx_HAL_Driver/Src/stm32f4xx_hal_rtc_ex.c ****   *            @arg RTC_TAMPER_1:  Tamper 1
 576:Drivers/STM32F4xx_HAL_Driver/Src/stm32f4xx_hal_rtc_ex.c ****   *            @arg RTC_TAMPER_2:  Tamper 2
 577:Drivers/STM32F4xx_HAL_Driver/Src/stm32f4xx_hal_rtc_ex.c ****   * @note   RTC_TAMPER_2 is not applicable to all devices.
 578:Drivers/STM32F4xx_HAL_Driver/Src/stm32f4xx_hal_rtc_ex.c ****   * @retval HAL status
 579:Drivers/STM32F4xx_HAL_Driver/Src/stm32f4xx_hal_rtc_ex.c ****   */
 580:Drivers/STM32F4xx_HAL_Driver/Src/stm32f4xx_hal_rtc_ex.c **** HAL_StatusTypeDef HAL_RTCEx_DeactivateTamper(RTC_HandleTypeDef *hrtc, uint32_t Tamper)
 581:Drivers/STM32F4xx_HAL_Driver/Src/stm32f4xx_hal_rtc_ex.c **** {
 875              		.loc 1 581 1 is_stmt 1 view -0
 876              		.cfi_startproc
 877              		@ args = 0, pretend = 0, frame = 0
ARM GAS  /tmp/ccKeTRIy.s 			page 27


 878              		@ frame_needed = 0, uses_anonymous_args = 0
 879              		@ link register save eliminated.
 582:Drivers/STM32F4xx_HAL_Driver/Src/stm32f4xx_hal_rtc_ex.c ****   assert_param(IS_RTC_TAMPER(Tamper));
 880              		.loc 1 582 3 view .LVU312
 583:Drivers/STM32F4xx_HAL_Driver/Src/stm32f4xx_hal_rtc_ex.c **** 
 584:Drivers/STM32F4xx_HAL_Driver/Src/stm32f4xx_hal_rtc_ex.c ****   /* Process Locked */
 585:Drivers/STM32F4xx_HAL_Driver/Src/stm32f4xx_hal_rtc_ex.c ****   __HAL_LOCK(hrtc);
 881              		.loc 1 585 3 view .LVU313
 882              		.loc 1 585 3 view .LVU314
 883 0000 037F     		ldrb	r3, [r0, #28]	@ zero_extendqisi2
 884 0002 012B     		cmp	r3, #1
 885 0004 10D0     		beq	.L48
 581:Drivers/STM32F4xx_HAL_Driver/Src/stm32f4xx_hal_rtc_ex.c ****   assert_param(IS_RTC_TAMPER(Tamper));
 886              		.loc 1 581 1 is_stmt 0 discriminator 2 view .LVU315
 887 0006 10B4     		push	{r4}
 888              	.LCFI13:
 889              		.cfi_def_cfa_offset 4
 890              		.cfi_offset 4, -4
 891              		.loc 1 585 3 is_stmt 1 discriminator 2 view .LVU316
 892 0008 0122     		movs	r2, #1
 893 000a 0277     		strb	r2, [r0, #28]
 894              		.loc 1 585 3 discriminator 2 view .LVU317
 586:Drivers/STM32F4xx_HAL_Driver/Src/stm32f4xx_hal_rtc_ex.c **** 
 587:Drivers/STM32F4xx_HAL_Driver/Src/stm32f4xx_hal_rtc_ex.c ****   hrtc->State = HAL_RTC_STATE_BUSY;
 895              		.loc 1 587 3 discriminator 2 view .LVU318
 896              		.loc 1 587 15 is_stmt 0 discriminator 2 view .LVU319
 897 000c 0223     		movs	r3, #2
 898 000e 4377     		strb	r3, [r0, #29]
 588:Drivers/STM32F4xx_HAL_Driver/Src/stm32f4xx_hal_rtc_ex.c **** 
 589:Drivers/STM32F4xx_HAL_Driver/Src/stm32f4xx_hal_rtc_ex.c ****   /* Disable the selected Tamper pin */
 590:Drivers/STM32F4xx_HAL_Driver/Src/stm32f4xx_hal_rtc_ex.c ****   hrtc->Instance->TAFCR &= (uint32_t)~Tamper;
 899              		.loc 1 590 3 is_stmt 1 discriminator 2 view .LVU320
 900              		.loc 1 590 7 is_stmt 0 discriminator 2 view .LVU321
 901 0010 0468     		ldr	r4, [r0]
 902              		.loc 1 590 25 discriminator 2 view .LVU322
 903 0012 236C     		ldr	r3, [r4, #64]
 904 0014 23EA0101 		bic	r1, r3, r1
 905              	.LVL72:
 906              		.loc 1 590 25 discriminator 2 view .LVU323
 907 0018 2164     		str	r1, [r4, #64]
 591:Drivers/STM32F4xx_HAL_Driver/Src/stm32f4xx_hal_rtc_ex.c **** 
 592:Drivers/STM32F4xx_HAL_Driver/Src/stm32f4xx_hal_rtc_ex.c ****   hrtc->State = HAL_RTC_STATE_READY;
 908              		.loc 1 592 3 is_stmt 1 discriminator 2 view .LVU324
 909              		.loc 1 592 15 is_stmt 0 discriminator 2 view .LVU325
 910 001a 4277     		strb	r2, [r0, #29]
 593:Drivers/STM32F4xx_HAL_Driver/Src/stm32f4xx_hal_rtc_ex.c **** 
 594:Drivers/STM32F4xx_HAL_Driver/Src/stm32f4xx_hal_rtc_ex.c ****   /* Process Unlocked */
 595:Drivers/STM32F4xx_HAL_Driver/Src/stm32f4xx_hal_rtc_ex.c ****   __HAL_UNLOCK(hrtc);
 911              		.loc 1 595 3 is_stmt 1 discriminator 2 view .LVU326
 912              		.loc 1 595 3 discriminator 2 view .LVU327
 913 001c 0023     		movs	r3, #0
 914 001e 0377     		strb	r3, [r0, #28]
 915              		.loc 1 595 3 discriminator 2 view .LVU328
 596:Drivers/STM32F4xx_HAL_Driver/Src/stm32f4xx_hal_rtc_ex.c **** 
 597:Drivers/STM32F4xx_HAL_Driver/Src/stm32f4xx_hal_rtc_ex.c ****   return HAL_OK;
 916              		.loc 1 597 3 discriminator 2 view .LVU329
 917              		.loc 1 597 10 is_stmt 0 discriminator 2 view .LVU330
ARM GAS  /tmp/ccKeTRIy.s 			page 28


 918 0020 1846     		mov	r0, r3
 919              	.LVL73:
 598:Drivers/STM32F4xx_HAL_Driver/Src/stm32f4xx_hal_rtc_ex.c **** }
 920              		.loc 1 598 1 discriminator 2 view .LVU331
 921 0022 5DF8044B 		ldr	r4, [sp], #4
 922              	.LCFI14:
 923              		.cfi_restore 4
 924              		.cfi_def_cfa_offset 0
 925 0026 7047     		bx	lr
 926              	.LVL74:
 927              	.L48:
 585:Drivers/STM32F4xx_HAL_Driver/Src/stm32f4xx_hal_rtc_ex.c **** 
 928              		.loc 1 585 3 view .LVU332
 929 0028 0220     		movs	r0, #2
 930              	.LVL75:
 931              		.loc 1 598 1 view .LVU333
 932 002a 7047     		bx	lr
 933              		.cfi_endproc
 934              	.LFE136:
 936              		.section	.text.HAL_RTCEx_TimeStampEventCallback,"ax",%progbits
 937              		.align	1
 938              		.weak	HAL_RTCEx_TimeStampEventCallback
 939              		.syntax unified
 940              		.thumb
 941              		.thumb_func
 942              		.fpu fpv4-sp-d16
 944              	HAL_RTCEx_TimeStampEventCallback:
 945              	.LVL76:
 946              	.LFB138:
 599:Drivers/STM32F4xx_HAL_Driver/Src/stm32f4xx_hal_rtc_ex.c **** 
 600:Drivers/STM32F4xx_HAL_Driver/Src/stm32f4xx_hal_rtc_ex.c **** /**
 601:Drivers/STM32F4xx_HAL_Driver/Src/stm32f4xx_hal_rtc_ex.c ****   * @brief  Handles Timestamp and Tamper interrupt request.
 602:Drivers/STM32F4xx_HAL_Driver/Src/stm32f4xx_hal_rtc_ex.c ****   * @param  hrtc pointer to a RTC_HandleTypeDef structure that contains
 603:Drivers/STM32F4xx_HAL_Driver/Src/stm32f4xx_hal_rtc_ex.c ****   *                the configuration information for RTC.
 604:Drivers/STM32F4xx_HAL_Driver/Src/stm32f4xx_hal_rtc_ex.c ****   * @retval None
 605:Drivers/STM32F4xx_HAL_Driver/Src/stm32f4xx_hal_rtc_ex.c ****   */
 606:Drivers/STM32F4xx_HAL_Driver/Src/stm32f4xx_hal_rtc_ex.c **** void HAL_RTCEx_TamperTimeStampIRQHandler(RTC_HandleTypeDef *hrtc)
 607:Drivers/STM32F4xx_HAL_Driver/Src/stm32f4xx_hal_rtc_ex.c **** {
 608:Drivers/STM32F4xx_HAL_Driver/Src/stm32f4xx_hal_rtc_ex.c ****   /* Get the Timestamp interrupt source enable status */
 609:Drivers/STM32F4xx_HAL_Driver/Src/stm32f4xx_hal_rtc_ex.c ****   if (__HAL_RTC_TIMESTAMP_GET_IT_SOURCE(hrtc, RTC_IT_TS) != 0U)
 610:Drivers/STM32F4xx_HAL_Driver/Src/stm32f4xx_hal_rtc_ex.c ****   {
 611:Drivers/STM32F4xx_HAL_Driver/Src/stm32f4xx_hal_rtc_ex.c ****     /* Get the pending status of the Timestamp Interrupt */
 612:Drivers/STM32F4xx_HAL_Driver/Src/stm32f4xx_hal_rtc_ex.c ****     if (__HAL_RTC_TIMESTAMP_GET_FLAG(hrtc, RTC_FLAG_TSF) != 0U)
 613:Drivers/STM32F4xx_HAL_Driver/Src/stm32f4xx_hal_rtc_ex.c ****     {
 614:Drivers/STM32F4xx_HAL_Driver/Src/stm32f4xx_hal_rtc_ex.c ****       /* Timestamp callback */
 615:Drivers/STM32F4xx_HAL_Driver/Src/stm32f4xx_hal_rtc_ex.c **** #if (USE_HAL_RTC_REGISTER_CALLBACKS == 1)
 616:Drivers/STM32F4xx_HAL_Driver/Src/stm32f4xx_hal_rtc_ex.c ****       hrtc->TimeStampEventCallback(hrtc);
 617:Drivers/STM32F4xx_HAL_Driver/Src/stm32f4xx_hal_rtc_ex.c **** #else
 618:Drivers/STM32F4xx_HAL_Driver/Src/stm32f4xx_hal_rtc_ex.c ****       HAL_RTCEx_TimeStampEventCallback(hrtc);
 619:Drivers/STM32F4xx_HAL_Driver/Src/stm32f4xx_hal_rtc_ex.c **** #endif /* USE_HAL_RTC_REGISTER_CALLBACKS */
 620:Drivers/STM32F4xx_HAL_Driver/Src/stm32f4xx_hal_rtc_ex.c **** 
 621:Drivers/STM32F4xx_HAL_Driver/Src/stm32f4xx_hal_rtc_ex.c ****       /* Clear the Timestamp interrupt pending bit */
 622:Drivers/STM32F4xx_HAL_Driver/Src/stm32f4xx_hal_rtc_ex.c ****       __HAL_RTC_TIMESTAMP_CLEAR_FLAG(hrtc, RTC_FLAG_TSF);
 623:Drivers/STM32F4xx_HAL_Driver/Src/stm32f4xx_hal_rtc_ex.c ****     }
 624:Drivers/STM32F4xx_HAL_Driver/Src/stm32f4xx_hal_rtc_ex.c ****   }
 625:Drivers/STM32F4xx_HAL_Driver/Src/stm32f4xx_hal_rtc_ex.c **** 
 626:Drivers/STM32F4xx_HAL_Driver/Src/stm32f4xx_hal_rtc_ex.c ****   /* Get the Tamper 1 interrupt source enable status */
ARM GAS  /tmp/ccKeTRIy.s 			page 29


 627:Drivers/STM32F4xx_HAL_Driver/Src/stm32f4xx_hal_rtc_ex.c ****   if (__HAL_RTC_TAMPER_GET_IT_SOURCE(hrtc, RTC_IT_TAMP) != 0U)
 628:Drivers/STM32F4xx_HAL_Driver/Src/stm32f4xx_hal_rtc_ex.c ****   {
 629:Drivers/STM32F4xx_HAL_Driver/Src/stm32f4xx_hal_rtc_ex.c ****     /* Get the pending status of the Tamper 1 Interrupt */
 630:Drivers/STM32F4xx_HAL_Driver/Src/stm32f4xx_hal_rtc_ex.c ****     if (__HAL_RTC_TAMPER_GET_FLAG(hrtc, RTC_FLAG_TAMP1F) != 0U)
 631:Drivers/STM32F4xx_HAL_Driver/Src/stm32f4xx_hal_rtc_ex.c ****     {
 632:Drivers/STM32F4xx_HAL_Driver/Src/stm32f4xx_hal_rtc_ex.c ****       /* Tamper callback */
 633:Drivers/STM32F4xx_HAL_Driver/Src/stm32f4xx_hal_rtc_ex.c **** #if (USE_HAL_RTC_REGISTER_CALLBACKS == 1)
 634:Drivers/STM32F4xx_HAL_Driver/Src/stm32f4xx_hal_rtc_ex.c ****       hrtc->Tamper1EventCallback(hrtc);
 635:Drivers/STM32F4xx_HAL_Driver/Src/stm32f4xx_hal_rtc_ex.c **** #else
 636:Drivers/STM32F4xx_HAL_Driver/Src/stm32f4xx_hal_rtc_ex.c ****       HAL_RTCEx_Tamper1EventCallback(hrtc);
 637:Drivers/STM32F4xx_HAL_Driver/Src/stm32f4xx_hal_rtc_ex.c **** #endif /* USE_HAL_RTC_REGISTER_CALLBACKS */
 638:Drivers/STM32F4xx_HAL_Driver/Src/stm32f4xx_hal_rtc_ex.c **** 
 639:Drivers/STM32F4xx_HAL_Driver/Src/stm32f4xx_hal_rtc_ex.c ****       /* Clear the Tamper interrupt pending bit */
 640:Drivers/STM32F4xx_HAL_Driver/Src/stm32f4xx_hal_rtc_ex.c ****       __HAL_RTC_TAMPER_CLEAR_FLAG(hrtc, RTC_FLAG_TAMP1F);
 641:Drivers/STM32F4xx_HAL_Driver/Src/stm32f4xx_hal_rtc_ex.c ****     }
 642:Drivers/STM32F4xx_HAL_Driver/Src/stm32f4xx_hal_rtc_ex.c ****   }
 643:Drivers/STM32F4xx_HAL_Driver/Src/stm32f4xx_hal_rtc_ex.c **** 
 644:Drivers/STM32F4xx_HAL_Driver/Src/stm32f4xx_hal_rtc_ex.c **** #if defined(RTC_TAMPER2_SUPPORT)
 645:Drivers/STM32F4xx_HAL_Driver/Src/stm32f4xx_hal_rtc_ex.c ****   /* Get the Tamper 2 interrupt source enable status */
 646:Drivers/STM32F4xx_HAL_Driver/Src/stm32f4xx_hal_rtc_ex.c ****   if (__HAL_RTC_TAMPER_GET_IT_SOURCE(hrtc, RTC_IT_TAMP) != 0U)
 647:Drivers/STM32F4xx_HAL_Driver/Src/stm32f4xx_hal_rtc_ex.c ****   {
 648:Drivers/STM32F4xx_HAL_Driver/Src/stm32f4xx_hal_rtc_ex.c ****     /* Get the pending status of the Tamper 2 Interrupt */
 649:Drivers/STM32F4xx_HAL_Driver/Src/stm32f4xx_hal_rtc_ex.c ****     if (__HAL_RTC_TAMPER_GET_FLAG(hrtc, RTC_FLAG_TAMP2F) != 0U)
 650:Drivers/STM32F4xx_HAL_Driver/Src/stm32f4xx_hal_rtc_ex.c ****     {
 651:Drivers/STM32F4xx_HAL_Driver/Src/stm32f4xx_hal_rtc_ex.c ****       /* Tamper callback */
 652:Drivers/STM32F4xx_HAL_Driver/Src/stm32f4xx_hal_rtc_ex.c **** #if (USE_HAL_RTC_REGISTER_CALLBACKS == 1)
 653:Drivers/STM32F4xx_HAL_Driver/Src/stm32f4xx_hal_rtc_ex.c ****       hrtc->Tamper2EventCallback(hrtc);
 654:Drivers/STM32F4xx_HAL_Driver/Src/stm32f4xx_hal_rtc_ex.c **** #else
 655:Drivers/STM32F4xx_HAL_Driver/Src/stm32f4xx_hal_rtc_ex.c ****       HAL_RTCEx_Tamper2EventCallback(hrtc);
 656:Drivers/STM32F4xx_HAL_Driver/Src/stm32f4xx_hal_rtc_ex.c **** #endif /* USE_HAL_RTC_REGISTER_CALLBACKS */
 657:Drivers/STM32F4xx_HAL_Driver/Src/stm32f4xx_hal_rtc_ex.c **** 
 658:Drivers/STM32F4xx_HAL_Driver/Src/stm32f4xx_hal_rtc_ex.c ****       /* Clear the Tamper interrupt pending bit */
 659:Drivers/STM32F4xx_HAL_Driver/Src/stm32f4xx_hal_rtc_ex.c ****       __HAL_RTC_TAMPER_CLEAR_FLAG(hrtc, RTC_FLAG_TAMP2F);
 660:Drivers/STM32F4xx_HAL_Driver/Src/stm32f4xx_hal_rtc_ex.c ****     }
 661:Drivers/STM32F4xx_HAL_Driver/Src/stm32f4xx_hal_rtc_ex.c ****   }
 662:Drivers/STM32F4xx_HAL_Driver/Src/stm32f4xx_hal_rtc_ex.c **** #endif /* RTC_TAMPER2_SUPPORT */
 663:Drivers/STM32F4xx_HAL_Driver/Src/stm32f4xx_hal_rtc_ex.c **** 
 664:Drivers/STM32F4xx_HAL_Driver/Src/stm32f4xx_hal_rtc_ex.c ****   /* Clear the EXTI's Flag for RTC Timestamp and Tamper */
 665:Drivers/STM32F4xx_HAL_Driver/Src/stm32f4xx_hal_rtc_ex.c ****   __HAL_RTC_TAMPER_TIMESTAMP_EXTI_CLEAR_FLAG();
 666:Drivers/STM32F4xx_HAL_Driver/Src/stm32f4xx_hal_rtc_ex.c **** 
 667:Drivers/STM32F4xx_HAL_Driver/Src/stm32f4xx_hal_rtc_ex.c ****   /* Change RTC state */
 668:Drivers/STM32F4xx_HAL_Driver/Src/stm32f4xx_hal_rtc_ex.c ****   hrtc->State = HAL_RTC_STATE_READY;
 669:Drivers/STM32F4xx_HAL_Driver/Src/stm32f4xx_hal_rtc_ex.c **** }
 670:Drivers/STM32F4xx_HAL_Driver/Src/stm32f4xx_hal_rtc_ex.c **** 
 671:Drivers/STM32F4xx_HAL_Driver/Src/stm32f4xx_hal_rtc_ex.c **** /**
 672:Drivers/STM32F4xx_HAL_Driver/Src/stm32f4xx_hal_rtc_ex.c ****   * @brief  Timestamp callback.
 673:Drivers/STM32F4xx_HAL_Driver/Src/stm32f4xx_hal_rtc_ex.c ****   * @param  hrtc pointer to a RTC_HandleTypeDef structure that contains
 674:Drivers/STM32F4xx_HAL_Driver/Src/stm32f4xx_hal_rtc_ex.c ****   *                the configuration information for RTC.
 675:Drivers/STM32F4xx_HAL_Driver/Src/stm32f4xx_hal_rtc_ex.c ****   * @retval None
 676:Drivers/STM32F4xx_HAL_Driver/Src/stm32f4xx_hal_rtc_ex.c ****   */
 677:Drivers/STM32F4xx_HAL_Driver/Src/stm32f4xx_hal_rtc_ex.c **** __weak void HAL_RTCEx_TimeStampEventCallback(RTC_HandleTypeDef *hrtc)
 678:Drivers/STM32F4xx_HAL_Driver/Src/stm32f4xx_hal_rtc_ex.c **** {
 947              		.loc 1 678 1 is_stmt 1 view -0
 948              		.cfi_startproc
 949              		@ args = 0, pretend = 0, frame = 0
 950              		@ frame_needed = 0, uses_anonymous_args = 0
 951              		@ link register save eliminated.
ARM GAS  /tmp/ccKeTRIy.s 			page 30


 679:Drivers/STM32F4xx_HAL_Driver/Src/stm32f4xx_hal_rtc_ex.c ****   /* Prevent unused argument(s) compilation warning */
 680:Drivers/STM32F4xx_HAL_Driver/Src/stm32f4xx_hal_rtc_ex.c ****   UNUSED(hrtc);
 952              		.loc 1 680 3 view .LVU335
 681:Drivers/STM32F4xx_HAL_Driver/Src/stm32f4xx_hal_rtc_ex.c **** 
 682:Drivers/STM32F4xx_HAL_Driver/Src/stm32f4xx_hal_rtc_ex.c ****   /* NOTE: This function should not be modified, when the callback is needed,
 683:Drivers/STM32F4xx_HAL_Driver/Src/stm32f4xx_hal_rtc_ex.c ****            the HAL_RTCEx_TimeStampEventCallback could be implemented in the user file
 684:Drivers/STM32F4xx_HAL_Driver/Src/stm32f4xx_hal_rtc_ex.c ****   */
 685:Drivers/STM32F4xx_HAL_Driver/Src/stm32f4xx_hal_rtc_ex.c **** }
 953              		.loc 1 685 1 is_stmt 0 view .LVU336
 954 0000 7047     		bx	lr
 955              		.cfi_endproc
 956              	.LFE138:
 958              		.section	.text.HAL_RTCEx_Tamper1EventCallback,"ax",%progbits
 959              		.align	1
 960              		.weak	HAL_RTCEx_Tamper1EventCallback
 961              		.syntax unified
 962              		.thumb
 963              		.thumb_func
 964              		.fpu fpv4-sp-d16
 966              	HAL_RTCEx_Tamper1EventCallback:
 967              	.LVL77:
 968              	.LFB139:
 686:Drivers/STM32F4xx_HAL_Driver/Src/stm32f4xx_hal_rtc_ex.c **** 
 687:Drivers/STM32F4xx_HAL_Driver/Src/stm32f4xx_hal_rtc_ex.c **** /**
 688:Drivers/STM32F4xx_HAL_Driver/Src/stm32f4xx_hal_rtc_ex.c ****   * @brief  Tamper 1 callback.
 689:Drivers/STM32F4xx_HAL_Driver/Src/stm32f4xx_hal_rtc_ex.c ****   * @param  hrtc pointer to a RTC_HandleTypeDef structure that contains
 690:Drivers/STM32F4xx_HAL_Driver/Src/stm32f4xx_hal_rtc_ex.c ****   *                the configuration information for RTC.
 691:Drivers/STM32F4xx_HAL_Driver/Src/stm32f4xx_hal_rtc_ex.c ****   * @retval None
 692:Drivers/STM32F4xx_HAL_Driver/Src/stm32f4xx_hal_rtc_ex.c ****   */
 693:Drivers/STM32F4xx_HAL_Driver/Src/stm32f4xx_hal_rtc_ex.c **** __weak void HAL_RTCEx_Tamper1EventCallback(RTC_HandleTypeDef *hrtc)
 694:Drivers/STM32F4xx_HAL_Driver/Src/stm32f4xx_hal_rtc_ex.c **** {
 969              		.loc 1 694 1 is_stmt 1 view -0
 970              		.cfi_startproc
 971              		@ args = 0, pretend = 0, frame = 0
 972              		@ frame_needed = 0, uses_anonymous_args = 0
 973              		@ link register save eliminated.
 695:Drivers/STM32F4xx_HAL_Driver/Src/stm32f4xx_hal_rtc_ex.c ****   /* Prevent unused argument(s) compilation warning */
 696:Drivers/STM32F4xx_HAL_Driver/Src/stm32f4xx_hal_rtc_ex.c ****   UNUSED(hrtc);
 974              		.loc 1 696 3 view .LVU338
 697:Drivers/STM32F4xx_HAL_Driver/Src/stm32f4xx_hal_rtc_ex.c **** 
 698:Drivers/STM32F4xx_HAL_Driver/Src/stm32f4xx_hal_rtc_ex.c ****   /* NOTE: This function should not be modified, when the callback is needed,
 699:Drivers/STM32F4xx_HAL_Driver/Src/stm32f4xx_hal_rtc_ex.c ****            the HAL_RTCEx_Tamper1EventCallback could be implemented in the user file
 700:Drivers/STM32F4xx_HAL_Driver/Src/stm32f4xx_hal_rtc_ex.c ****    */
 701:Drivers/STM32F4xx_HAL_Driver/Src/stm32f4xx_hal_rtc_ex.c **** }
 975              		.loc 1 701 1 is_stmt 0 view .LVU339
 976 0000 7047     		bx	lr
 977              		.cfi_endproc
 978              	.LFE139:
 980              		.section	.text.HAL_RTCEx_Tamper2EventCallback,"ax",%progbits
 981              		.align	1
 982              		.weak	HAL_RTCEx_Tamper2EventCallback
 983              		.syntax unified
 984              		.thumb
 985              		.thumb_func
 986              		.fpu fpv4-sp-d16
 988              	HAL_RTCEx_Tamper2EventCallback:
 989              	.LVL78:
ARM GAS  /tmp/ccKeTRIy.s 			page 31


 990              	.LFB140:
 702:Drivers/STM32F4xx_HAL_Driver/Src/stm32f4xx_hal_rtc_ex.c **** 
 703:Drivers/STM32F4xx_HAL_Driver/Src/stm32f4xx_hal_rtc_ex.c **** #if defined(RTC_TAMPER2_SUPPORT)
 704:Drivers/STM32F4xx_HAL_Driver/Src/stm32f4xx_hal_rtc_ex.c **** /**
 705:Drivers/STM32F4xx_HAL_Driver/Src/stm32f4xx_hal_rtc_ex.c ****   * @brief  Tamper 2 callback.
 706:Drivers/STM32F4xx_HAL_Driver/Src/stm32f4xx_hal_rtc_ex.c ****   * @param  hrtc pointer to a RTC_HandleTypeDef structure that contains
 707:Drivers/STM32F4xx_HAL_Driver/Src/stm32f4xx_hal_rtc_ex.c ****   *                the configuration information for RTC.
 708:Drivers/STM32F4xx_HAL_Driver/Src/stm32f4xx_hal_rtc_ex.c ****   * @retval None
 709:Drivers/STM32F4xx_HAL_Driver/Src/stm32f4xx_hal_rtc_ex.c ****   */
 710:Drivers/STM32F4xx_HAL_Driver/Src/stm32f4xx_hal_rtc_ex.c **** __weak void HAL_RTCEx_Tamper2EventCallback(RTC_HandleTypeDef *hrtc)
 711:Drivers/STM32F4xx_HAL_Driver/Src/stm32f4xx_hal_rtc_ex.c **** {
 991              		.loc 1 711 1 is_stmt 1 view -0
 992              		.cfi_startproc
 993              		@ args = 0, pretend = 0, frame = 0
 994              		@ frame_needed = 0, uses_anonymous_args = 0
 995              		@ link register save eliminated.
 712:Drivers/STM32F4xx_HAL_Driver/Src/stm32f4xx_hal_rtc_ex.c ****   /* Prevent unused argument(s) compilation warning */
 713:Drivers/STM32F4xx_HAL_Driver/Src/stm32f4xx_hal_rtc_ex.c ****   UNUSED(hrtc);
 996              		.loc 1 713 3 view .LVU341
 714:Drivers/STM32F4xx_HAL_Driver/Src/stm32f4xx_hal_rtc_ex.c **** 
 715:Drivers/STM32F4xx_HAL_Driver/Src/stm32f4xx_hal_rtc_ex.c ****   /* NOTE: This function should not be modified, when the callback is needed,
 716:Drivers/STM32F4xx_HAL_Driver/Src/stm32f4xx_hal_rtc_ex.c ****            the HAL_RTCEx_Tamper2EventCallback could be implemented in the user file
 717:Drivers/STM32F4xx_HAL_Driver/Src/stm32f4xx_hal_rtc_ex.c ****    */
 718:Drivers/STM32F4xx_HAL_Driver/Src/stm32f4xx_hal_rtc_ex.c **** }
 997              		.loc 1 718 1 is_stmt 0 view .LVU342
 998 0000 7047     		bx	lr
 999              		.cfi_endproc
 1000              	.LFE140:
 1002              		.section	.text.HAL_RTCEx_TamperTimeStampIRQHandler,"ax",%progbits
 1003              		.align	1
 1004              		.global	HAL_RTCEx_TamperTimeStampIRQHandler
 1005              		.syntax unified
 1006              		.thumb
 1007              		.thumb_func
 1008              		.fpu fpv4-sp-d16
 1010              	HAL_RTCEx_TamperTimeStampIRQHandler:
 1011              	.LVL79:
 1012              	.LFB137:
 607:Drivers/STM32F4xx_HAL_Driver/Src/stm32f4xx_hal_rtc_ex.c ****   /* Get the Timestamp interrupt source enable status */
 1013              		.loc 1 607 1 is_stmt 1 view -0
 1014              		.cfi_startproc
 1015              		@ args = 0, pretend = 0, frame = 0
 1016              		@ frame_needed = 0, uses_anonymous_args = 0
 607:Drivers/STM32F4xx_HAL_Driver/Src/stm32f4xx_hal_rtc_ex.c ****   /* Get the Timestamp interrupt source enable status */
 1017              		.loc 1 607 1 is_stmt 0 view .LVU344
 1018 0000 10B5     		push	{r4, lr}
 1019              	.LCFI15:
 1020              		.cfi_def_cfa_offset 8
 1021              		.cfi_offset 4, -8
 1022              		.cfi_offset 14, -4
 1023 0002 0446     		mov	r4, r0
 609:Drivers/STM32F4xx_HAL_Driver/Src/stm32f4xx_hal_rtc_ex.c ****   {
 1024              		.loc 1 609 3 is_stmt 1 view .LVU345
 609:Drivers/STM32F4xx_HAL_Driver/Src/stm32f4xx_hal_rtc_ex.c ****   {
 1025              		.loc 1 609 7 is_stmt 0 view .LVU346
 1026 0004 0368     		ldr	r3, [r0]
 1027 0006 9A68     		ldr	r2, [r3, #8]
ARM GAS  /tmp/ccKeTRIy.s 			page 32


 609:Drivers/STM32F4xx_HAL_Driver/Src/stm32f4xx_hal_rtc_ex.c ****   {
 1028              		.loc 1 609 6 view .LVU347
 1029 0008 12F4004F 		tst	r2, #32768
 1030 000c 03D0     		beq	.L57
 612:Drivers/STM32F4xx_HAL_Driver/Src/stm32f4xx_hal_rtc_ex.c ****     {
 1031              		.loc 1 612 5 is_stmt 1 view .LVU348
 612:Drivers/STM32F4xx_HAL_Driver/Src/stm32f4xx_hal_rtc_ex.c ****     {
 1032              		.loc 1 612 9 is_stmt 0 view .LVU349
 1033 000e DB68     		ldr	r3, [r3, #12]
 612:Drivers/STM32F4xx_HAL_Driver/Src/stm32f4xx_hal_rtc_ex.c ****     {
 1034              		.loc 1 612 8 view .LVU350
 1035 0010 13F4006F 		tst	r3, #2048
 1036 0014 18D1     		bne	.L61
 1037              	.LVL80:
 1038              	.L57:
 627:Drivers/STM32F4xx_HAL_Driver/Src/stm32f4xx_hal_rtc_ex.c ****   {
 1039              		.loc 1 627 3 is_stmt 1 view .LVU351
 627:Drivers/STM32F4xx_HAL_Driver/Src/stm32f4xx_hal_rtc_ex.c ****   {
 1040              		.loc 1 627 7 is_stmt 0 view .LVU352
 1041 0016 2368     		ldr	r3, [r4]
 1042 0018 1A6C     		ldr	r2, [r3, #64]
 627:Drivers/STM32F4xx_HAL_Driver/Src/stm32f4xx_hal_rtc_ex.c ****   {
 1043              		.loc 1 627 6 view .LVU353
 1044 001a 12F0040F 		tst	r2, #4
 1045 001e 03D0     		beq	.L58
 630:Drivers/STM32F4xx_HAL_Driver/Src/stm32f4xx_hal_rtc_ex.c ****     {
 1046              		.loc 1 630 5 is_stmt 1 view .LVU354
 630:Drivers/STM32F4xx_HAL_Driver/Src/stm32f4xx_hal_rtc_ex.c ****     {
 1047              		.loc 1 630 9 is_stmt 0 view .LVU355
 1048 0020 DB68     		ldr	r3, [r3, #12]
 630:Drivers/STM32F4xx_HAL_Driver/Src/stm32f4xx_hal_rtc_ex.c ****     {
 1049              		.loc 1 630 8 view .LVU356
 1050 0022 13F4005F 		tst	r3, #8192
 1051 0026 18D1     		bne	.L62
 1052              	.L58:
 646:Drivers/STM32F4xx_HAL_Driver/Src/stm32f4xx_hal_rtc_ex.c ****   {
 1053              		.loc 1 646 3 is_stmt 1 view .LVU357
 646:Drivers/STM32F4xx_HAL_Driver/Src/stm32f4xx_hal_rtc_ex.c ****   {
 1054              		.loc 1 646 7 is_stmt 0 view .LVU358
 1055 0028 2368     		ldr	r3, [r4]
 1056 002a 1A6C     		ldr	r2, [r3, #64]
 646:Drivers/STM32F4xx_HAL_Driver/Src/stm32f4xx_hal_rtc_ex.c ****   {
 1057              		.loc 1 646 6 view .LVU359
 1058 002c 12F0040F 		tst	r2, #4
 1059 0030 03D0     		beq	.L59
 649:Drivers/STM32F4xx_HAL_Driver/Src/stm32f4xx_hal_rtc_ex.c ****     {
 1060              		.loc 1 649 5 is_stmt 1 view .LVU360
 649:Drivers/STM32F4xx_HAL_Driver/Src/stm32f4xx_hal_rtc_ex.c ****     {
 1061              		.loc 1 649 9 is_stmt 0 view .LVU361
 1062 0032 DB68     		ldr	r3, [r3, #12]
 649:Drivers/STM32F4xx_HAL_Driver/Src/stm32f4xx_hal_rtc_ex.c ****     {
 1063              		.loc 1 649 8 view .LVU362
 1064 0034 13F4804F 		tst	r3, #16384
 1065 0038 19D1     		bne	.L63
 1066              	.L59:
 665:Drivers/STM32F4xx_HAL_Driver/Src/stm32f4xx_hal_rtc_ex.c **** 
 1067              		.loc 1 665 3 is_stmt 1 view .LVU363
ARM GAS  /tmp/ccKeTRIy.s 			page 33


 1068 003a 124B     		ldr	r3, .L64
 1069 003c 4FF40012 		mov	r2, #2097152
 1070 0040 5A61     		str	r2, [r3, #20]
 668:Drivers/STM32F4xx_HAL_Driver/Src/stm32f4xx_hal_rtc_ex.c **** }
 1071              		.loc 1 668 3 view .LVU364
 668:Drivers/STM32F4xx_HAL_Driver/Src/stm32f4xx_hal_rtc_ex.c **** }
 1072              		.loc 1 668 15 is_stmt 0 view .LVU365
 1073 0042 0123     		movs	r3, #1
 1074 0044 6377     		strb	r3, [r4, #29]
 669:Drivers/STM32F4xx_HAL_Driver/Src/stm32f4xx_hal_rtc_ex.c **** 
 1075              		.loc 1 669 1 view .LVU366
 1076 0046 10BD     		pop	{r4, pc}
 1077              	.LVL81:
 1078              	.L61:
 618:Drivers/STM32F4xx_HAL_Driver/Src/stm32f4xx_hal_rtc_ex.c **** #endif /* USE_HAL_RTC_REGISTER_CALLBACKS */
 1079              		.loc 1 618 7 is_stmt 1 view .LVU367
 1080 0048 FFF7FEFF 		bl	HAL_RTCEx_TimeStampEventCallback
 1081              	.LVL82:
 622:Drivers/STM32F4xx_HAL_Driver/Src/stm32f4xx_hal_rtc_ex.c ****     }
 1082              		.loc 1 622 7 view .LVU368
 1083 004c 2268     		ldr	r2, [r4]
 1084 004e D368     		ldr	r3, [r2, #12]
 1085 0050 DBB2     		uxtb	r3, r3
 1086 0052 63F40863 		orn	r3, r3, #2176
 1087 0056 D360     		str	r3, [r2, #12]
 1088 0058 DDE7     		b	.L57
 1089              	.L62:
 636:Drivers/STM32F4xx_HAL_Driver/Src/stm32f4xx_hal_rtc_ex.c **** #endif /* USE_HAL_RTC_REGISTER_CALLBACKS */
 1090              		.loc 1 636 7 view .LVU369
 1091 005a 2046     		mov	r0, r4
 1092 005c FFF7FEFF 		bl	HAL_RTCEx_Tamper1EventCallback
 1093              	.LVL83:
 640:Drivers/STM32F4xx_HAL_Driver/Src/stm32f4xx_hal_rtc_ex.c ****     }
 1094              		.loc 1 640 7 view .LVU370
 1095 0060 2268     		ldr	r2, [r4]
 1096 0062 D368     		ldr	r3, [r2, #12]
 1097 0064 DBB2     		uxtb	r3, r3
 1098 0066 63F40253 		orn	r3, r3, #8320
 1099 006a D360     		str	r3, [r2, #12]
 1100 006c DCE7     		b	.L58
 1101              	.L63:
 655:Drivers/STM32F4xx_HAL_Driver/Src/stm32f4xx_hal_rtc_ex.c **** #endif /* USE_HAL_RTC_REGISTER_CALLBACKS */
 1102              		.loc 1 655 7 view .LVU371
 1103 006e 2046     		mov	r0, r4
 1104 0070 FFF7FEFF 		bl	HAL_RTCEx_Tamper2EventCallback
 1105              	.LVL84:
 659:Drivers/STM32F4xx_HAL_Driver/Src/stm32f4xx_hal_rtc_ex.c ****     }
 1106              		.loc 1 659 7 view .LVU372
 1107 0074 2268     		ldr	r2, [r4]
 1108 0076 D368     		ldr	r3, [r2, #12]
 1109 0078 DBB2     		uxtb	r3, r3
 1110 007a 63F48143 		orn	r3, r3, #16512
 1111 007e D360     		str	r3, [r2, #12]
 1112 0080 DBE7     		b	.L59
 1113              	.L65:
 1114 0082 00BF     		.align	2
 1115              	.L64:
ARM GAS  /tmp/ccKeTRIy.s 			page 34


 1116 0084 003C0140 		.word	1073822720
 1117              		.cfi_endproc
 1118              	.LFE137:
 1120              		.section	.text.HAL_RTCEx_PollForTimeStampEvent,"ax",%progbits
 1121              		.align	1
 1122              		.global	HAL_RTCEx_PollForTimeStampEvent
 1123              		.syntax unified
 1124              		.thumb
 1125              		.thumb_func
 1126              		.fpu fpv4-sp-d16
 1128              	HAL_RTCEx_PollForTimeStampEvent:
 1129              	.LVL85:
 1130              	.LFB141:
 719:Drivers/STM32F4xx_HAL_Driver/Src/stm32f4xx_hal_rtc_ex.c **** #endif /* RTC_TAMPER2_SUPPORT */
 720:Drivers/STM32F4xx_HAL_Driver/Src/stm32f4xx_hal_rtc_ex.c **** 
 721:Drivers/STM32F4xx_HAL_Driver/Src/stm32f4xx_hal_rtc_ex.c **** /**
 722:Drivers/STM32F4xx_HAL_Driver/Src/stm32f4xx_hal_rtc_ex.c ****   * @brief  Handles Timestamp polling request.
 723:Drivers/STM32F4xx_HAL_Driver/Src/stm32f4xx_hal_rtc_ex.c ****   * @param  hrtc pointer to a RTC_HandleTypeDef structure that contains
 724:Drivers/STM32F4xx_HAL_Driver/Src/stm32f4xx_hal_rtc_ex.c ****   *                the configuration information for RTC.
 725:Drivers/STM32F4xx_HAL_Driver/Src/stm32f4xx_hal_rtc_ex.c ****   * @param  Timeout Timeout duration
 726:Drivers/STM32F4xx_HAL_Driver/Src/stm32f4xx_hal_rtc_ex.c ****   * @retval HAL status
 727:Drivers/STM32F4xx_HAL_Driver/Src/stm32f4xx_hal_rtc_ex.c ****   */
 728:Drivers/STM32F4xx_HAL_Driver/Src/stm32f4xx_hal_rtc_ex.c **** HAL_StatusTypeDef HAL_RTCEx_PollForTimeStampEvent(RTC_HandleTypeDef *hrtc, uint32_t Timeout)
 729:Drivers/STM32F4xx_HAL_Driver/Src/stm32f4xx_hal_rtc_ex.c **** {
 1131              		.loc 1 729 1 view -0
 1132              		.cfi_startproc
 1133              		@ args = 0, pretend = 0, frame = 0
 1134              		@ frame_needed = 0, uses_anonymous_args = 0
 1135              		.loc 1 729 1 is_stmt 0 view .LVU374
 1136 0000 70B5     		push	{r4, r5, r6, lr}
 1137              	.LCFI16:
 1138              		.cfi_def_cfa_offset 16
 1139              		.cfi_offset 4, -16
 1140              		.cfi_offset 5, -12
 1141              		.cfi_offset 6, -8
 1142              		.cfi_offset 14, -4
 1143 0002 0546     		mov	r5, r0
 1144 0004 0C46     		mov	r4, r1
 730:Drivers/STM32F4xx_HAL_Driver/Src/stm32f4xx_hal_rtc_ex.c ****   uint32_t tickstart = 0U;
 1145              		.loc 1 730 3 is_stmt 1 view .LVU375
 1146              	.LVL86:
 731:Drivers/STM32F4xx_HAL_Driver/Src/stm32f4xx_hal_rtc_ex.c **** 
 732:Drivers/STM32F4xx_HAL_Driver/Src/stm32f4xx_hal_rtc_ex.c ****   /* Get tick */
 733:Drivers/STM32F4xx_HAL_Driver/Src/stm32f4xx_hal_rtc_ex.c ****   tickstart = HAL_GetTick();
 1147              		.loc 1 733 3 view .LVU376
 1148              		.loc 1 733 15 is_stmt 0 view .LVU377
 1149 0006 FFF7FEFF 		bl	HAL_GetTick
 1150              	.LVL87:
 1151              		.loc 1 733 15 view .LVU378
 1152 000a 0646     		mov	r6, r0
 1153              	.LVL88:
 734:Drivers/STM32F4xx_HAL_Driver/Src/stm32f4xx_hal_rtc_ex.c **** 
 735:Drivers/STM32F4xx_HAL_Driver/Src/stm32f4xx_hal_rtc_ex.c ****   while (__HAL_RTC_TIMESTAMP_GET_FLAG(hrtc, RTC_FLAG_TSF) == 0U)
 1154              		.loc 1 735 3 is_stmt 1 view .LVU379
 1155              		.loc 1 735 9 is_stmt 0 view .LVU380
 1156 000c 04E0     		b	.L67
 1157              	.LVL89:
ARM GAS  /tmp/ccKeTRIy.s 			page 35


 1158              	.L68:
 736:Drivers/STM32F4xx_HAL_Driver/Src/stm32f4xx_hal_rtc_ex.c ****   {
 737:Drivers/STM32F4xx_HAL_Driver/Src/stm32f4xx_hal_rtc_ex.c ****     if (Timeout != HAL_MAX_DELAY)
 738:Drivers/STM32F4xx_HAL_Driver/Src/stm32f4xx_hal_rtc_ex.c ****     {
 739:Drivers/STM32F4xx_HAL_Driver/Src/stm32f4xx_hal_rtc_ex.c ****       if ((Timeout == 0U) || ((HAL_GetTick() - tickstart) > Timeout))
 740:Drivers/STM32F4xx_HAL_Driver/Src/stm32f4xx_hal_rtc_ex.c ****       {
 741:Drivers/STM32F4xx_HAL_Driver/Src/stm32f4xx_hal_rtc_ex.c ****         hrtc->State = HAL_RTC_STATE_TIMEOUT;
 742:Drivers/STM32F4xx_HAL_Driver/Src/stm32f4xx_hal_rtc_ex.c ****         return HAL_TIMEOUT;
 743:Drivers/STM32F4xx_HAL_Driver/Src/stm32f4xx_hal_rtc_ex.c ****       }
 744:Drivers/STM32F4xx_HAL_Driver/Src/stm32f4xx_hal_rtc_ex.c ****     }
 745:Drivers/STM32F4xx_HAL_Driver/Src/stm32f4xx_hal_rtc_ex.c **** 
 746:Drivers/STM32F4xx_HAL_Driver/Src/stm32f4xx_hal_rtc_ex.c ****     if (__HAL_RTC_TIMESTAMP_GET_FLAG(hrtc, RTC_FLAG_TSOVF) != 0U)
 1159              		.loc 1 746 5 is_stmt 1 view .LVU381
 1160              		.loc 1 746 9 is_stmt 0 view .LVU382
 1161 000e 2B68     		ldr	r3, [r5]
 1162 0010 DA68     		ldr	r2, [r3, #12]
 1163              		.loc 1 746 8 view .LVU383
 1164 0012 12F4805F 		tst	r2, #4096
 1165 0016 10D1     		bne	.L73
 1166              	.L67:
 735:Drivers/STM32F4xx_HAL_Driver/Src/stm32f4xx_hal_rtc_ex.c ****   {
 1167              		.loc 1 735 9 is_stmt 1 view .LVU384
 735:Drivers/STM32F4xx_HAL_Driver/Src/stm32f4xx_hal_rtc_ex.c ****   {
 1168              		.loc 1 735 10 is_stmt 0 view .LVU385
 1169 0018 2B68     		ldr	r3, [r5]
 1170 001a DB68     		ldr	r3, [r3, #12]
 735:Drivers/STM32F4xx_HAL_Driver/Src/stm32f4xx_hal_rtc_ex.c ****   {
 1171              		.loc 1 735 9 view .LVU386
 1172 001c 13F4006F 		tst	r3, #2048
 1173 0020 14D1     		bne	.L74
 737:Drivers/STM32F4xx_HAL_Driver/Src/stm32f4xx_hal_rtc_ex.c ****     {
 1174              		.loc 1 737 5 is_stmt 1 view .LVU387
 737:Drivers/STM32F4xx_HAL_Driver/Src/stm32f4xx_hal_rtc_ex.c ****     {
 1175              		.loc 1 737 8 is_stmt 0 view .LVU388
 1176 0022 B4F1FF3F 		cmp	r4, #-1
 1177 0026 F2D0     		beq	.L68
 739:Drivers/STM32F4xx_HAL_Driver/Src/stm32f4xx_hal_rtc_ex.c ****       {
 1178              		.loc 1 739 7 is_stmt 1 view .LVU389
 739:Drivers/STM32F4xx_HAL_Driver/Src/stm32f4xx_hal_rtc_ex.c ****       {
 1179              		.loc 1 739 10 is_stmt 0 view .LVU390
 1180 0028 24B1     		cbz	r4, .L69
 739:Drivers/STM32F4xx_HAL_Driver/Src/stm32f4xx_hal_rtc_ex.c ****       {
 1181              		.loc 1 739 32 discriminator 1 view .LVU391
 1182 002a FFF7FEFF 		bl	HAL_GetTick
 1183              	.LVL90:
 739:Drivers/STM32F4xx_HAL_Driver/Src/stm32f4xx_hal_rtc_ex.c ****       {
 1184              		.loc 1 739 46 discriminator 1 view .LVU392
 1185 002e 831B     		subs	r3, r0, r6
 739:Drivers/STM32F4xx_HAL_Driver/Src/stm32f4xx_hal_rtc_ex.c ****       {
 1186              		.loc 1 739 27 discriminator 1 view .LVU393
 1187 0030 A342     		cmp	r3, r4
 1188 0032 ECD9     		bls	.L68
 1189              	.L69:
 741:Drivers/STM32F4xx_HAL_Driver/Src/stm32f4xx_hal_rtc_ex.c ****         return HAL_TIMEOUT;
 1190              		.loc 1 741 9 is_stmt 1 view .LVU394
 741:Drivers/STM32F4xx_HAL_Driver/Src/stm32f4xx_hal_rtc_ex.c ****         return HAL_TIMEOUT;
 1191              		.loc 1 741 21 is_stmt 0 view .LVU395
ARM GAS  /tmp/ccKeTRIy.s 			page 36


 1192 0034 0320     		movs	r0, #3
 1193 0036 6877     		strb	r0, [r5, #29]
 742:Drivers/STM32F4xx_HAL_Driver/Src/stm32f4xx_hal_rtc_ex.c ****       }
 1194              		.loc 1 742 9 is_stmt 1 view .LVU396
 1195              	.L70:
 747:Drivers/STM32F4xx_HAL_Driver/Src/stm32f4xx_hal_rtc_ex.c ****     {
 748:Drivers/STM32F4xx_HAL_Driver/Src/stm32f4xx_hal_rtc_ex.c ****       /* Clear the Timestamp Overrun Flag */
 749:Drivers/STM32F4xx_HAL_Driver/Src/stm32f4xx_hal_rtc_ex.c ****       __HAL_RTC_TIMESTAMP_CLEAR_FLAG(hrtc, RTC_FLAG_TSOVF);
 750:Drivers/STM32F4xx_HAL_Driver/Src/stm32f4xx_hal_rtc_ex.c **** 
 751:Drivers/STM32F4xx_HAL_Driver/Src/stm32f4xx_hal_rtc_ex.c ****       /* Change Timestamp state */
 752:Drivers/STM32F4xx_HAL_Driver/Src/stm32f4xx_hal_rtc_ex.c ****       hrtc->State = HAL_RTC_STATE_ERROR;
 753:Drivers/STM32F4xx_HAL_Driver/Src/stm32f4xx_hal_rtc_ex.c **** 
 754:Drivers/STM32F4xx_HAL_Driver/Src/stm32f4xx_hal_rtc_ex.c ****       return HAL_ERROR;
 755:Drivers/STM32F4xx_HAL_Driver/Src/stm32f4xx_hal_rtc_ex.c ****     }
 756:Drivers/STM32F4xx_HAL_Driver/Src/stm32f4xx_hal_rtc_ex.c ****   }
 757:Drivers/STM32F4xx_HAL_Driver/Src/stm32f4xx_hal_rtc_ex.c **** 
 758:Drivers/STM32F4xx_HAL_Driver/Src/stm32f4xx_hal_rtc_ex.c ****   /* Change RTC state */
 759:Drivers/STM32F4xx_HAL_Driver/Src/stm32f4xx_hal_rtc_ex.c ****   hrtc->State = HAL_RTC_STATE_READY;
 760:Drivers/STM32F4xx_HAL_Driver/Src/stm32f4xx_hal_rtc_ex.c **** 
 761:Drivers/STM32F4xx_HAL_Driver/Src/stm32f4xx_hal_rtc_ex.c ****   return HAL_OK;
 762:Drivers/STM32F4xx_HAL_Driver/Src/stm32f4xx_hal_rtc_ex.c **** }
 1196              		.loc 1 762 1 is_stmt 0 view .LVU397
 1197 0038 70BD     		pop	{r4, r5, r6, pc}
 1198              	.LVL91:
 1199              	.L73:
 749:Drivers/STM32F4xx_HAL_Driver/Src/stm32f4xx_hal_rtc_ex.c **** 
 1200              		.loc 1 749 7 is_stmt 1 view .LVU398
 1201 003a DA68     		ldr	r2, [r3, #12]
 1202 003c D2B2     		uxtb	r2, r2
 1203 003e 62F48452 		orn	r2, r2, #4224
 1204 0042 DA60     		str	r2, [r3, #12]
 752:Drivers/STM32F4xx_HAL_Driver/Src/stm32f4xx_hal_rtc_ex.c **** 
 1205              		.loc 1 752 7 view .LVU399
 752:Drivers/STM32F4xx_HAL_Driver/Src/stm32f4xx_hal_rtc_ex.c **** 
 1206              		.loc 1 752 19 is_stmt 0 view .LVU400
 1207 0044 0423     		movs	r3, #4
 1208 0046 6B77     		strb	r3, [r5, #29]
 754:Drivers/STM32F4xx_HAL_Driver/Src/stm32f4xx_hal_rtc_ex.c ****     }
 1209              		.loc 1 754 7 is_stmt 1 view .LVU401
 754:Drivers/STM32F4xx_HAL_Driver/Src/stm32f4xx_hal_rtc_ex.c ****     }
 1210              		.loc 1 754 14 is_stmt 0 view .LVU402
 1211 0048 0120     		movs	r0, #1
 1212 004a F5E7     		b	.L70
 1213              	.L74:
 759:Drivers/STM32F4xx_HAL_Driver/Src/stm32f4xx_hal_rtc_ex.c **** 
 1214              		.loc 1 759 3 is_stmt 1 view .LVU403
 759:Drivers/STM32F4xx_HAL_Driver/Src/stm32f4xx_hal_rtc_ex.c **** 
 1215              		.loc 1 759 15 is_stmt 0 view .LVU404
 1216 004c 0123     		movs	r3, #1
 1217 004e 6B77     		strb	r3, [r5, #29]
 761:Drivers/STM32F4xx_HAL_Driver/Src/stm32f4xx_hal_rtc_ex.c **** }
 1218              		.loc 1 761 3 is_stmt 1 view .LVU405
 761:Drivers/STM32F4xx_HAL_Driver/Src/stm32f4xx_hal_rtc_ex.c **** }
 1219              		.loc 1 761 10 is_stmt 0 view .LVU406
 1220 0050 0020     		movs	r0, #0
 1221 0052 F1E7     		b	.L70
 1222              		.cfi_endproc
ARM GAS  /tmp/ccKeTRIy.s 			page 37


 1223              	.LFE141:
 1225              		.section	.text.HAL_RTCEx_PollForTamper1Event,"ax",%progbits
 1226              		.align	1
 1227              		.global	HAL_RTCEx_PollForTamper1Event
 1228              		.syntax unified
 1229              		.thumb
 1230              		.thumb_func
 1231              		.fpu fpv4-sp-d16
 1233              	HAL_RTCEx_PollForTamper1Event:
 1234              	.LVL92:
 1235              	.LFB142:
 763:Drivers/STM32F4xx_HAL_Driver/Src/stm32f4xx_hal_rtc_ex.c **** 
 764:Drivers/STM32F4xx_HAL_Driver/Src/stm32f4xx_hal_rtc_ex.c **** /**
 765:Drivers/STM32F4xx_HAL_Driver/Src/stm32f4xx_hal_rtc_ex.c ****   * @brief  Handles Tamper 1 Polling.
 766:Drivers/STM32F4xx_HAL_Driver/Src/stm32f4xx_hal_rtc_ex.c ****   * @param  hrtc pointer to a RTC_HandleTypeDef structure that contains
 767:Drivers/STM32F4xx_HAL_Driver/Src/stm32f4xx_hal_rtc_ex.c ****   *                the configuration information for RTC.
 768:Drivers/STM32F4xx_HAL_Driver/Src/stm32f4xx_hal_rtc_ex.c ****   * @param  Timeout Timeout duration
 769:Drivers/STM32F4xx_HAL_Driver/Src/stm32f4xx_hal_rtc_ex.c ****   * @retval HAL status
 770:Drivers/STM32F4xx_HAL_Driver/Src/stm32f4xx_hal_rtc_ex.c ****   */
 771:Drivers/STM32F4xx_HAL_Driver/Src/stm32f4xx_hal_rtc_ex.c **** HAL_StatusTypeDef HAL_RTCEx_PollForTamper1Event(RTC_HandleTypeDef *hrtc, uint32_t Timeout)
 772:Drivers/STM32F4xx_HAL_Driver/Src/stm32f4xx_hal_rtc_ex.c **** {
 1236              		.loc 1 772 1 is_stmt 1 view -0
 1237              		.cfi_startproc
 1238              		@ args = 0, pretend = 0, frame = 0
 1239              		@ frame_needed = 0, uses_anonymous_args = 0
 1240              		.loc 1 772 1 is_stmt 0 view .LVU408
 1241 0000 70B5     		push	{r4, r5, r6, lr}
 1242              	.LCFI17:
 1243              		.cfi_def_cfa_offset 16
 1244              		.cfi_offset 4, -16
 1245              		.cfi_offset 5, -12
 1246              		.cfi_offset 6, -8
 1247              		.cfi_offset 14, -4
 1248 0002 0446     		mov	r4, r0
 1249 0004 0D46     		mov	r5, r1
 773:Drivers/STM32F4xx_HAL_Driver/Src/stm32f4xx_hal_rtc_ex.c ****   uint32_t tickstart = 0U;
 1250              		.loc 1 773 3 is_stmt 1 view .LVU409
 1251              	.LVL93:
 774:Drivers/STM32F4xx_HAL_Driver/Src/stm32f4xx_hal_rtc_ex.c **** 
 775:Drivers/STM32F4xx_HAL_Driver/Src/stm32f4xx_hal_rtc_ex.c ****   /* Get tick */
 776:Drivers/STM32F4xx_HAL_Driver/Src/stm32f4xx_hal_rtc_ex.c ****   tickstart = HAL_GetTick();
 1252              		.loc 1 776 3 view .LVU410
 1253              		.loc 1 776 15 is_stmt 0 view .LVU411
 1254 0006 FFF7FEFF 		bl	HAL_GetTick
 1255              	.LVL94:
 1256              		.loc 1 776 15 view .LVU412
 1257 000a 0646     		mov	r6, r0
 1258              	.LVL95:
 777:Drivers/STM32F4xx_HAL_Driver/Src/stm32f4xx_hal_rtc_ex.c **** 
 778:Drivers/STM32F4xx_HAL_Driver/Src/stm32f4xx_hal_rtc_ex.c ****   /* Get the status of the Interrupt */
 779:Drivers/STM32F4xx_HAL_Driver/Src/stm32f4xx_hal_rtc_ex.c ****   while (__HAL_RTC_TAMPER_GET_FLAG(hrtc, RTC_FLAG_TAMP1F) == 0U)
 1259              		.loc 1 779 3 is_stmt 1 view .LVU413
 1260              	.L77:
 1261              		.loc 1 779 9 view .LVU414
 1262              		.loc 1 779 10 is_stmt 0 view .LVU415
 1263 000c 2368     		ldr	r3, [r4]
 1264 000e DA68     		ldr	r2, [r3, #12]
ARM GAS  /tmp/ccKeTRIy.s 			page 38


 1265              		.loc 1 779 9 view .LVU416
 1266 0010 12F4005F 		tst	r2, #8192
 1267 0014 0BD1     		bne	.L82
 780:Drivers/STM32F4xx_HAL_Driver/Src/stm32f4xx_hal_rtc_ex.c ****   {
 781:Drivers/STM32F4xx_HAL_Driver/Src/stm32f4xx_hal_rtc_ex.c ****     if (Timeout != HAL_MAX_DELAY)
 1268              		.loc 1 781 5 is_stmt 1 view .LVU417
 1269              		.loc 1 781 8 is_stmt 0 view .LVU418
 1270 0016 B5F1FF3F 		cmp	r5, #-1
 1271 001a F7D0     		beq	.L77
 782:Drivers/STM32F4xx_HAL_Driver/Src/stm32f4xx_hal_rtc_ex.c ****     {
 783:Drivers/STM32F4xx_HAL_Driver/Src/stm32f4xx_hal_rtc_ex.c ****       if ((Timeout == 0U) || ((HAL_GetTick() - tickstart) > Timeout))
 1272              		.loc 1 783 7 is_stmt 1 view .LVU419
 1273              		.loc 1 783 10 is_stmt 0 view .LVU420
 1274 001c 25B1     		cbz	r5, .L78
 1275              		.loc 1 783 32 discriminator 1 view .LVU421
 1276 001e FFF7FEFF 		bl	HAL_GetTick
 1277              	.LVL96:
 1278              		.loc 1 783 46 discriminator 1 view .LVU422
 1279 0022 801B     		subs	r0, r0, r6
 1280              		.loc 1 783 27 discriminator 1 view .LVU423
 1281 0024 A842     		cmp	r0, r5
 1282 0026 F1D9     		bls	.L77
 1283              	.L78:
 784:Drivers/STM32F4xx_HAL_Driver/Src/stm32f4xx_hal_rtc_ex.c ****       {
 785:Drivers/STM32F4xx_HAL_Driver/Src/stm32f4xx_hal_rtc_ex.c ****         hrtc->State = HAL_RTC_STATE_TIMEOUT;
 1284              		.loc 1 785 9 is_stmt 1 view .LVU424
 1285              		.loc 1 785 21 is_stmt 0 view .LVU425
 1286 0028 0320     		movs	r0, #3
 1287 002a 6077     		strb	r0, [r4, #29]
 786:Drivers/STM32F4xx_HAL_Driver/Src/stm32f4xx_hal_rtc_ex.c ****         return HAL_TIMEOUT;
 1288              		.loc 1 786 9 is_stmt 1 view .LVU426
 1289              		.loc 1 786 16 is_stmt 0 view .LVU427
 1290 002c 07E0     		b	.L79
 1291              	.L82:
 787:Drivers/STM32F4xx_HAL_Driver/Src/stm32f4xx_hal_rtc_ex.c ****       }
 788:Drivers/STM32F4xx_HAL_Driver/Src/stm32f4xx_hal_rtc_ex.c ****     }
 789:Drivers/STM32F4xx_HAL_Driver/Src/stm32f4xx_hal_rtc_ex.c ****   }
 790:Drivers/STM32F4xx_HAL_Driver/Src/stm32f4xx_hal_rtc_ex.c **** 
 791:Drivers/STM32F4xx_HAL_Driver/Src/stm32f4xx_hal_rtc_ex.c ****   /* Clear the Tamper Flag */
 792:Drivers/STM32F4xx_HAL_Driver/Src/stm32f4xx_hal_rtc_ex.c ****   __HAL_RTC_TAMPER_CLEAR_FLAG(hrtc, RTC_FLAG_TAMP1F);
 1292              		.loc 1 792 3 is_stmt 1 view .LVU428
 1293 002e DA68     		ldr	r2, [r3, #12]
 1294 0030 D2B2     		uxtb	r2, r2
 1295 0032 62F40252 		orn	r2, r2, #8320
 1296 0036 DA60     		str	r2, [r3, #12]
 793:Drivers/STM32F4xx_HAL_Driver/Src/stm32f4xx_hal_rtc_ex.c **** 
 794:Drivers/STM32F4xx_HAL_Driver/Src/stm32f4xx_hal_rtc_ex.c ****   /* Change RTC state */
 795:Drivers/STM32F4xx_HAL_Driver/Src/stm32f4xx_hal_rtc_ex.c ****   hrtc->State = HAL_RTC_STATE_READY;
 1297              		.loc 1 795 3 view .LVU429
 1298              		.loc 1 795 15 is_stmt 0 view .LVU430
 1299 0038 0123     		movs	r3, #1
 1300 003a 6377     		strb	r3, [r4, #29]
 796:Drivers/STM32F4xx_HAL_Driver/Src/stm32f4xx_hal_rtc_ex.c **** 
 797:Drivers/STM32F4xx_HAL_Driver/Src/stm32f4xx_hal_rtc_ex.c ****   return HAL_OK;
 1301              		.loc 1 797 3 is_stmt 1 view .LVU431
 1302              		.loc 1 797 10 is_stmt 0 view .LVU432
 1303 003c 0020     		movs	r0, #0
ARM GAS  /tmp/ccKeTRIy.s 			page 39


 1304              	.L79:
 798:Drivers/STM32F4xx_HAL_Driver/Src/stm32f4xx_hal_rtc_ex.c **** }
 1305              		.loc 1 798 1 view .LVU433
 1306 003e 70BD     		pop	{r4, r5, r6, pc}
 1307              		.loc 1 798 1 view .LVU434
 1308              		.cfi_endproc
 1309              	.LFE142:
 1311              		.section	.text.HAL_RTCEx_PollForTamper2Event,"ax",%progbits
 1312              		.align	1
 1313              		.global	HAL_RTCEx_PollForTamper2Event
 1314              		.syntax unified
 1315              		.thumb
 1316              		.thumb_func
 1317              		.fpu fpv4-sp-d16
 1319              	HAL_RTCEx_PollForTamper2Event:
 1320              	.LVL97:
 1321              	.LFB143:
 799:Drivers/STM32F4xx_HAL_Driver/Src/stm32f4xx_hal_rtc_ex.c **** 
 800:Drivers/STM32F4xx_HAL_Driver/Src/stm32f4xx_hal_rtc_ex.c **** #if defined(RTC_TAMPER2_SUPPORT)
 801:Drivers/STM32F4xx_HAL_Driver/Src/stm32f4xx_hal_rtc_ex.c **** /**
 802:Drivers/STM32F4xx_HAL_Driver/Src/stm32f4xx_hal_rtc_ex.c ****   * @brief  Handles Tamper 2 Polling.
 803:Drivers/STM32F4xx_HAL_Driver/Src/stm32f4xx_hal_rtc_ex.c ****   * @param  hrtc pointer to a RTC_HandleTypeDef structure that contains
 804:Drivers/STM32F4xx_HAL_Driver/Src/stm32f4xx_hal_rtc_ex.c ****   *                the configuration information for RTC.
 805:Drivers/STM32F4xx_HAL_Driver/Src/stm32f4xx_hal_rtc_ex.c ****   * @param  Timeout Timeout duration
 806:Drivers/STM32F4xx_HAL_Driver/Src/stm32f4xx_hal_rtc_ex.c ****   * @retval HAL status
 807:Drivers/STM32F4xx_HAL_Driver/Src/stm32f4xx_hal_rtc_ex.c ****   */
 808:Drivers/STM32F4xx_HAL_Driver/Src/stm32f4xx_hal_rtc_ex.c **** HAL_StatusTypeDef HAL_RTCEx_PollForTamper2Event(RTC_HandleTypeDef *hrtc, uint32_t Timeout)
 809:Drivers/STM32F4xx_HAL_Driver/Src/stm32f4xx_hal_rtc_ex.c **** {
 1322              		.loc 1 809 1 is_stmt 1 view -0
 1323              		.cfi_startproc
 1324              		@ args = 0, pretend = 0, frame = 0
 1325              		@ frame_needed = 0, uses_anonymous_args = 0
 1326              		.loc 1 809 1 is_stmt 0 view .LVU436
 1327 0000 70B5     		push	{r4, r5, r6, lr}
 1328              	.LCFI18:
 1329              		.cfi_def_cfa_offset 16
 1330              		.cfi_offset 4, -16
 1331              		.cfi_offset 5, -12
 1332              		.cfi_offset 6, -8
 1333              		.cfi_offset 14, -4
 1334 0002 0446     		mov	r4, r0
 1335 0004 0D46     		mov	r5, r1
 810:Drivers/STM32F4xx_HAL_Driver/Src/stm32f4xx_hal_rtc_ex.c ****   uint32_t tickstart = 0U;
 1336              		.loc 1 810 3 is_stmt 1 view .LVU437
 1337              	.LVL98:
 811:Drivers/STM32F4xx_HAL_Driver/Src/stm32f4xx_hal_rtc_ex.c **** 
 812:Drivers/STM32F4xx_HAL_Driver/Src/stm32f4xx_hal_rtc_ex.c ****   /* Get tick */
 813:Drivers/STM32F4xx_HAL_Driver/Src/stm32f4xx_hal_rtc_ex.c ****   tickstart = HAL_GetTick();
 1338              		.loc 1 813 3 view .LVU438
 1339              		.loc 1 813 15 is_stmt 0 view .LVU439
 1340 0006 FFF7FEFF 		bl	HAL_GetTick
 1341              	.LVL99:
 1342              		.loc 1 813 15 view .LVU440
 1343 000a 0646     		mov	r6, r0
 1344              	.LVL100:
 814:Drivers/STM32F4xx_HAL_Driver/Src/stm32f4xx_hal_rtc_ex.c **** 
 815:Drivers/STM32F4xx_HAL_Driver/Src/stm32f4xx_hal_rtc_ex.c ****   /* Get the status of the Interrupt */
ARM GAS  /tmp/ccKeTRIy.s 			page 40


 816:Drivers/STM32F4xx_HAL_Driver/Src/stm32f4xx_hal_rtc_ex.c ****   while (__HAL_RTC_TAMPER_GET_FLAG(hrtc, RTC_FLAG_TAMP2F) == 0U)
 1345              		.loc 1 816 3 is_stmt 1 view .LVU441
 1346              	.L85:
 1347              		.loc 1 816 9 view .LVU442
 1348              		.loc 1 816 10 is_stmt 0 view .LVU443
 1349 000c 2368     		ldr	r3, [r4]
 1350 000e DA68     		ldr	r2, [r3, #12]
 1351              		.loc 1 816 9 view .LVU444
 1352 0010 12F4804F 		tst	r2, #16384
 1353 0014 0BD1     		bne	.L90
 817:Drivers/STM32F4xx_HAL_Driver/Src/stm32f4xx_hal_rtc_ex.c ****   {
 818:Drivers/STM32F4xx_HAL_Driver/Src/stm32f4xx_hal_rtc_ex.c ****     if (Timeout != HAL_MAX_DELAY)
 1354              		.loc 1 818 5 is_stmt 1 view .LVU445
 1355              		.loc 1 818 8 is_stmt 0 view .LVU446
 1356 0016 B5F1FF3F 		cmp	r5, #-1
 1357 001a F7D0     		beq	.L85
 819:Drivers/STM32F4xx_HAL_Driver/Src/stm32f4xx_hal_rtc_ex.c ****     {
 820:Drivers/STM32F4xx_HAL_Driver/Src/stm32f4xx_hal_rtc_ex.c ****       if ((Timeout == 0U) || ((HAL_GetTick() - tickstart) > Timeout))
 1358              		.loc 1 820 7 is_stmt 1 view .LVU447
 1359              		.loc 1 820 10 is_stmt 0 view .LVU448
 1360 001c 25B1     		cbz	r5, .L86
 1361              		.loc 1 820 32 discriminator 1 view .LVU449
 1362 001e FFF7FEFF 		bl	HAL_GetTick
 1363              	.LVL101:
 1364              		.loc 1 820 46 discriminator 1 view .LVU450
 1365 0022 801B     		subs	r0, r0, r6
 1366              		.loc 1 820 27 discriminator 1 view .LVU451
 1367 0024 A842     		cmp	r0, r5
 1368 0026 F1D9     		bls	.L85
 1369              	.L86:
 821:Drivers/STM32F4xx_HAL_Driver/Src/stm32f4xx_hal_rtc_ex.c ****       {
 822:Drivers/STM32F4xx_HAL_Driver/Src/stm32f4xx_hal_rtc_ex.c ****         hrtc->State = HAL_RTC_STATE_TIMEOUT;
 1370              		.loc 1 822 9 is_stmt 1 view .LVU452
 1371              		.loc 1 822 21 is_stmt 0 view .LVU453
 1372 0028 0320     		movs	r0, #3
 1373 002a 6077     		strb	r0, [r4, #29]
 823:Drivers/STM32F4xx_HAL_Driver/Src/stm32f4xx_hal_rtc_ex.c ****         return HAL_TIMEOUT;
 1374              		.loc 1 823 9 is_stmt 1 view .LVU454
 1375              		.loc 1 823 16 is_stmt 0 view .LVU455
 1376 002c 07E0     		b	.L87
 1377              	.L90:
 824:Drivers/STM32F4xx_HAL_Driver/Src/stm32f4xx_hal_rtc_ex.c ****       }
 825:Drivers/STM32F4xx_HAL_Driver/Src/stm32f4xx_hal_rtc_ex.c ****     }
 826:Drivers/STM32F4xx_HAL_Driver/Src/stm32f4xx_hal_rtc_ex.c ****   }
 827:Drivers/STM32F4xx_HAL_Driver/Src/stm32f4xx_hal_rtc_ex.c **** 
 828:Drivers/STM32F4xx_HAL_Driver/Src/stm32f4xx_hal_rtc_ex.c ****   /* Clear the Tamper Flag */
 829:Drivers/STM32F4xx_HAL_Driver/Src/stm32f4xx_hal_rtc_ex.c ****   __HAL_RTC_TAMPER_CLEAR_FLAG(hrtc, RTC_FLAG_TAMP2F);
 1378              		.loc 1 829 3 is_stmt 1 view .LVU456
 1379 002e DA68     		ldr	r2, [r3, #12]
 1380 0030 D2B2     		uxtb	r2, r2
 1381 0032 62F48142 		orn	r2, r2, #16512
 1382 0036 DA60     		str	r2, [r3, #12]
 830:Drivers/STM32F4xx_HAL_Driver/Src/stm32f4xx_hal_rtc_ex.c **** 
 831:Drivers/STM32F4xx_HAL_Driver/Src/stm32f4xx_hal_rtc_ex.c ****   /* Change RTC state */
 832:Drivers/STM32F4xx_HAL_Driver/Src/stm32f4xx_hal_rtc_ex.c ****   hrtc->State = HAL_RTC_STATE_READY;
 1383              		.loc 1 832 3 view .LVU457
 1384              		.loc 1 832 15 is_stmt 0 view .LVU458
ARM GAS  /tmp/ccKeTRIy.s 			page 41


 1385 0038 0123     		movs	r3, #1
 1386 003a 6377     		strb	r3, [r4, #29]
 833:Drivers/STM32F4xx_HAL_Driver/Src/stm32f4xx_hal_rtc_ex.c **** 
 834:Drivers/STM32F4xx_HAL_Driver/Src/stm32f4xx_hal_rtc_ex.c ****   return HAL_OK;
 1387              		.loc 1 834 3 is_stmt 1 view .LVU459
 1388              		.loc 1 834 10 is_stmt 0 view .LVU460
 1389 003c 0020     		movs	r0, #0
 1390              	.L87:
 835:Drivers/STM32F4xx_HAL_Driver/Src/stm32f4xx_hal_rtc_ex.c **** }
 1391              		.loc 1 835 1 view .LVU461
 1392 003e 70BD     		pop	{r4, r5, r6, pc}
 1393              		.loc 1 835 1 view .LVU462
 1394              		.cfi_endproc
 1395              	.LFE143:
 1397              		.section	.text.HAL_RTCEx_SetWakeUpTimer,"ax",%progbits
 1398              		.align	1
 1399              		.global	HAL_RTCEx_SetWakeUpTimer
 1400              		.syntax unified
 1401              		.thumb
 1402              		.thumb_func
 1403              		.fpu fpv4-sp-d16
 1405              	HAL_RTCEx_SetWakeUpTimer:
 1406              	.LVL102:
 1407              	.LFB144:
 836:Drivers/STM32F4xx_HAL_Driver/Src/stm32f4xx_hal_rtc_ex.c **** #endif /* RTC_TAMPER2_SUPPORT */
 837:Drivers/STM32F4xx_HAL_Driver/Src/stm32f4xx_hal_rtc_ex.c **** 
 838:Drivers/STM32F4xx_HAL_Driver/Src/stm32f4xx_hal_rtc_ex.c **** /**
 839:Drivers/STM32F4xx_HAL_Driver/Src/stm32f4xx_hal_rtc_ex.c ****   * @}
 840:Drivers/STM32F4xx_HAL_Driver/Src/stm32f4xx_hal_rtc_ex.c ****   */
 841:Drivers/STM32F4xx_HAL_Driver/Src/stm32f4xx_hal_rtc_ex.c **** 
 842:Drivers/STM32F4xx_HAL_Driver/Src/stm32f4xx_hal_rtc_ex.c **** /** @defgroup RTCEx_Exported_Functions_Group2 RTC Wakeup functions
 843:Drivers/STM32F4xx_HAL_Driver/Src/stm32f4xx_hal_rtc_ex.c ****   * @brief    RTC Wakeup functions
 844:Drivers/STM32F4xx_HAL_Driver/Src/stm32f4xx_hal_rtc_ex.c ****   *
 845:Drivers/STM32F4xx_HAL_Driver/Src/stm32f4xx_hal_rtc_ex.c **** @verbatim
 846:Drivers/STM32F4xx_HAL_Driver/Src/stm32f4xx_hal_rtc_ex.c ****  ===============================================================================
 847:Drivers/STM32F4xx_HAL_Driver/Src/stm32f4xx_hal_rtc_ex.c ****                         ##### RTC Wakeup functions #####
 848:Drivers/STM32F4xx_HAL_Driver/Src/stm32f4xx_hal_rtc_ex.c ****  ===============================================================================
 849:Drivers/STM32F4xx_HAL_Driver/Src/stm32f4xx_hal_rtc_ex.c **** 
 850:Drivers/STM32F4xx_HAL_Driver/Src/stm32f4xx_hal_rtc_ex.c ****  [..] This section provides functions allowing to configure Wakeup feature
 851:Drivers/STM32F4xx_HAL_Driver/Src/stm32f4xx_hal_rtc_ex.c **** 
 852:Drivers/STM32F4xx_HAL_Driver/Src/stm32f4xx_hal_rtc_ex.c **** @endverbatim
 853:Drivers/STM32F4xx_HAL_Driver/Src/stm32f4xx_hal_rtc_ex.c ****   * @{
 854:Drivers/STM32F4xx_HAL_Driver/Src/stm32f4xx_hal_rtc_ex.c ****   */
 855:Drivers/STM32F4xx_HAL_Driver/Src/stm32f4xx_hal_rtc_ex.c **** 
 856:Drivers/STM32F4xx_HAL_Driver/Src/stm32f4xx_hal_rtc_ex.c **** /**
 857:Drivers/STM32F4xx_HAL_Driver/Src/stm32f4xx_hal_rtc_ex.c ****   * @brief  Sets wakeup timer.
 858:Drivers/STM32F4xx_HAL_Driver/Src/stm32f4xx_hal_rtc_ex.c ****   * @param  hrtc pointer to a RTC_HandleTypeDef structure that contains
 859:Drivers/STM32F4xx_HAL_Driver/Src/stm32f4xx_hal_rtc_ex.c ****   *                the configuration information for RTC.
 860:Drivers/STM32F4xx_HAL_Driver/Src/stm32f4xx_hal_rtc_ex.c ****   * @param  WakeUpCounter Wakeup counter
 861:Drivers/STM32F4xx_HAL_Driver/Src/stm32f4xx_hal_rtc_ex.c ****   * @param  WakeUpClock Wakeup clock
 862:Drivers/STM32F4xx_HAL_Driver/Src/stm32f4xx_hal_rtc_ex.c ****   * @retval HAL status
 863:Drivers/STM32F4xx_HAL_Driver/Src/stm32f4xx_hal_rtc_ex.c ****   */
 864:Drivers/STM32F4xx_HAL_Driver/Src/stm32f4xx_hal_rtc_ex.c **** HAL_StatusTypeDef HAL_RTCEx_SetWakeUpTimer(RTC_HandleTypeDef *hrtc, uint32_t WakeUpCounter, uint32_
 865:Drivers/STM32F4xx_HAL_Driver/Src/stm32f4xx_hal_rtc_ex.c **** {
 1408              		.loc 1 865 1 is_stmt 1 view -0
 1409              		.cfi_startproc
 1410              		@ args = 0, pretend = 0, frame = 0
ARM GAS  /tmp/ccKeTRIy.s 			page 42


 1411              		@ frame_needed = 0, uses_anonymous_args = 0
 1412              		.loc 1 865 1 is_stmt 0 view .LVU464
 1413 0000 F8B5     		push	{r3, r4, r5, r6, r7, lr}
 1414              	.LCFI19:
 1415              		.cfi_def_cfa_offset 24
 1416              		.cfi_offset 3, -24
 1417              		.cfi_offset 4, -20
 1418              		.cfi_offset 5, -16
 1419              		.cfi_offset 6, -12
 1420              		.cfi_offset 7, -8
 1421              		.cfi_offset 14, -4
 866:Drivers/STM32F4xx_HAL_Driver/Src/stm32f4xx_hal_rtc_ex.c ****   uint32_t tickstart = 0U;
 1422              		.loc 1 866 3 is_stmt 1 view .LVU465
 1423              	.LVL103:
 867:Drivers/STM32F4xx_HAL_Driver/Src/stm32f4xx_hal_rtc_ex.c **** 
 868:Drivers/STM32F4xx_HAL_Driver/Src/stm32f4xx_hal_rtc_ex.c ****   /* Check the parameters */
 869:Drivers/STM32F4xx_HAL_Driver/Src/stm32f4xx_hal_rtc_ex.c ****   assert_param(IS_RTC_WAKEUP_CLOCK(WakeUpClock));
 1424              		.loc 1 869 3 view .LVU466
 870:Drivers/STM32F4xx_HAL_Driver/Src/stm32f4xx_hal_rtc_ex.c ****   assert_param(IS_RTC_WAKEUP_COUNTER(WakeUpCounter));
 1425              		.loc 1 870 3 view .LVU467
 871:Drivers/STM32F4xx_HAL_Driver/Src/stm32f4xx_hal_rtc_ex.c **** 
 872:Drivers/STM32F4xx_HAL_Driver/Src/stm32f4xx_hal_rtc_ex.c ****   /* Process Locked */
 873:Drivers/STM32F4xx_HAL_Driver/Src/stm32f4xx_hal_rtc_ex.c ****   __HAL_LOCK(hrtc);
 1426              		.loc 1 873 3 view .LVU468
 1427              		.loc 1 873 3 view .LVU469
 1428 0002 037F     		ldrb	r3, [r0, #28]	@ zero_extendqisi2
 1429 0004 012B     		cmp	r3, #1
 1430 0006 5FD0     		beq	.L98
 1431 0008 0446     		mov	r4, r0
 1432 000a 0D46     		mov	r5, r1
 1433 000c 1646     		mov	r6, r2
 1434              		.loc 1 873 3 discriminator 2 view .LVU470
 1435 000e 0123     		movs	r3, #1
 1436 0010 0377     		strb	r3, [r0, #28]
 1437              		.loc 1 873 3 discriminator 2 view .LVU471
 874:Drivers/STM32F4xx_HAL_Driver/Src/stm32f4xx_hal_rtc_ex.c **** 
 875:Drivers/STM32F4xx_HAL_Driver/Src/stm32f4xx_hal_rtc_ex.c ****   hrtc->State = HAL_RTC_STATE_BUSY;
 1438              		.loc 1 875 3 discriminator 2 view .LVU472
 1439              		.loc 1 875 15 is_stmt 0 discriminator 2 view .LVU473
 1440 0012 0223     		movs	r3, #2
 1441 0014 4377     		strb	r3, [r0, #29]
 876:Drivers/STM32F4xx_HAL_Driver/Src/stm32f4xx_hal_rtc_ex.c **** 
 877:Drivers/STM32F4xx_HAL_Driver/Src/stm32f4xx_hal_rtc_ex.c ****   /* Disable the write protection for RTC registers */
 878:Drivers/STM32F4xx_HAL_Driver/Src/stm32f4xx_hal_rtc_ex.c ****   __HAL_RTC_WRITEPROTECTION_DISABLE(hrtc);
 1442              		.loc 1 878 3 is_stmt 1 discriminator 2 view .LVU474
 1443              		.loc 1 878 3 discriminator 2 view .LVU475
 1444 0016 0368     		ldr	r3, [r0]
 1445 0018 CA22     		movs	r2, #202
 1446              	.LVL104:
 1447              		.loc 1 878 3 is_stmt 0 discriminator 2 view .LVU476
 1448 001a 5A62     		str	r2, [r3, #36]
 1449              		.loc 1 878 3 is_stmt 1 discriminator 2 view .LVU477
 1450 001c 0368     		ldr	r3, [r0]
 1451 001e 5322     		movs	r2, #83
 1452 0020 5A62     		str	r2, [r3, #36]
 1453              		.loc 1 878 3 discriminator 2 view .LVU478
 879:Drivers/STM32F4xx_HAL_Driver/Src/stm32f4xx_hal_rtc_ex.c **** 
ARM GAS  /tmp/ccKeTRIy.s 			page 43


 880:Drivers/STM32F4xx_HAL_Driver/Src/stm32f4xx_hal_rtc_ex.c ****   /* Check RTC WUTWF flag is reset only when wakeup timer enabled*/
 881:Drivers/STM32F4xx_HAL_Driver/Src/stm32f4xx_hal_rtc_ex.c ****   if ((hrtc->Instance->CR & RTC_CR_WUTE) != 0U)
 1454              		.loc 1 881 3 discriminator 2 view .LVU479
 1455              		.loc 1 881 12 is_stmt 0 discriminator 2 view .LVU480
 1456 0022 0368     		ldr	r3, [r0]
 1457              		.loc 1 881 22 discriminator 2 view .LVU481
 1458 0024 9B68     		ldr	r3, [r3, #8]
 1459              		.loc 1 881 6 discriminator 2 view .LVU482
 1460 0026 13F4806F 		tst	r3, #1024
 1461 002a 15D0     		beq	.L93
 882:Drivers/STM32F4xx_HAL_Driver/Src/stm32f4xx_hal_rtc_ex.c ****   {
 883:Drivers/STM32F4xx_HAL_Driver/Src/stm32f4xx_hal_rtc_ex.c ****     tickstart = HAL_GetTick();
 1462              		.loc 1 883 5 is_stmt 1 view .LVU483
 1463              		.loc 1 883 17 is_stmt 0 view .LVU484
 1464 002c FFF7FEFF 		bl	HAL_GetTick
 1465              	.LVL105:
 1466              		.loc 1 883 17 view .LVU485
 1467 0030 0746     		mov	r7, r0
 1468              	.LVL106:
 884:Drivers/STM32F4xx_HAL_Driver/Src/stm32f4xx_hal_rtc_ex.c **** 
 885:Drivers/STM32F4xx_HAL_Driver/Src/stm32f4xx_hal_rtc_ex.c ****     /* Wait till RTC WUTWF flag is reset and if timeout is reached exit */
 886:Drivers/STM32F4xx_HAL_Driver/Src/stm32f4xx_hal_rtc_ex.c ****     while (__HAL_RTC_WAKEUPTIMER_GET_FLAG(hrtc, RTC_FLAG_WUTWF) != 0U)
 1469              		.loc 1 886 5 is_stmt 1 view .LVU486
 1470              	.L94:
 1471              		.loc 1 886 11 view .LVU487
 1472              		.loc 1 886 12 is_stmt 0 view .LVU488
 1473 0032 2368     		ldr	r3, [r4]
 1474 0034 DB68     		ldr	r3, [r3, #12]
 1475              		.loc 1 886 11 view .LVU489
 1476 0036 13F0040F 		tst	r3, #4
 1477 003a 0DD0     		beq	.L93
 887:Drivers/STM32F4xx_HAL_Driver/Src/stm32f4xx_hal_rtc_ex.c ****     {
 888:Drivers/STM32F4xx_HAL_Driver/Src/stm32f4xx_hal_rtc_ex.c ****       if ((HAL_GetTick() - tickstart) > RTC_TIMEOUT_VALUE)
 1478              		.loc 1 888 7 is_stmt 1 view .LVU490
 1479              		.loc 1 888 12 is_stmt 0 view .LVU491
 1480 003c FFF7FEFF 		bl	HAL_GetTick
 1481              	.LVL107:
 1482              		.loc 1 888 26 view .LVU492
 1483 0040 C01B     		subs	r0, r0, r7
 1484              		.loc 1 888 10 view .LVU493
 1485 0042 B0F57A7F 		cmp	r0, #1000
 1486 0046 F4D9     		bls	.L94
 889:Drivers/STM32F4xx_HAL_Driver/Src/stm32f4xx_hal_rtc_ex.c ****       {
 890:Drivers/STM32F4xx_HAL_Driver/Src/stm32f4xx_hal_rtc_ex.c ****         /* Enable the write protection for RTC registers */
 891:Drivers/STM32F4xx_HAL_Driver/Src/stm32f4xx_hal_rtc_ex.c ****         __HAL_RTC_WRITEPROTECTION_ENABLE(hrtc);
 1487              		.loc 1 891 9 is_stmt 1 view .LVU494
 1488              		.loc 1 891 9 view .LVU495
 1489 0048 2368     		ldr	r3, [r4]
 1490 004a FF22     		movs	r2, #255
 1491 004c 5A62     		str	r2, [r3, #36]
 1492              		.loc 1 891 9 view .LVU496
 892:Drivers/STM32F4xx_HAL_Driver/Src/stm32f4xx_hal_rtc_ex.c **** 
 893:Drivers/STM32F4xx_HAL_Driver/Src/stm32f4xx_hal_rtc_ex.c ****         hrtc->State = HAL_RTC_STATE_TIMEOUT;
 1493              		.loc 1 893 9 view .LVU497
 1494              		.loc 1 893 21 is_stmt 0 view .LVU498
 1495 004e 0320     		movs	r0, #3
 1496 0050 6077     		strb	r0, [r4, #29]
ARM GAS  /tmp/ccKeTRIy.s 			page 44


 894:Drivers/STM32F4xx_HAL_Driver/Src/stm32f4xx_hal_rtc_ex.c **** 
 895:Drivers/STM32F4xx_HAL_Driver/Src/stm32f4xx_hal_rtc_ex.c ****         /* Process Unlocked */
 896:Drivers/STM32F4xx_HAL_Driver/Src/stm32f4xx_hal_rtc_ex.c ****         __HAL_UNLOCK(hrtc);
 1497              		.loc 1 896 9 is_stmt 1 view .LVU499
 1498              		.loc 1 896 9 view .LVU500
 1499 0052 0023     		movs	r3, #0
 1500 0054 2377     		strb	r3, [r4, #28]
 1501              		.loc 1 896 9 view .LVU501
 897:Drivers/STM32F4xx_HAL_Driver/Src/stm32f4xx_hal_rtc_ex.c **** 
 898:Drivers/STM32F4xx_HAL_Driver/Src/stm32f4xx_hal_rtc_ex.c ****         return HAL_TIMEOUT;
 1502              		.loc 1 898 9 view .LVU502
 1503              		.loc 1 898 16 is_stmt 0 view .LVU503
 1504 0056 36E0     		b	.L92
 1505              	.LVL108:
 1506              	.L93:
 899:Drivers/STM32F4xx_HAL_Driver/Src/stm32f4xx_hal_rtc_ex.c ****       }
 900:Drivers/STM32F4xx_HAL_Driver/Src/stm32f4xx_hal_rtc_ex.c ****     }
 901:Drivers/STM32F4xx_HAL_Driver/Src/stm32f4xx_hal_rtc_ex.c ****   }
 902:Drivers/STM32F4xx_HAL_Driver/Src/stm32f4xx_hal_rtc_ex.c **** 
 903:Drivers/STM32F4xx_HAL_Driver/Src/stm32f4xx_hal_rtc_ex.c ****   /* Disable the Wakeup timer */
 904:Drivers/STM32F4xx_HAL_Driver/Src/stm32f4xx_hal_rtc_ex.c ****   __HAL_RTC_WAKEUPTIMER_DISABLE(hrtc);
 1507              		.loc 1 904 3 is_stmt 1 view .LVU504
 1508 0058 2268     		ldr	r2, [r4]
 1509 005a 9368     		ldr	r3, [r2, #8]
 1510 005c 23F48063 		bic	r3, r3, #1024
 1511 0060 9360     		str	r3, [r2, #8]
 905:Drivers/STM32F4xx_HAL_Driver/Src/stm32f4xx_hal_rtc_ex.c **** 
 906:Drivers/STM32F4xx_HAL_Driver/Src/stm32f4xx_hal_rtc_ex.c ****   /* Clear the Wakeup flag */
 907:Drivers/STM32F4xx_HAL_Driver/Src/stm32f4xx_hal_rtc_ex.c ****   __HAL_RTC_WAKEUPTIMER_CLEAR_FLAG(hrtc, RTC_FLAG_WUTF);
 1512              		.loc 1 907 3 view .LVU505
 1513 0062 2268     		ldr	r2, [r4]
 1514 0064 D368     		ldr	r3, [r2, #12]
 1515 0066 DBB2     		uxtb	r3, r3
 1516 0068 63F49063 		orn	r3, r3, #1152
 1517 006c D360     		str	r3, [r2, #12]
 908:Drivers/STM32F4xx_HAL_Driver/Src/stm32f4xx_hal_rtc_ex.c **** 
 909:Drivers/STM32F4xx_HAL_Driver/Src/stm32f4xx_hal_rtc_ex.c ****   /* Get tick */
 910:Drivers/STM32F4xx_HAL_Driver/Src/stm32f4xx_hal_rtc_ex.c ****   tickstart = HAL_GetTick();
 1518              		.loc 1 910 3 view .LVU506
 1519              		.loc 1 910 15 is_stmt 0 view .LVU507
 1520 006e FFF7FEFF 		bl	HAL_GetTick
 1521              	.LVL109:
 1522 0072 0746     		mov	r7, r0
 1523              	.LVL110:
 911:Drivers/STM32F4xx_HAL_Driver/Src/stm32f4xx_hal_rtc_ex.c **** 
 912:Drivers/STM32F4xx_HAL_Driver/Src/stm32f4xx_hal_rtc_ex.c ****   /* Wait till RTC WUTWF flag is set and if timeout is reached exit */
 913:Drivers/STM32F4xx_HAL_Driver/Src/stm32f4xx_hal_rtc_ex.c ****   while (__HAL_RTC_WAKEUPTIMER_GET_FLAG(hrtc, RTC_FLAG_WUTWF) == 0U)
 1524              		.loc 1 913 3 is_stmt 1 view .LVU508
 1525              	.L96:
 1526              		.loc 1 913 9 view .LVU509
 1527              		.loc 1 913 10 is_stmt 0 view .LVU510
 1528 0074 2368     		ldr	r3, [r4]
 1529 0076 DA68     		ldr	r2, [r3, #12]
 1530              		.loc 1 913 9 view .LVU511
 1531 0078 12F0040F 		tst	r2, #4
 1532 007c 0DD1     		bne	.L100
 914:Drivers/STM32F4xx_HAL_Driver/Src/stm32f4xx_hal_rtc_ex.c ****   {
ARM GAS  /tmp/ccKeTRIy.s 			page 45


 915:Drivers/STM32F4xx_HAL_Driver/Src/stm32f4xx_hal_rtc_ex.c ****     if ((HAL_GetTick() - tickstart) > RTC_TIMEOUT_VALUE)
 1533              		.loc 1 915 5 is_stmt 1 view .LVU512
 1534              		.loc 1 915 10 is_stmt 0 view .LVU513
 1535 007e FFF7FEFF 		bl	HAL_GetTick
 1536              	.LVL111:
 1537              		.loc 1 915 24 view .LVU514
 1538 0082 C01B     		subs	r0, r0, r7
 1539              		.loc 1 915 8 view .LVU515
 1540 0084 B0F57A7F 		cmp	r0, #1000
 1541 0088 F4D9     		bls	.L96
 916:Drivers/STM32F4xx_HAL_Driver/Src/stm32f4xx_hal_rtc_ex.c ****     {
 917:Drivers/STM32F4xx_HAL_Driver/Src/stm32f4xx_hal_rtc_ex.c ****       /* Enable the write protection for RTC registers */
 918:Drivers/STM32F4xx_HAL_Driver/Src/stm32f4xx_hal_rtc_ex.c ****       __HAL_RTC_WRITEPROTECTION_ENABLE(hrtc);
 1542              		.loc 1 918 7 is_stmt 1 view .LVU516
 1543              		.loc 1 918 7 view .LVU517
 1544 008a 2368     		ldr	r3, [r4]
 1545 008c FF22     		movs	r2, #255
 1546 008e 5A62     		str	r2, [r3, #36]
 1547              		.loc 1 918 7 view .LVU518
 919:Drivers/STM32F4xx_HAL_Driver/Src/stm32f4xx_hal_rtc_ex.c **** 
 920:Drivers/STM32F4xx_HAL_Driver/Src/stm32f4xx_hal_rtc_ex.c ****       hrtc->State = HAL_RTC_STATE_TIMEOUT;
 1548              		.loc 1 920 7 view .LVU519
 1549              		.loc 1 920 19 is_stmt 0 view .LVU520
 1550 0090 0320     		movs	r0, #3
 1551 0092 6077     		strb	r0, [r4, #29]
 921:Drivers/STM32F4xx_HAL_Driver/Src/stm32f4xx_hal_rtc_ex.c **** 
 922:Drivers/STM32F4xx_HAL_Driver/Src/stm32f4xx_hal_rtc_ex.c ****       /* Process Unlocked */
 923:Drivers/STM32F4xx_HAL_Driver/Src/stm32f4xx_hal_rtc_ex.c ****       __HAL_UNLOCK(hrtc);
 1552              		.loc 1 923 7 is_stmt 1 view .LVU521
 1553              		.loc 1 923 7 view .LVU522
 1554 0094 0023     		movs	r3, #0
 1555 0096 2377     		strb	r3, [r4, #28]
 1556              		.loc 1 923 7 view .LVU523
 924:Drivers/STM32F4xx_HAL_Driver/Src/stm32f4xx_hal_rtc_ex.c **** 
 925:Drivers/STM32F4xx_HAL_Driver/Src/stm32f4xx_hal_rtc_ex.c ****       return HAL_TIMEOUT;
 1557              		.loc 1 925 7 view .LVU524
 1558              		.loc 1 925 14 is_stmt 0 view .LVU525
 1559 0098 15E0     		b	.L92
 1560              	.L100:
 926:Drivers/STM32F4xx_HAL_Driver/Src/stm32f4xx_hal_rtc_ex.c ****     }
 927:Drivers/STM32F4xx_HAL_Driver/Src/stm32f4xx_hal_rtc_ex.c ****   }
 928:Drivers/STM32F4xx_HAL_Driver/Src/stm32f4xx_hal_rtc_ex.c **** 
 929:Drivers/STM32F4xx_HAL_Driver/Src/stm32f4xx_hal_rtc_ex.c ****   /* Clear the Wakeup Timer clock source bits in CR register */
 930:Drivers/STM32F4xx_HAL_Driver/Src/stm32f4xx_hal_rtc_ex.c ****   hrtc->Instance->CR &= (uint32_t)~RTC_CR_WUCKSEL;
 1561              		.loc 1 930 3 is_stmt 1 view .LVU526
 1562              		.loc 1 930 22 is_stmt 0 view .LVU527
 1563 009a 9A68     		ldr	r2, [r3, #8]
 1564 009c 22F00702 		bic	r2, r2, #7
 1565 00a0 9A60     		str	r2, [r3, #8]
 931:Drivers/STM32F4xx_HAL_Driver/Src/stm32f4xx_hal_rtc_ex.c **** 
 932:Drivers/STM32F4xx_HAL_Driver/Src/stm32f4xx_hal_rtc_ex.c ****   /* Configure the clock source */
 933:Drivers/STM32F4xx_HAL_Driver/Src/stm32f4xx_hal_rtc_ex.c ****   hrtc->Instance->CR |= (uint32_t)WakeUpClock;
 1566              		.loc 1 933 3 is_stmt 1 view .LVU528
 1567              		.loc 1 933 7 is_stmt 0 view .LVU529
 1568 00a2 2268     		ldr	r2, [r4]
 1569              		.loc 1 933 22 view .LVU530
 1570 00a4 9368     		ldr	r3, [r2, #8]
ARM GAS  /tmp/ccKeTRIy.s 			page 46


 1571 00a6 1E43     		orrs	r6, r6, r3
 1572              	.LVL112:
 1573              		.loc 1 933 22 view .LVU531
 1574 00a8 9660     		str	r6, [r2, #8]
 934:Drivers/STM32F4xx_HAL_Driver/Src/stm32f4xx_hal_rtc_ex.c **** 
 935:Drivers/STM32F4xx_HAL_Driver/Src/stm32f4xx_hal_rtc_ex.c ****   /* Configure the Wakeup Timer counter */
 936:Drivers/STM32F4xx_HAL_Driver/Src/stm32f4xx_hal_rtc_ex.c ****   hrtc->Instance->WUTR = (uint32_t)WakeUpCounter;
 1575              		.loc 1 936 3 is_stmt 1 view .LVU532
 1576              		.loc 1 936 7 is_stmt 0 view .LVU533
 1577 00aa 2368     		ldr	r3, [r4]
 1578              		.loc 1 936 24 view .LVU534
 1579 00ac 5D61     		str	r5, [r3, #20]
 937:Drivers/STM32F4xx_HAL_Driver/Src/stm32f4xx_hal_rtc_ex.c **** 
 938:Drivers/STM32F4xx_HAL_Driver/Src/stm32f4xx_hal_rtc_ex.c ****   /* Enable the Wakeup Timer */
 939:Drivers/STM32F4xx_HAL_Driver/Src/stm32f4xx_hal_rtc_ex.c ****   __HAL_RTC_WAKEUPTIMER_ENABLE(hrtc);
 1580              		.loc 1 939 3 is_stmt 1 view .LVU535
 1581 00ae 2268     		ldr	r2, [r4]
 1582 00b0 9368     		ldr	r3, [r2, #8]
 1583 00b2 43F48063 		orr	r3, r3, #1024
 1584 00b6 9360     		str	r3, [r2, #8]
 940:Drivers/STM32F4xx_HAL_Driver/Src/stm32f4xx_hal_rtc_ex.c **** 
 941:Drivers/STM32F4xx_HAL_Driver/Src/stm32f4xx_hal_rtc_ex.c ****   /* Enable the write protection for RTC registers */
 942:Drivers/STM32F4xx_HAL_Driver/Src/stm32f4xx_hal_rtc_ex.c ****   __HAL_RTC_WRITEPROTECTION_ENABLE(hrtc);
 1585              		.loc 1 942 3 view .LVU536
 1586              		.loc 1 942 3 view .LVU537
 1587 00b8 2368     		ldr	r3, [r4]
 1588 00ba FF22     		movs	r2, #255
 1589 00bc 5A62     		str	r2, [r3, #36]
 1590              		.loc 1 942 3 view .LVU538
 943:Drivers/STM32F4xx_HAL_Driver/Src/stm32f4xx_hal_rtc_ex.c **** 
 944:Drivers/STM32F4xx_HAL_Driver/Src/stm32f4xx_hal_rtc_ex.c ****   hrtc->State = HAL_RTC_STATE_READY;
 1591              		.loc 1 944 3 view .LVU539
 1592              		.loc 1 944 15 is_stmt 0 view .LVU540
 1593 00be 0123     		movs	r3, #1
 1594 00c0 6377     		strb	r3, [r4, #29]
 945:Drivers/STM32F4xx_HAL_Driver/Src/stm32f4xx_hal_rtc_ex.c **** 
 946:Drivers/STM32F4xx_HAL_Driver/Src/stm32f4xx_hal_rtc_ex.c ****   /* Process Unlocked */
 947:Drivers/STM32F4xx_HAL_Driver/Src/stm32f4xx_hal_rtc_ex.c ****   __HAL_UNLOCK(hrtc);
 1595              		.loc 1 947 3 is_stmt 1 view .LVU541
 1596              		.loc 1 947 3 view .LVU542
 1597 00c2 0020     		movs	r0, #0
 1598 00c4 2077     		strb	r0, [r4, #28]
 1599              		.loc 1 947 3 view .LVU543
 948:Drivers/STM32F4xx_HAL_Driver/Src/stm32f4xx_hal_rtc_ex.c **** 
 949:Drivers/STM32F4xx_HAL_Driver/Src/stm32f4xx_hal_rtc_ex.c ****   return HAL_OK;
 1600              		.loc 1 949 3 view .LVU544
 1601              	.LVL113:
 1602              	.L92:
 950:Drivers/STM32F4xx_HAL_Driver/Src/stm32f4xx_hal_rtc_ex.c **** }
 1603              		.loc 1 950 1 is_stmt 0 view .LVU545
 1604 00c6 F8BD     		pop	{r3, r4, r5, r6, r7, pc}
 1605              	.LVL114:
 1606              	.L98:
 873:Drivers/STM32F4xx_HAL_Driver/Src/stm32f4xx_hal_rtc_ex.c **** 
 1607              		.loc 1 873 3 view .LVU546
 1608 00c8 0220     		movs	r0, #2
 1609              	.LVL115:
ARM GAS  /tmp/ccKeTRIy.s 			page 47


 873:Drivers/STM32F4xx_HAL_Driver/Src/stm32f4xx_hal_rtc_ex.c **** 
 1610              		.loc 1 873 3 view .LVU547
 1611 00ca FCE7     		b	.L92
 1612              		.cfi_endproc
 1613              	.LFE144:
 1615              		.section	.text.HAL_RTCEx_SetWakeUpTimer_IT,"ax",%progbits
 1616              		.align	1
 1617              		.global	HAL_RTCEx_SetWakeUpTimer_IT
 1618              		.syntax unified
 1619              		.thumb
 1620              		.thumb_func
 1621              		.fpu fpv4-sp-d16
 1623              	HAL_RTCEx_SetWakeUpTimer_IT:
 1624              	.LVL116:
 1625              	.LFB145:
 951:Drivers/STM32F4xx_HAL_Driver/Src/stm32f4xx_hal_rtc_ex.c **** 
 952:Drivers/STM32F4xx_HAL_Driver/Src/stm32f4xx_hal_rtc_ex.c **** /**
 953:Drivers/STM32F4xx_HAL_Driver/Src/stm32f4xx_hal_rtc_ex.c ****   * @brief  Sets wakeup timer with interrupt.
 954:Drivers/STM32F4xx_HAL_Driver/Src/stm32f4xx_hal_rtc_ex.c ****   * @param  hrtc pointer to a RTC_HandleTypeDef structure that contains
 955:Drivers/STM32F4xx_HAL_Driver/Src/stm32f4xx_hal_rtc_ex.c ****   *                the configuration information for RTC.
 956:Drivers/STM32F4xx_HAL_Driver/Src/stm32f4xx_hal_rtc_ex.c ****   * @param  WakeUpCounter Wakeup counter
 957:Drivers/STM32F4xx_HAL_Driver/Src/stm32f4xx_hal_rtc_ex.c ****   * @param  WakeUpClock Wakeup clock
 958:Drivers/STM32F4xx_HAL_Driver/Src/stm32f4xx_hal_rtc_ex.c ****   * @retval HAL status
 959:Drivers/STM32F4xx_HAL_Driver/Src/stm32f4xx_hal_rtc_ex.c ****   */
 960:Drivers/STM32F4xx_HAL_Driver/Src/stm32f4xx_hal_rtc_ex.c **** HAL_StatusTypeDef HAL_RTCEx_SetWakeUpTimer_IT(RTC_HandleTypeDef *hrtc, uint32_t WakeUpCounter, uint
 961:Drivers/STM32F4xx_HAL_Driver/Src/stm32f4xx_hal_rtc_ex.c **** {
 1626              		.loc 1 961 1 is_stmt 1 view -0
 1627              		.cfi_startproc
 1628              		@ args = 0, pretend = 0, frame = 8
 1629              		@ frame_needed = 0, uses_anonymous_args = 0
 1630              		@ link register save eliminated.
 1631              		.loc 1 961 1 is_stmt 0 view .LVU549
 1632 0000 70B4     		push	{r4, r5, r6}
 1633              	.LCFI20:
 1634              		.cfi_def_cfa_offset 12
 1635              		.cfi_offset 4, -12
 1636              		.cfi_offset 5, -8
 1637              		.cfi_offset 6, -4
 1638 0002 83B0     		sub	sp, sp, #12
 1639              	.LCFI21:
 1640              		.cfi_def_cfa_offset 24
 962:Drivers/STM32F4xx_HAL_Driver/Src/stm32f4xx_hal_rtc_ex.c ****   __IO uint32_t count  = RTC_TIMEOUT_VALUE * (SystemCoreClock / 32U / 1000U);
 1641              		.loc 1 962 3 is_stmt 1 view .LVU550
 1642              		.loc 1 962 69 is_stmt 0 view .LVU551
 1643 0004 3A4B     		ldr	r3, .L112
 1644 0006 1C68     		ldr	r4, [r3]
 1645 0008 3A4B     		ldr	r3, .L112+4
 1646 000a A3FB0434 		umull	r3, r4, r3, r4
 1647 000e E40A     		lsrs	r4, r4, #11
 1648              		.loc 1 962 44 view .LVU552
 1649 0010 4FF47A73 		mov	r3, #1000
 1650 0014 03FB04F4 		mul	r4, r3, r4
 1651              		.loc 1 962 17 view .LVU553
 1652 0018 0194     		str	r4, [sp, #4]
 963:Drivers/STM32F4xx_HAL_Driver/Src/stm32f4xx_hal_rtc_ex.c **** 
 964:Drivers/STM32F4xx_HAL_Driver/Src/stm32f4xx_hal_rtc_ex.c ****   /* Check the parameters */
 965:Drivers/STM32F4xx_HAL_Driver/Src/stm32f4xx_hal_rtc_ex.c ****   assert_param(IS_RTC_WAKEUP_CLOCK(WakeUpClock));
ARM GAS  /tmp/ccKeTRIy.s 			page 48


 1653              		.loc 1 965 3 is_stmt 1 view .LVU554
 966:Drivers/STM32F4xx_HAL_Driver/Src/stm32f4xx_hal_rtc_ex.c ****   assert_param(IS_RTC_WAKEUP_COUNTER(WakeUpCounter));
 1654              		.loc 1 966 3 view .LVU555
 967:Drivers/STM32F4xx_HAL_Driver/Src/stm32f4xx_hal_rtc_ex.c **** 
 968:Drivers/STM32F4xx_HAL_Driver/Src/stm32f4xx_hal_rtc_ex.c ****   /* Process Locked */
 969:Drivers/STM32F4xx_HAL_Driver/Src/stm32f4xx_hal_rtc_ex.c ****   __HAL_LOCK(hrtc);
 1655              		.loc 1 969 3 view .LVU556
 1656              		.loc 1 969 3 view .LVU557
 1657 001a 037F     		ldrb	r3, [r0, #28]	@ zero_extendqisi2
 1658 001c 012B     		cmp	r3, #1
 1659 001e 65D0     		beq	.L108
 1660              		.loc 1 969 3 discriminator 2 view .LVU558
 1661 0020 0123     		movs	r3, #1
 1662 0022 0377     		strb	r3, [r0, #28]
 1663              		.loc 1 969 3 discriminator 2 view .LVU559
 970:Drivers/STM32F4xx_HAL_Driver/Src/stm32f4xx_hal_rtc_ex.c **** 
 971:Drivers/STM32F4xx_HAL_Driver/Src/stm32f4xx_hal_rtc_ex.c ****   hrtc->State = HAL_RTC_STATE_BUSY;
 1664              		.loc 1 971 3 discriminator 2 view .LVU560
 1665              		.loc 1 971 15 is_stmt 0 discriminator 2 view .LVU561
 1666 0024 0223     		movs	r3, #2
 1667 0026 4377     		strb	r3, [r0, #29]
 972:Drivers/STM32F4xx_HAL_Driver/Src/stm32f4xx_hal_rtc_ex.c **** 
 973:Drivers/STM32F4xx_HAL_Driver/Src/stm32f4xx_hal_rtc_ex.c ****   /* Disable the write protection for RTC registers */
 974:Drivers/STM32F4xx_HAL_Driver/Src/stm32f4xx_hal_rtc_ex.c ****   __HAL_RTC_WRITEPROTECTION_DISABLE(hrtc);
 1668              		.loc 1 974 3 is_stmt 1 discriminator 2 view .LVU562
 1669              		.loc 1 974 3 discriminator 2 view .LVU563
 1670 0028 0368     		ldr	r3, [r0]
 1671 002a CA25     		movs	r5, #202
 1672 002c 5D62     		str	r5, [r3, #36]
 1673              		.loc 1 974 3 discriminator 2 view .LVU564
 1674 002e 0368     		ldr	r3, [r0]
 1675 0030 5325     		movs	r5, #83
 1676 0032 5D62     		str	r5, [r3, #36]
 1677              		.loc 1 974 3 discriminator 2 view .LVU565
 975:Drivers/STM32F4xx_HAL_Driver/Src/stm32f4xx_hal_rtc_ex.c **** 
 976:Drivers/STM32F4xx_HAL_Driver/Src/stm32f4xx_hal_rtc_ex.c ****   /* Check RTC WUTWF flag is reset only when wakeup timer enabled */
 977:Drivers/STM32F4xx_HAL_Driver/Src/stm32f4xx_hal_rtc_ex.c ****   if ((hrtc->Instance->CR & RTC_CR_WUTE) != 0U)
 1678              		.loc 1 977 3 discriminator 2 view .LVU566
 1679              		.loc 1 977 12 is_stmt 0 discriminator 2 view .LVU567
 1680 0034 0668     		ldr	r6, [r0]
 1681              		.loc 1 977 22 discriminator 2 view .LVU568
 1682 0036 B368     		ldr	r3, [r6, #8]
 1683              		.loc 1 977 6 discriminator 2 view .LVU569
 1684 0038 13F4806F 		tst	r3, #1024
 1685 003c 08D0     		beq	.L103
 1686              	.L105:
 978:Drivers/STM32F4xx_HAL_Driver/Src/stm32f4xx_hal_rtc_ex.c ****   {
 979:Drivers/STM32F4xx_HAL_Driver/Src/stm32f4xx_hal_rtc_ex.c ****     /* Wait till RTC WUTWF flag is reset and if timeout is reached exit */
 980:Drivers/STM32F4xx_HAL_Driver/Src/stm32f4xx_hal_rtc_ex.c ****     do
 1687              		.loc 1 980 5 is_stmt 1 view .LVU570
 981:Drivers/STM32F4xx_HAL_Driver/Src/stm32f4xx_hal_rtc_ex.c ****     {
 982:Drivers/STM32F4xx_HAL_Driver/Src/stm32f4xx_hal_rtc_ex.c ****       if (count-- == 0U)
 1688              		.loc 1 982 7 view .LVU571
 1689              		.loc 1 982 16 is_stmt 0 view .LVU572
 1690 003e 019B     		ldr	r3, [sp, #4]
 1691 0040 5D1E     		subs	r5, r3, #1
 1692 0042 0195     		str	r5, [sp, #4]
ARM GAS  /tmp/ccKeTRIy.s 			page 49


 1693              		.loc 1 982 10 view .LVU573
 1694 0044 002B     		cmp	r3, #0
 1695 0046 3ED0     		beq	.L110
 983:Drivers/STM32F4xx_HAL_Driver/Src/stm32f4xx_hal_rtc_ex.c ****       {
 984:Drivers/STM32F4xx_HAL_Driver/Src/stm32f4xx_hal_rtc_ex.c ****         /* Enable the write protection for RTC registers */
 985:Drivers/STM32F4xx_HAL_Driver/Src/stm32f4xx_hal_rtc_ex.c ****         __HAL_RTC_WRITEPROTECTION_ENABLE(hrtc);
 986:Drivers/STM32F4xx_HAL_Driver/Src/stm32f4xx_hal_rtc_ex.c **** 
 987:Drivers/STM32F4xx_HAL_Driver/Src/stm32f4xx_hal_rtc_ex.c ****         hrtc->State = HAL_RTC_STATE_TIMEOUT;
 988:Drivers/STM32F4xx_HAL_Driver/Src/stm32f4xx_hal_rtc_ex.c **** 
 989:Drivers/STM32F4xx_HAL_Driver/Src/stm32f4xx_hal_rtc_ex.c ****         /* Process Unlocked */
 990:Drivers/STM32F4xx_HAL_Driver/Src/stm32f4xx_hal_rtc_ex.c ****         __HAL_UNLOCK(hrtc);
 991:Drivers/STM32F4xx_HAL_Driver/Src/stm32f4xx_hal_rtc_ex.c **** 
 992:Drivers/STM32F4xx_HAL_Driver/Src/stm32f4xx_hal_rtc_ex.c ****         return HAL_TIMEOUT;
 993:Drivers/STM32F4xx_HAL_Driver/Src/stm32f4xx_hal_rtc_ex.c ****       }
 994:Drivers/STM32F4xx_HAL_Driver/Src/stm32f4xx_hal_rtc_ex.c ****     } while (__HAL_RTC_WAKEUPTIMER_GET_FLAG(hrtc, RTC_FLAG_WUTWF) != 0U);
 1696              		.loc 1 994 13 is_stmt 1 view .LVU574
 1697              		.loc 1 994 14 is_stmt 0 view .LVU575
 1698 0048 F368     		ldr	r3, [r6, #12]
 1699              		.loc 1 994 5 view .LVU576
 1700 004a 13F0040F 		tst	r3, #4
 1701 004e F6D1     		bne	.L105
 1702              	.L103:
 995:Drivers/STM32F4xx_HAL_Driver/Src/stm32f4xx_hal_rtc_ex.c ****   }
 996:Drivers/STM32F4xx_HAL_Driver/Src/stm32f4xx_hal_rtc_ex.c **** 
 997:Drivers/STM32F4xx_HAL_Driver/Src/stm32f4xx_hal_rtc_ex.c ****   /* Disable the Wakeup timer */
 998:Drivers/STM32F4xx_HAL_Driver/Src/stm32f4xx_hal_rtc_ex.c ****   __HAL_RTC_WAKEUPTIMER_DISABLE(hrtc);
 1703              		.loc 1 998 3 is_stmt 1 view .LVU577
 1704 0050 B368     		ldr	r3, [r6, #8]
 1705 0052 23F48063 		bic	r3, r3, #1024
 1706 0056 B360     		str	r3, [r6, #8]
 999:Drivers/STM32F4xx_HAL_Driver/Src/stm32f4xx_hal_rtc_ex.c **** 
1000:Drivers/STM32F4xx_HAL_Driver/Src/stm32f4xx_hal_rtc_ex.c ****   /* Clear the Wakeup flag */
1001:Drivers/STM32F4xx_HAL_Driver/Src/stm32f4xx_hal_rtc_ex.c ****   __HAL_RTC_WAKEUPTIMER_CLEAR_FLAG(hrtc, RTC_FLAG_WUTF);
 1707              		.loc 1 1001 3 view .LVU578
 1708 0058 0568     		ldr	r5, [r0]
 1709 005a EB68     		ldr	r3, [r5, #12]
 1710 005c DBB2     		uxtb	r3, r3
 1711 005e 63F49063 		orn	r3, r3, #1152
 1712 0062 EB60     		str	r3, [r5, #12]
1002:Drivers/STM32F4xx_HAL_Driver/Src/stm32f4xx_hal_rtc_ex.c **** 
1003:Drivers/STM32F4xx_HAL_Driver/Src/stm32f4xx_hal_rtc_ex.c ****   /* Reload the counter */
1004:Drivers/STM32F4xx_HAL_Driver/Src/stm32f4xx_hal_rtc_ex.c ****   count = RTC_TIMEOUT_VALUE * (SystemCoreClock / 32U / 1000U);
 1713              		.loc 1 1004 3 view .LVU579
 1714              		.loc 1 1004 9 is_stmt 0 view .LVU580
 1715 0064 0194     		str	r4, [sp, #4]
 1716              	.L107:
1005:Drivers/STM32F4xx_HAL_Driver/Src/stm32f4xx_hal_rtc_ex.c **** 
1006:Drivers/STM32F4xx_HAL_Driver/Src/stm32f4xx_hal_rtc_ex.c ****   /* Wait till RTC WUTWF flag is set and if timeout is reached exit */
1007:Drivers/STM32F4xx_HAL_Driver/Src/stm32f4xx_hal_rtc_ex.c ****   do
 1717              		.loc 1 1007 3 is_stmt 1 view .LVU581
1008:Drivers/STM32F4xx_HAL_Driver/Src/stm32f4xx_hal_rtc_ex.c ****   {
1009:Drivers/STM32F4xx_HAL_Driver/Src/stm32f4xx_hal_rtc_ex.c ****     if (count-- == 0U)
 1718              		.loc 1 1009 5 view .LVU582
 1719              		.loc 1 1009 14 is_stmt 0 view .LVU583
 1720 0066 019B     		ldr	r3, [sp, #4]
 1721 0068 5C1E     		subs	r4, r3, #1
 1722 006a 0194     		str	r4, [sp, #4]
ARM GAS  /tmp/ccKeTRIy.s 			page 50


 1723              		.loc 1 1009 8 view .LVU584
 1724 006c 002B     		cmp	r3, #0
 1725 006e 32D0     		beq	.L111
1010:Drivers/STM32F4xx_HAL_Driver/Src/stm32f4xx_hal_rtc_ex.c ****     {
1011:Drivers/STM32F4xx_HAL_Driver/Src/stm32f4xx_hal_rtc_ex.c ****       /* Enable the write protection for RTC registers */
1012:Drivers/STM32F4xx_HAL_Driver/Src/stm32f4xx_hal_rtc_ex.c ****       __HAL_RTC_WRITEPROTECTION_ENABLE(hrtc);
1013:Drivers/STM32F4xx_HAL_Driver/Src/stm32f4xx_hal_rtc_ex.c **** 
1014:Drivers/STM32F4xx_HAL_Driver/Src/stm32f4xx_hal_rtc_ex.c ****       hrtc->State = HAL_RTC_STATE_TIMEOUT;
1015:Drivers/STM32F4xx_HAL_Driver/Src/stm32f4xx_hal_rtc_ex.c **** 
1016:Drivers/STM32F4xx_HAL_Driver/Src/stm32f4xx_hal_rtc_ex.c ****       /* Process Unlocked */
1017:Drivers/STM32F4xx_HAL_Driver/Src/stm32f4xx_hal_rtc_ex.c ****       __HAL_UNLOCK(hrtc);
1018:Drivers/STM32F4xx_HAL_Driver/Src/stm32f4xx_hal_rtc_ex.c **** 
1019:Drivers/STM32F4xx_HAL_Driver/Src/stm32f4xx_hal_rtc_ex.c ****       return HAL_TIMEOUT;
1020:Drivers/STM32F4xx_HAL_Driver/Src/stm32f4xx_hal_rtc_ex.c ****     }
1021:Drivers/STM32F4xx_HAL_Driver/Src/stm32f4xx_hal_rtc_ex.c ****   } while (__HAL_RTC_WAKEUPTIMER_GET_FLAG(hrtc, RTC_FLAG_WUTWF) == 0U);
 1726              		.loc 1 1021 11 is_stmt 1 view .LVU585
 1727              		.loc 1 1021 12 is_stmt 0 view .LVU586
 1728 0070 0368     		ldr	r3, [r0]
 1729 0072 DC68     		ldr	r4, [r3, #12]
 1730              		.loc 1 1021 3 view .LVU587
 1731 0074 14F0040F 		tst	r4, #4
 1732 0078 F5D0     		beq	.L107
1022:Drivers/STM32F4xx_HAL_Driver/Src/stm32f4xx_hal_rtc_ex.c **** 
1023:Drivers/STM32F4xx_HAL_Driver/Src/stm32f4xx_hal_rtc_ex.c ****   /* Clear the Wakeup Timer clock source bits in CR register */
1024:Drivers/STM32F4xx_HAL_Driver/Src/stm32f4xx_hal_rtc_ex.c ****   hrtc->Instance->CR &= (uint32_t)~RTC_CR_WUCKSEL;
 1733              		.loc 1 1024 3 is_stmt 1 view .LVU588
 1734              		.loc 1 1024 22 is_stmt 0 view .LVU589
 1735 007a 9C68     		ldr	r4, [r3, #8]
 1736 007c 24F00704 		bic	r4, r4, #7
 1737 0080 9C60     		str	r4, [r3, #8]
1025:Drivers/STM32F4xx_HAL_Driver/Src/stm32f4xx_hal_rtc_ex.c **** 
1026:Drivers/STM32F4xx_HAL_Driver/Src/stm32f4xx_hal_rtc_ex.c ****   /* Configure the clock source */
1027:Drivers/STM32F4xx_HAL_Driver/Src/stm32f4xx_hal_rtc_ex.c ****   hrtc->Instance->CR |= (uint32_t)WakeUpClock;
 1738              		.loc 1 1027 3 is_stmt 1 view .LVU590
 1739              		.loc 1 1027 7 is_stmt 0 view .LVU591
 1740 0082 0468     		ldr	r4, [r0]
 1741              		.loc 1 1027 22 view .LVU592
 1742 0084 A368     		ldr	r3, [r4, #8]
 1743 0086 1A43     		orrs	r2, r2, r3
 1744              	.LVL117:
 1745              		.loc 1 1027 22 view .LVU593
 1746 0088 A260     		str	r2, [r4, #8]
1028:Drivers/STM32F4xx_HAL_Driver/Src/stm32f4xx_hal_rtc_ex.c **** 
1029:Drivers/STM32F4xx_HAL_Driver/Src/stm32f4xx_hal_rtc_ex.c ****   /* Configure the Wakeup Timer counter */
1030:Drivers/STM32F4xx_HAL_Driver/Src/stm32f4xx_hal_rtc_ex.c ****   hrtc->Instance->WUTR = (uint32_t)WakeUpCounter;
 1747              		.loc 1 1030 3 is_stmt 1 view .LVU594
 1748              		.loc 1 1030 7 is_stmt 0 view .LVU595
 1749 008a 0368     		ldr	r3, [r0]
 1750              		.loc 1 1030 24 view .LVU596
 1751 008c 5961     		str	r1, [r3, #20]
1031:Drivers/STM32F4xx_HAL_Driver/Src/stm32f4xx_hal_rtc_ex.c **** 
1032:Drivers/STM32F4xx_HAL_Driver/Src/stm32f4xx_hal_rtc_ex.c ****   /* RTC wakeup timer Interrupt Configuration: EXTI configuration */
1033:Drivers/STM32F4xx_HAL_Driver/Src/stm32f4xx_hal_rtc_ex.c ****   __HAL_RTC_WAKEUPTIMER_EXTI_ENABLE_IT();
 1752              		.loc 1 1033 3 is_stmt 1 view .LVU597
 1753 008e 1A4B     		ldr	r3, .L112+8
 1754 0090 1A68     		ldr	r2, [r3]
 1755 0092 42F48002 		orr	r2, r2, #4194304
ARM GAS  /tmp/ccKeTRIy.s 			page 51


 1756 0096 1A60     		str	r2, [r3]
1034:Drivers/STM32F4xx_HAL_Driver/Src/stm32f4xx_hal_rtc_ex.c ****   __HAL_RTC_WAKEUPTIMER_EXTI_ENABLE_RISING_EDGE();
 1757              		.loc 1 1034 3 view .LVU598
 1758 0098 9A68     		ldr	r2, [r3, #8]
 1759 009a 42F48002 		orr	r2, r2, #4194304
 1760 009e 9A60     		str	r2, [r3, #8]
1035:Drivers/STM32F4xx_HAL_Driver/Src/stm32f4xx_hal_rtc_ex.c **** 
1036:Drivers/STM32F4xx_HAL_Driver/Src/stm32f4xx_hal_rtc_ex.c ****   /* Configure the interrupt in the RTC_CR register */
1037:Drivers/STM32F4xx_HAL_Driver/Src/stm32f4xx_hal_rtc_ex.c ****   __HAL_RTC_WAKEUPTIMER_ENABLE_IT(hrtc, RTC_IT_WUT);
 1761              		.loc 1 1037 3 view .LVU599
 1762 00a0 0268     		ldr	r2, [r0]
 1763 00a2 9368     		ldr	r3, [r2, #8]
 1764 00a4 43F48043 		orr	r3, r3, #16384
 1765 00a8 9360     		str	r3, [r2, #8]
1038:Drivers/STM32F4xx_HAL_Driver/Src/stm32f4xx_hal_rtc_ex.c **** 
1039:Drivers/STM32F4xx_HAL_Driver/Src/stm32f4xx_hal_rtc_ex.c ****   /* Enable the Wakeup Timer */
1040:Drivers/STM32F4xx_HAL_Driver/Src/stm32f4xx_hal_rtc_ex.c ****   __HAL_RTC_WAKEUPTIMER_ENABLE(hrtc);
 1766              		.loc 1 1040 3 view .LVU600
 1767 00aa 0268     		ldr	r2, [r0]
 1768 00ac 9368     		ldr	r3, [r2, #8]
 1769 00ae 43F48063 		orr	r3, r3, #1024
 1770 00b2 9360     		str	r3, [r2, #8]
1041:Drivers/STM32F4xx_HAL_Driver/Src/stm32f4xx_hal_rtc_ex.c **** 
1042:Drivers/STM32F4xx_HAL_Driver/Src/stm32f4xx_hal_rtc_ex.c ****   /* Enable the write protection for RTC registers */
1043:Drivers/STM32F4xx_HAL_Driver/Src/stm32f4xx_hal_rtc_ex.c ****   __HAL_RTC_WRITEPROTECTION_ENABLE(hrtc);
 1771              		.loc 1 1043 3 view .LVU601
 1772              		.loc 1 1043 3 view .LVU602
 1773 00b4 0368     		ldr	r3, [r0]
 1774 00b6 FF22     		movs	r2, #255
 1775 00b8 5A62     		str	r2, [r3, #36]
 1776              		.loc 1 1043 3 view .LVU603
1044:Drivers/STM32F4xx_HAL_Driver/Src/stm32f4xx_hal_rtc_ex.c **** 
1045:Drivers/STM32F4xx_HAL_Driver/Src/stm32f4xx_hal_rtc_ex.c ****   hrtc->State = HAL_RTC_STATE_READY;
 1777              		.loc 1 1045 3 view .LVU604
 1778              		.loc 1 1045 15 is_stmt 0 view .LVU605
 1779 00ba 0123     		movs	r3, #1
 1780 00bc 4377     		strb	r3, [r0, #29]
1046:Drivers/STM32F4xx_HAL_Driver/Src/stm32f4xx_hal_rtc_ex.c **** 
1047:Drivers/STM32F4xx_HAL_Driver/Src/stm32f4xx_hal_rtc_ex.c ****   /* Process Unlocked */
1048:Drivers/STM32F4xx_HAL_Driver/Src/stm32f4xx_hal_rtc_ex.c ****   __HAL_UNLOCK(hrtc);
 1781              		.loc 1 1048 3 is_stmt 1 view .LVU606
 1782              		.loc 1 1048 3 view .LVU607
 1783 00be 0023     		movs	r3, #0
 1784 00c0 0377     		strb	r3, [r0, #28]
 1785              		.loc 1 1048 3 view .LVU608
1049:Drivers/STM32F4xx_HAL_Driver/Src/stm32f4xx_hal_rtc_ex.c **** 
1050:Drivers/STM32F4xx_HAL_Driver/Src/stm32f4xx_hal_rtc_ex.c ****   return HAL_OK;
 1786              		.loc 1 1050 3 view .LVU609
 1787              		.loc 1 1050 10 is_stmt 0 view .LVU610
 1788 00c2 1846     		mov	r0, r3
 1789              	.LVL118:
 1790              		.loc 1 1050 10 view .LVU611
 1791 00c4 0FE0     		b	.L102
 1792              	.LVL119:
 1793              	.L110:
 985:Drivers/STM32F4xx_HAL_Driver/Src/stm32f4xx_hal_rtc_ex.c **** 
 1794              		.loc 1 985 9 is_stmt 1 view .LVU612
ARM GAS  /tmp/ccKeTRIy.s 			page 52


 985:Drivers/STM32F4xx_HAL_Driver/Src/stm32f4xx_hal_rtc_ex.c **** 
 1795              		.loc 1 985 9 view .LVU613
 1796 00c6 FF23     		movs	r3, #255
 1797 00c8 7362     		str	r3, [r6, #36]
 985:Drivers/STM32F4xx_HAL_Driver/Src/stm32f4xx_hal_rtc_ex.c **** 
 1798              		.loc 1 985 9 view .LVU614
 987:Drivers/STM32F4xx_HAL_Driver/Src/stm32f4xx_hal_rtc_ex.c **** 
 1799              		.loc 1 987 9 view .LVU615
 987:Drivers/STM32F4xx_HAL_Driver/Src/stm32f4xx_hal_rtc_ex.c **** 
 1800              		.loc 1 987 21 is_stmt 0 view .LVU616
 1801 00ca 0323     		movs	r3, #3
 1802 00cc 4377     		strb	r3, [r0, #29]
 990:Drivers/STM32F4xx_HAL_Driver/Src/stm32f4xx_hal_rtc_ex.c **** 
 1803              		.loc 1 990 9 is_stmt 1 view .LVU617
 990:Drivers/STM32F4xx_HAL_Driver/Src/stm32f4xx_hal_rtc_ex.c **** 
 1804              		.loc 1 990 9 view .LVU618
 1805 00ce 0022     		movs	r2, #0
 1806              	.LVL120:
 990:Drivers/STM32F4xx_HAL_Driver/Src/stm32f4xx_hal_rtc_ex.c **** 
 1807              		.loc 1 990 9 is_stmt 0 view .LVU619
 1808 00d0 0277     		strb	r2, [r0, #28]
 990:Drivers/STM32F4xx_HAL_Driver/Src/stm32f4xx_hal_rtc_ex.c **** 
 1809              		.loc 1 990 9 is_stmt 1 view .LVU620
 992:Drivers/STM32F4xx_HAL_Driver/Src/stm32f4xx_hal_rtc_ex.c ****       }
 1810              		.loc 1 992 9 view .LVU621
 992:Drivers/STM32F4xx_HAL_Driver/Src/stm32f4xx_hal_rtc_ex.c ****       }
 1811              		.loc 1 992 16 is_stmt 0 view .LVU622
 1812 00d2 1846     		mov	r0, r3
 1813              	.LVL121:
 992:Drivers/STM32F4xx_HAL_Driver/Src/stm32f4xx_hal_rtc_ex.c ****       }
 1814              		.loc 1 992 16 view .LVU623
 1815 00d4 07E0     		b	.L102
 1816              	.LVL122:
 1817              	.L111:
1012:Drivers/STM32F4xx_HAL_Driver/Src/stm32f4xx_hal_rtc_ex.c **** 
 1818              		.loc 1 1012 7 is_stmt 1 view .LVU624
1012:Drivers/STM32F4xx_HAL_Driver/Src/stm32f4xx_hal_rtc_ex.c **** 
 1819              		.loc 1 1012 7 view .LVU625
 1820 00d6 0368     		ldr	r3, [r0]
 1821 00d8 FF22     		movs	r2, #255
 1822              	.LVL123:
1012:Drivers/STM32F4xx_HAL_Driver/Src/stm32f4xx_hal_rtc_ex.c **** 
 1823              		.loc 1 1012 7 is_stmt 0 view .LVU626
 1824 00da 5A62     		str	r2, [r3, #36]
1012:Drivers/STM32F4xx_HAL_Driver/Src/stm32f4xx_hal_rtc_ex.c **** 
 1825              		.loc 1 1012 7 is_stmt 1 view .LVU627
1014:Drivers/STM32F4xx_HAL_Driver/Src/stm32f4xx_hal_rtc_ex.c **** 
 1826              		.loc 1 1014 7 view .LVU628
1014:Drivers/STM32F4xx_HAL_Driver/Src/stm32f4xx_hal_rtc_ex.c **** 
 1827              		.loc 1 1014 19 is_stmt 0 view .LVU629
 1828 00dc 0323     		movs	r3, #3
 1829 00de 4377     		strb	r3, [r0, #29]
1017:Drivers/STM32F4xx_HAL_Driver/Src/stm32f4xx_hal_rtc_ex.c **** 
 1830              		.loc 1 1017 7 is_stmt 1 view .LVU630
1017:Drivers/STM32F4xx_HAL_Driver/Src/stm32f4xx_hal_rtc_ex.c **** 
 1831              		.loc 1 1017 7 view .LVU631
 1832 00e0 0022     		movs	r2, #0
ARM GAS  /tmp/ccKeTRIy.s 			page 53


 1833 00e2 0277     		strb	r2, [r0, #28]
1017:Drivers/STM32F4xx_HAL_Driver/Src/stm32f4xx_hal_rtc_ex.c **** 
 1834              		.loc 1 1017 7 view .LVU632
1019:Drivers/STM32F4xx_HAL_Driver/Src/stm32f4xx_hal_rtc_ex.c ****     }
 1835              		.loc 1 1019 7 view .LVU633
1019:Drivers/STM32F4xx_HAL_Driver/Src/stm32f4xx_hal_rtc_ex.c ****     }
 1836              		.loc 1 1019 14 is_stmt 0 view .LVU634
 1837 00e4 1846     		mov	r0, r3
 1838              	.LVL124:
 1839              	.L102:
1051:Drivers/STM32F4xx_HAL_Driver/Src/stm32f4xx_hal_rtc_ex.c **** }
 1840              		.loc 1 1051 1 view .LVU635
 1841 00e6 03B0     		add	sp, sp, #12
 1842              	.LCFI22:
 1843              		.cfi_remember_state
 1844              		.cfi_def_cfa_offset 12
 1845              		@ sp needed
 1846 00e8 70BC     		pop	{r4, r5, r6}
 1847              	.LCFI23:
 1848              		.cfi_restore 6
 1849              		.cfi_restore 5
 1850              		.cfi_restore 4
 1851              		.cfi_def_cfa_offset 0
 1852 00ea 7047     		bx	lr
 1853              	.LVL125:
 1854              	.L108:
 1855              	.LCFI24:
 1856              		.cfi_restore_state
 969:Drivers/STM32F4xx_HAL_Driver/Src/stm32f4xx_hal_rtc_ex.c **** 
 1857              		.loc 1 969 3 view .LVU636
 1858 00ec 0220     		movs	r0, #2
 1859              	.LVL126:
 969:Drivers/STM32F4xx_HAL_Driver/Src/stm32f4xx_hal_rtc_ex.c **** 
 1860              		.loc 1 969 3 view .LVU637
 1861 00ee FAE7     		b	.L102
 1862              	.L113:
 1863              		.align	2
 1864              	.L112:
 1865 00f0 00000000 		.word	SystemCoreClock
 1866 00f4 D34D6210 		.word	274877907
 1867 00f8 003C0140 		.word	1073822720
 1868              		.cfi_endproc
 1869              	.LFE145:
 1871              		.section	.text.HAL_RTCEx_DeactivateWakeUpTimer,"ax",%progbits
 1872              		.align	1
 1873              		.global	HAL_RTCEx_DeactivateWakeUpTimer
 1874              		.syntax unified
 1875              		.thumb
 1876              		.thumb_func
 1877              		.fpu fpv4-sp-d16
 1879              	HAL_RTCEx_DeactivateWakeUpTimer:
 1880              	.LVL127:
 1881              	.LFB146:
1052:Drivers/STM32F4xx_HAL_Driver/Src/stm32f4xx_hal_rtc_ex.c **** 
1053:Drivers/STM32F4xx_HAL_Driver/Src/stm32f4xx_hal_rtc_ex.c **** /**
1054:Drivers/STM32F4xx_HAL_Driver/Src/stm32f4xx_hal_rtc_ex.c ****   * @brief  Deactivates wakeup timer counter.
1055:Drivers/STM32F4xx_HAL_Driver/Src/stm32f4xx_hal_rtc_ex.c ****   * @param  hrtc pointer to a RTC_HandleTypeDef structure that contains
ARM GAS  /tmp/ccKeTRIy.s 			page 54


1056:Drivers/STM32F4xx_HAL_Driver/Src/stm32f4xx_hal_rtc_ex.c ****   *                the configuration information for RTC.
1057:Drivers/STM32F4xx_HAL_Driver/Src/stm32f4xx_hal_rtc_ex.c ****   * @retval HAL status
1058:Drivers/STM32F4xx_HAL_Driver/Src/stm32f4xx_hal_rtc_ex.c ****   */
1059:Drivers/STM32F4xx_HAL_Driver/Src/stm32f4xx_hal_rtc_ex.c **** HAL_StatusTypeDef HAL_RTCEx_DeactivateWakeUpTimer(RTC_HandleTypeDef *hrtc)
1060:Drivers/STM32F4xx_HAL_Driver/Src/stm32f4xx_hal_rtc_ex.c **** {
 1882              		.loc 1 1060 1 is_stmt 1 view -0
 1883              		.cfi_startproc
 1884              		@ args = 0, pretend = 0, frame = 0
 1885              		@ frame_needed = 0, uses_anonymous_args = 0
 1886              		.loc 1 1060 1 is_stmt 0 view .LVU639
 1887 0000 38B5     		push	{r3, r4, r5, lr}
 1888              	.LCFI25:
 1889              		.cfi_def_cfa_offset 16
 1890              		.cfi_offset 3, -16
 1891              		.cfi_offset 4, -12
 1892              		.cfi_offset 5, -8
 1893              		.cfi_offset 14, -4
1061:Drivers/STM32F4xx_HAL_Driver/Src/stm32f4xx_hal_rtc_ex.c ****   uint32_t tickstart = 0U;
 1894              		.loc 1 1061 3 is_stmt 1 view .LVU640
 1895              	.LVL128:
1062:Drivers/STM32F4xx_HAL_Driver/Src/stm32f4xx_hal_rtc_ex.c **** 
1063:Drivers/STM32F4xx_HAL_Driver/Src/stm32f4xx_hal_rtc_ex.c ****   /* Process Locked */
1064:Drivers/STM32F4xx_HAL_Driver/Src/stm32f4xx_hal_rtc_ex.c ****   __HAL_LOCK(hrtc);
 1896              		.loc 1 1064 3 view .LVU641
 1897              		.loc 1 1064 3 view .LVU642
 1898 0002 037F     		ldrb	r3, [r0, #28]	@ zero_extendqisi2
 1899 0004 012B     		cmp	r3, #1
 1900 0006 31D0     		beq	.L118
 1901 0008 0446     		mov	r4, r0
 1902              		.loc 1 1064 3 discriminator 2 view .LVU643
 1903 000a 0123     		movs	r3, #1
 1904 000c 0377     		strb	r3, [r0, #28]
 1905              		.loc 1 1064 3 discriminator 2 view .LVU644
1065:Drivers/STM32F4xx_HAL_Driver/Src/stm32f4xx_hal_rtc_ex.c **** 
1066:Drivers/STM32F4xx_HAL_Driver/Src/stm32f4xx_hal_rtc_ex.c ****   hrtc->State = HAL_RTC_STATE_BUSY;
 1906              		.loc 1 1066 3 discriminator 2 view .LVU645
 1907              		.loc 1 1066 15 is_stmt 0 discriminator 2 view .LVU646
 1908 000e 0223     		movs	r3, #2
 1909 0010 4377     		strb	r3, [r0, #29]
1067:Drivers/STM32F4xx_HAL_Driver/Src/stm32f4xx_hal_rtc_ex.c **** 
1068:Drivers/STM32F4xx_HAL_Driver/Src/stm32f4xx_hal_rtc_ex.c ****   /* Disable the write protection for RTC registers */
1069:Drivers/STM32F4xx_HAL_Driver/Src/stm32f4xx_hal_rtc_ex.c ****   __HAL_RTC_WRITEPROTECTION_DISABLE(hrtc);
 1910              		.loc 1 1069 3 is_stmt 1 discriminator 2 view .LVU647
 1911              		.loc 1 1069 3 discriminator 2 view .LVU648
 1912 0012 0368     		ldr	r3, [r0]
 1913 0014 CA22     		movs	r2, #202
 1914 0016 5A62     		str	r2, [r3, #36]
 1915              		.loc 1 1069 3 discriminator 2 view .LVU649
 1916 0018 0368     		ldr	r3, [r0]
 1917 001a 5322     		movs	r2, #83
 1918 001c 5A62     		str	r2, [r3, #36]
 1919              		.loc 1 1069 3 discriminator 2 view .LVU650
1070:Drivers/STM32F4xx_HAL_Driver/Src/stm32f4xx_hal_rtc_ex.c **** 
1071:Drivers/STM32F4xx_HAL_Driver/Src/stm32f4xx_hal_rtc_ex.c ****   /* Disable the Wakeup Timer */
1072:Drivers/STM32F4xx_HAL_Driver/Src/stm32f4xx_hal_rtc_ex.c ****   __HAL_RTC_WAKEUPTIMER_DISABLE(hrtc);
 1920              		.loc 1 1072 3 discriminator 2 view .LVU651
 1921 001e 0268     		ldr	r2, [r0]
ARM GAS  /tmp/ccKeTRIy.s 			page 55


 1922 0020 9368     		ldr	r3, [r2, #8]
 1923 0022 23F48063 		bic	r3, r3, #1024
 1924 0026 9360     		str	r3, [r2, #8]
1073:Drivers/STM32F4xx_HAL_Driver/Src/stm32f4xx_hal_rtc_ex.c **** 
1074:Drivers/STM32F4xx_HAL_Driver/Src/stm32f4xx_hal_rtc_ex.c ****   /* In case of interrupt mode is used, the interrupt source must disabled */
1075:Drivers/STM32F4xx_HAL_Driver/Src/stm32f4xx_hal_rtc_ex.c ****   __HAL_RTC_WAKEUPTIMER_DISABLE_IT(hrtc, RTC_IT_WUT);
 1925              		.loc 1 1075 3 discriminator 2 view .LVU652
 1926 0028 0268     		ldr	r2, [r0]
 1927 002a 9368     		ldr	r3, [r2, #8]
 1928 002c 23F48043 		bic	r3, r3, #16384
 1929 0030 9360     		str	r3, [r2, #8]
1076:Drivers/STM32F4xx_HAL_Driver/Src/stm32f4xx_hal_rtc_ex.c **** 
1077:Drivers/STM32F4xx_HAL_Driver/Src/stm32f4xx_hal_rtc_ex.c ****   /* Get tick */
1078:Drivers/STM32F4xx_HAL_Driver/Src/stm32f4xx_hal_rtc_ex.c ****   tickstart = HAL_GetTick();
 1930              		.loc 1 1078 3 discriminator 2 view .LVU653
 1931              		.loc 1 1078 15 is_stmt 0 discriminator 2 view .LVU654
 1932 0032 FFF7FEFF 		bl	HAL_GetTick
 1933              	.LVL129:
 1934              		.loc 1 1078 15 discriminator 2 view .LVU655
 1935 0036 0546     		mov	r5, r0
 1936              	.LVL130:
1079:Drivers/STM32F4xx_HAL_Driver/Src/stm32f4xx_hal_rtc_ex.c **** 
1080:Drivers/STM32F4xx_HAL_Driver/Src/stm32f4xx_hal_rtc_ex.c ****   /* Wait till RTC WUTWF flag is set and if timeout is reached exit */
1081:Drivers/STM32F4xx_HAL_Driver/Src/stm32f4xx_hal_rtc_ex.c ****   while (__HAL_RTC_WAKEUPTIMER_GET_FLAG(hrtc, RTC_FLAG_WUTWF) == 0U)
 1937              		.loc 1 1081 3 is_stmt 1 discriminator 2 view .LVU656
 1938              	.L116:
 1939              		.loc 1 1081 9 view .LVU657
 1940              		.loc 1 1081 10 is_stmt 0 view .LVU658
 1941 0038 2368     		ldr	r3, [r4]
 1942 003a DA68     		ldr	r2, [r3, #12]
 1943              		.loc 1 1081 9 view .LVU659
 1944 003c 12F0040F 		tst	r2, #4
 1945 0040 0DD1     		bne	.L120
1082:Drivers/STM32F4xx_HAL_Driver/Src/stm32f4xx_hal_rtc_ex.c ****   {
1083:Drivers/STM32F4xx_HAL_Driver/Src/stm32f4xx_hal_rtc_ex.c ****     if ((HAL_GetTick() - tickstart) > RTC_TIMEOUT_VALUE)
 1946              		.loc 1 1083 5 is_stmt 1 view .LVU660
 1947              		.loc 1 1083 10 is_stmt 0 view .LVU661
 1948 0042 FFF7FEFF 		bl	HAL_GetTick
 1949              	.LVL131:
 1950              		.loc 1 1083 24 view .LVU662
 1951 0046 431B     		subs	r3, r0, r5
 1952              		.loc 1 1083 8 view .LVU663
 1953 0048 B3F57A7F 		cmp	r3, #1000
 1954 004c F4D9     		bls	.L116
1084:Drivers/STM32F4xx_HAL_Driver/Src/stm32f4xx_hal_rtc_ex.c ****     {
1085:Drivers/STM32F4xx_HAL_Driver/Src/stm32f4xx_hal_rtc_ex.c ****       /* Enable the write protection for RTC registers */
1086:Drivers/STM32F4xx_HAL_Driver/Src/stm32f4xx_hal_rtc_ex.c ****       __HAL_RTC_WRITEPROTECTION_ENABLE(hrtc);
 1955              		.loc 1 1086 7 is_stmt 1 view .LVU664
 1956              		.loc 1 1086 7 view .LVU665
 1957 004e 2368     		ldr	r3, [r4]
 1958 0050 FF22     		movs	r2, #255
 1959 0052 5A62     		str	r2, [r3, #36]
 1960              		.loc 1 1086 7 view .LVU666
1087:Drivers/STM32F4xx_HAL_Driver/Src/stm32f4xx_hal_rtc_ex.c **** 
1088:Drivers/STM32F4xx_HAL_Driver/Src/stm32f4xx_hal_rtc_ex.c ****       hrtc->State = HAL_RTC_STATE_TIMEOUT;
 1961              		.loc 1 1088 7 view .LVU667
 1962              		.loc 1 1088 19 is_stmt 0 view .LVU668
ARM GAS  /tmp/ccKeTRIy.s 			page 56


 1963 0054 0320     		movs	r0, #3
 1964 0056 6077     		strb	r0, [r4, #29]
1089:Drivers/STM32F4xx_HAL_Driver/Src/stm32f4xx_hal_rtc_ex.c **** 
1090:Drivers/STM32F4xx_HAL_Driver/Src/stm32f4xx_hal_rtc_ex.c ****       /* Process Unlocked */
1091:Drivers/STM32F4xx_HAL_Driver/Src/stm32f4xx_hal_rtc_ex.c ****       __HAL_UNLOCK(hrtc);
 1965              		.loc 1 1091 7 is_stmt 1 view .LVU669
 1966              		.loc 1 1091 7 view .LVU670
 1967 0058 0023     		movs	r3, #0
 1968 005a 2377     		strb	r3, [r4, #28]
 1969              		.loc 1 1091 7 view .LVU671
1092:Drivers/STM32F4xx_HAL_Driver/Src/stm32f4xx_hal_rtc_ex.c **** 
1093:Drivers/STM32F4xx_HAL_Driver/Src/stm32f4xx_hal_rtc_ex.c ****       return HAL_TIMEOUT;
 1970              		.loc 1 1093 7 view .LVU672
 1971              		.loc 1 1093 14 is_stmt 0 view .LVU673
 1972 005c 05E0     		b	.L115
 1973              	.L120:
1094:Drivers/STM32F4xx_HAL_Driver/Src/stm32f4xx_hal_rtc_ex.c ****     }
1095:Drivers/STM32F4xx_HAL_Driver/Src/stm32f4xx_hal_rtc_ex.c ****   }
1096:Drivers/STM32F4xx_HAL_Driver/Src/stm32f4xx_hal_rtc_ex.c **** 
1097:Drivers/STM32F4xx_HAL_Driver/Src/stm32f4xx_hal_rtc_ex.c ****   /* Enable the write protection for RTC registers */
1098:Drivers/STM32F4xx_HAL_Driver/Src/stm32f4xx_hal_rtc_ex.c ****   __HAL_RTC_WRITEPROTECTION_ENABLE(hrtc);
 1974              		.loc 1 1098 3 is_stmt 1 view .LVU674
 1975              		.loc 1 1098 3 view .LVU675
 1976 005e FF22     		movs	r2, #255
 1977 0060 5A62     		str	r2, [r3, #36]
 1978              		.loc 1 1098 3 view .LVU676
1099:Drivers/STM32F4xx_HAL_Driver/Src/stm32f4xx_hal_rtc_ex.c **** 
1100:Drivers/STM32F4xx_HAL_Driver/Src/stm32f4xx_hal_rtc_ex.c ****   hrtc->State = HAL_RTC_STATE_READY;
 1979              		.loc 1 1100 3 view .LVU677
 1980              		.loc 1 1100 15 is_stmt 0 view .LVU678
 1981 0062 0123     		movs	r3, #1
 1982 0064 6377     		strb	r3, [r4, #29]
1101:Drivers/STM32F4xx_HAL_Driver/Src/stm32f4xx_hal_rtc_ex.c **** 
1102:Drivers/STM32F4xx_HAL_Driver/Src/stm32f4xx_hal_rtc_ex.c ****   /* Process Unlocked */
1103:Drivers/STM32F4xx_HAL_Driver/Src/stm32f4xx_hal_rtc_ex.c ****   __HAL_UNLOCK(hrtc);
 1983              		.loc 1 1103 3 is_stmt 1 view .LVU679
 1984              		.loc 1 1103 3 view .LVU680
 1985 0066 0020     		movs	r0, #0
 1986 0068 2077     		strb	r0, [r4, #28]
 1987              		.loc 1 1103 3 view .LVU681
1104:Drivers/STM32F4xx_HAL_Driver/Src/stm32f4xx_hal_rtc_ex.c **** 
1105:Drivers/STM32F4xx_HAL_Driver/Src/stm32f4xx_hal_rtc_ex.c ****   return HAL_OK;
 1988              		.loc 1 1105 3 view .LVU682
 1989              	.LVL132:
 1990              	.L115:
1106:Drivers/STM32F4xx_HAL_Driver/Src/stm32f4xx_hal_rtc_ex.c **** }
 1991              		.loc 1 1106 1 is_stmt 0 view .LVU683
 1992 006a 38BD     		pop	{r3, r4, r5, pc}
 1993              	.LVL133:
 1994              	.L118:
1064:Drivers/STM32F4xx_HAL_Driver/Src/stm32f4xx_hal_rtc_ex.c **** 
 1995              		.loc 1 1064 3 view .LVU684
 1996 006c 0220     		movs	r0, #2
 1997              	.LVL134:
1064:Drivers/STM32F4xx_HAL_Driver/Src/stm32f4xx_hal_rtc_ex.c **** 
 1998              		.loc 1 1064 3 view .LVU685
 1999 006e FCE7     		b	.L115
ARM GAS  /tmp/ccKeTRIy.s 			page 57


 2000              		.cfi_endproc
 2001              	.LFE146:
 2003              		.section	.text.HAL_RTCEx_GetWakeUpTimer,"ax",%progbits
 2004              		.align	1
 2005              		.global	HAL_RTCEx_GetWakeUpTimer
 2006              		.syntax unified
 2007              		.thumb
 2008              		.thumb_func
 2009              		.fpu fpv4-sp-d16
 2011              	HAL_RTCEx_GetWakeUpTimer:
 2012              	.LVL135:
 2013              	.LFB147:
1107:Drivers/STM32F4xx_HAL_Driver/Src/stm32f4xx_hal_rtc_ex.c **** 
1108:Drivers/STM32F4xx_HAL_Driver/Src/stm32f4xx_hal_rtc_ex.c **** /**
1109:Drivers/STM32F4xx_HAL_Driver/Src/stm32f4xx_hal_rtc_ex.c ****   * @brief  Gets wakeup timer counter.
1110:Drivers/STM32F4xx_HAL_Driver/Src/stm32f4xx_hal_rtc_ex.c ****   * @param  hrtc pointer to a RTC_HandleTypeDef structure that contains
1111:Drivers/STM32F4xx_HAL_Driver/Src/stm32f4xx_hal_rtc_ex.c ****   *                the configuration information for RTC.
1112:Drivers/STM32F4xx_HAL_Driver/Src/stm32f4xx_hal_rtc_ex.c ****   * @retval Counter value
1113:Drivers/STM32F4xx_HAL_Driver/Src/stm32f4xx_hal_rtc_ex.c ****   */
1114:Drivers/STM32F4xx_HAL_Driver/Src/stm32f4xx_hal_rtc_ex.c **** uint32_t HAL_RTCEx_GetWakeUpTimer(RTC_HandleTypeDef *hrtc)
1115:Drivers/STM32F4xx_HAL_Driver/Src/stm32f4xx_hal_rtc_ex.c **** {
 2014              		.loc 1 1115 1 is_stmt 1 view -0
 2015              		.cfi_startproc
 2016              		@ args = 0, pretend = 0, frame = 0
 2017              		@ frame_needed = 0, uses_anonymous_args = 0
 2018              		@ link register save eliminated.
1116:Drivers/STM32F4xx_HAL_Driver/Src/stm32f4xx_hal_rtc_ex.c ****   /* Get the counter value */
1117:Drivers/STM32F4xx_HAL_Driver/Src/stm32f4xx_hal_rtc_ex.c ****   return ((uint32_t)(hrtc->Instance->WUTR & RTC_WUTR_WUT));
 2019              		.loc 1 1117 3 view .LVU687
 2020              		.loc 1 1117 26 is_stmt 0 view .LVU688
 2021 0000 0368     		ldr	r3, [r0]
 2022              		.loc 1 1117 36 view .LVU689
 2023 0002 5869     		ldr	r0, [r3, #20]
 2024              	.LVL136:
1118:Drivers/STM32F4xx_HAL_Driver/Src/stm32f4xx_hal_rtc_ex.c **** }
 2025              		.loc 1 1118 1 view .LVU690
 2026 0004 80B2     		uxth	r0, r0
 2027 0006 7047     		bx	lr
 2028              		.cfi_endproc
 2029              	.LFE147:
 2031              		.section	.text.HAL_RTCEx_WakeUpTimerEventCallback,"ax",%progbits
 2032              		.align	1
 2033              		.weak	HAL_RTCEx_WakeUpTimerEventCallback
 2034              		.syntax unified
 2035              		.thumb
 2036              		.thumb_func
 2037              		.fpu fpv4-sp-d16
 2039              	HAL_RTCEx_WakeUpTimerEventCallback:
 2040              	.LVL137:
 2041              	.LFB149:
1119:Drivers/STM32F4xx_HAL_Driver/Src/stm32f4xx_hal_rtc_ex.c **** 
1120:Drivers/STM32F4xx_HAL_Driver/Src/stm32f4xx_hal_rtc_ex.c **** /**
1121:Drivers/STM32F4xx_HAL_Driver/Src/stm32f4xx_hal_rtc_ex.c ****   * @brief  Handles Wakeup Timer interrupt request.
1122:Drivers/STM32F4xx_HAL_Driver/Src/stm32f4xx_hal_rtc_ex.c ****   * @note   Unlike alarm interrupt line (shared by Alarms A and B) or tamper
1123:Drivers/STM32F4xx_HAL_Driver/Src/stm32f4xx_hal_rtc_ex.c ****   *         interrupt line (shared by timestamp and tampers) wakeup timer
1124:Drivers/STM32F4xx_HAL_Driver/Src/stm32f4xx_hal_rtc_ex.c ****   *         interrupt line is exclusive to the wakeup timer.
1125:Drivers/STM32F4xx_HAL_Driver/Src/stm32f4xx_hal_rtc_ex.c ****   *         There is no need in this case to check on the interrupt enable
ARM GAS  /tmp/ccKeTRIy.s 			page 58


1126:Drivers/STM32F4xx_HAL_Driver/Src/stm32f4xx_hal_rtc_ex.c ****   *         status via __HAL_RTC_WAKEUPTIMER_GET_IT_SOURCE().
1127:Drivers/STM32F4xx_HAL_Driver/Src/stm32f4xx_hal_rtc_ex.c ****   * @param  hrtc pointer to a RTC_HandleTypeDef structure that contains
1128:Drivers/STM32F4xx_HAL_Driver/Src/stm32f4xx_hal_rtc_ex.c ****   *                the configuration information for RTC.
1129:Drivers/STM32F4xx_HAL_Driver/Src/stm32f4xx_hal_rtc_ex.c ****   * @retval None
1130:Drivers/STM32F4xx_HAL_Driver/Src/stm32f4xx_hal_rtc_ex.c ****   */
1131:Drivers/STM32F4xx_HAL_Driver/Src/stm32f4xx_hal_rtc_ex.c **** void HAL_RTCEx_WakeUpTimerIRQHandler(RTC_HandleTypeDef *hrtc)
1132:Drivers/STM32F4xx_HAL_Driver/Src/stm32f4xx_hal_rtc_ex.c **** {
1133:Drivers/STM32F4xx_HAL_Driver/Src/stm32f4xx_hal_rtc_ex.c ****   /* Get the pending status of the Wakeup timer Interrupt */
1134:Drivers/STM32F4xx_HAL_Driver/Src/stm32f4xx_hal_rtc_ex.c ****   if (__HAL_RTC_WAKEUPTIMER_GET_FLAG(hrtc, RTC_FLAG_WUTF) != 0U)
1135:Drivers/STM32F4xx_HAL_Driver/Src/stm32f4xx_hal_rtc_ex.c ****   {
1136:Drivers/STM32F4xx_HAL_Driver/Src/stm32f4xx_hal_rtc_ex.c ****     /* Wakeup timer callback */
1137:Drivers/STM32F4xx_HAL_Driver/Src/stm32f4xx_hal_rtc_ex.c **** #if (USE_HAL_RTC_REGISTER_CALLBACKS == 1)
1138:Drivers/STM32F4xx_HAL_Driver/Src/stm32f4xx_hal_rtc_ex.c ****     hrtc->WakeUpTimerEventCallback(hrtc);
1139:Drivers/STM32F4xx_HAL_Driver/Src/stm32f4xx_hal_rtc_ex.c **** #else
1140:Drivers/STM32F4xx_HAL_Driver/Src/stm32f4xx_hal_rtc_ex.c ****     HAL_RTCEx_WakeUpTimerEventCallback(hrtc);
1141:Drivers/STM32F4xx_HAL_Driver/Src/stm32f4xx_hal_rtc_ex.c **** #endif /* USE_HAL_RTC_REGISTER_CALLBACKS */
1142:Drivers/STM32F4xx_HAL_Driver/Src/stm32f4xx_hal_rtc_ex.c **** 
1143:Drivers/STM32F4xx_HAL_Driver/Src/stm32f4xx_hal_rtc_ex.c ****     /* Clear the Wakeup timer interrupt pending bit */
1144:Drivers/STM32F4xx_HAL_Driver/Src/stm32f4xx_hal_rtc_ex.c ****     __HAL_RTC_WAKEUPTIMER_CLEAR_FLAG(hrtc, RTC_FLAG_WUTF);
1145:Drivers/STM32F4xx_HAL_Driver/Src/stm32f4xx_hal_rtc_ex.c ****   }
1146:Drivers/STM32F4xx_HAL_Driver/Src/stm32f4xx_hal_rtc_ex.c **** 
1147:Drivers/STM32F4xx_HAL_Driver/Src/stm32f4xx_hal_rtc_ex.c ****   /* Clear the EXTI's line Flag for RTC WakeUpTimer */
1148:Drivers/STM32F4xx_HAL_Driver/Src/stm32f4xx_hal_rtc_ex.c ****   __HAL_RTC_WAKEUPTIMER_EXTI_CLEAR_FLAG();
1149:Drivers/STM32F4xx_HAL_Driver/Src/stm32f4xx_hal_rtc_ex.c **** 
1150:Drivers/STM32F4xx_HAL_Driver/Src/stm32f4xx_hal_rtc_ex.c ****   /* Change RTC state */
1151:Drivers/STM32F4xx_HAL_Driver/Src/stm32f4xx_hal_rtc_ex.c ****   hrtc->State = HAL_RTC_STATE_READY;
1152:Drivers/STM32F4xx_HAL_Driver/Src/stm32f4xx_hal_rtc_ex.c **** }
1153:Drivers/STM32F4xx_HAL_Driver/Src/stm32f4xx_hal_rtc_ex.c **** 
1154:Drivers/STM32F4xx_HAL_Driver/Src/stm32f4xx_hal_rtc_ex.c **** /**
1155:Drivers/STM32F4xx_HAL_Driver/Src/stm32f4xx_hal_rtc_ex.c ****   * @brief  Wakeup Timer callback.
1156:Drivers/STM32F4xx_HAL_Driver/Src/stm32f4xx_hal_rtc_ex.c ****   * @param  hrtc pointer to a RTC_HandleTypeDef structure that contains
1157:Drivers/STM32F4xx_HAL_Driver/Src/stm32f4xx_hal_rtc_ex.c ****   *                the configuration information for RTC.
1158:Drivers/STM32F4xx_HAL_Driver/Src/stm32f4xx_hal_rtc_ex.c ****   * @retval None
1159:Drivers/STM32F4xx_HAL_Driver/Src/stm32f4xx_hal_rtc_ex.c ****   */
1160:Drivers/STM32F4xx_HAL_Driver/Src/stm32f4xx_hal_rtc_ex.c **** __weak void HAL_RTCEx_WakeUpTimerEventCallback(RTC_HandleTypeDef *hrtc)
1161:Drivers/STM32F4xx_HAL_Driver/Src/stm32f4xx_hal_rtc_ex.c **** {
 2042              		.loc 1 1161 1 is_stmt 1 view -0
 2043              		.cfi_startproc
 2044              		@ args = 0, pretend = 0, frame = 0
 2045              		@ frame_needed = 0, uses_anonymous_args = 0
 2046              		@ link register save eliminated.
1162:Drivers/STM32F4xx_HAL_Driver/Src/stm32f4xx_hal_rtc_ex.c ****   /* Prevent unused argument(s) compilation warning */
1163:Drivers/STM32F4xx_HAL_Driver/Src/stm32f4xx_hal_rtc_ex.c ****   UNUSED(hrtc);
 2047              		.loc 1 1163 3 view .LVU692
1164:Drivers/STM32F4xx_HAL_Driver/Src/stm32f4xx_hal_rtc_ex.c **** 
1165:Drivers/STM32F4xx_HAL_Driver/Src/stm32f4xx_hal_rtc_ex.c ****   /* NOTE: This function should not be modified, when the callback is needed,
1166:Drivers/STM32F4xx_HAL_Driver/Src/stm32f4xx_hal_rtc_ex.c ****            the HAL_RTCEx_WakeUpTimerEventCallback could be implemented in the user file
1167:Drivers/STM32F4xx_HAL_Driver/Src/stm32f4xx_hal_rtc_ex.c ****    */
1168:Drivers/STM32F4xx_HAL_Driver/Src/stm32f4xx_hal_rtc_ex.c **** }
 2048              		.loc 1 1168 1 is_stmt 0 view .LVU693
 2049 0000 7047     		bx	lr
 2050              		.cfi_endproc
 2051              	.LFE149:
 2053              		.section	.text.HAL_RTCEx_WakeUpTimerIRQHandler,"ax",%progbits
 2054              		.align	1
 2055              		.global	HAL_RTCEx_WakeUpTimerIRQHandler
 2056              		.syntax unified
ARM GAS  /tmp/ccKeTRIy.s 			page 59


 2057              		.thumb
 2058              		.thumb_func
 2059              		.fpu fpv4-sp-d16
 2061              	HAL_RTCEx_WakeUpTimerIRQHandler:
 2062              	.LVL138:
 2063              	.LFB148:
1132:Drivers/STM32F4xx_HAL_Driver/Src/stm32f4xx_hal_rtc_ex.c ****   /* Get the pending status of the Wakeup timer Interrupt */
 2064              		.loc 1 1132 1 is_stmt 1 view -0
 2065              		.cfi_startproc
 2066              		@ args = 0, pretend = 0, frame = 0
 2067              		@ frame_needed = 0, uses_anonymous_args = 0
1132:Drivers/STM32F4xx_HAL_Driver/Src/stm32f4xx_hal_rtc_ex.c ****   /* Get the pending status of the Wakeup timer Interrupt */
 2068              		.loc 1 1132 1 is_stmt 0 view .LVU695
 2069 0000 10B5     		push	{r4, lr}
 2070              	.LCFI26:
 2071              		.cfi_def_cfa_offset 8
 2072              		.cfi_offset 4, -8
 2073              		.cfi_offset 14, -4
 2074 0002 0446     		mov	r4, r0
1134:Drivers/STM32F4xx_HAL_Driver/Src/stm32f4xx_hal_rtc_ex.c ****   {
 2075              		.loc 1 1134 3 is_stmt 1 view .LVU696
1134:Drivers/STM32F4xx_HAL_Driver/Src/stm32f4xx_hal_rtc_ex.c ****   {
 2076              		.loc 1 1134 7 is_stmt 0 view .LVU697
 2077 0004 0368     		ldr	r3, [r0]
 2078 0006 DB68     		ldr	r3, [r3, #12]
1134:Drivers/STM32F4xx_HAL_Driver/Src/stm32f4xx_hal_rtc_ex.c ****   {
 2079              		.loc 1 1134 6 view .LVU698
 2080 0008 13F4806F 		tst	r3, #1024
 2081 000c 06D1     		bne	.L126
 2082              	.LVL139:
 2083              	.L124:
1148:Drivers/STM32F4xx_HAL_Driver/Src/stm32f4xx_hal_rtc_ex.c **** 
 2084              		.loc 1 1148 3 is_stmt 1 view .LVU699
 2085 000e 084B     		ldr	r3, .L127
 2086 0010 4FF48002 		mov	r2, #4194304
 2087 0014 5A61     		str	r2, [r3, #20]
1151:Drivers/STM32F4xx_HAL_Driver/Src/stm32f4xx_hal_rtc_ex.c **** }
 2088              		.loc 1 1151 3 view .LVU700
1151:Drivers/STM32F4xx_HAL_Driver/Src/stm32f4xx_hal_rtc_ex.c **** }
 2089              		.loc 1 1151 15 is_stmt 0 view .LVU701
 2090 0016 0123     		movs	r3, #1
 2091 0018 6377     		strb	r3, [r4, #29]
1152:Drivers/STM32F4xx_HAL_Driver/Src/stm32f4xx_hal_rtc_ex.c **** 
 2092              		.loc 1 1152 1 view .LVU702
 2093 001a 10BD     		pop	{r4, pc}
 2094              	.LVL140:
 2095              	.L126:
1140:Drivers/STM32F4xx_HAL_Driver/Src/stm32f4xx_hal_rtc_ex.c **** #endif /* USE_HAL_RTC_REGISTER_CALLBACKS */
 2096              		.loc 1 1140 5 is_stmt 1 view .LVU703
 2097 001c FFF7FEFF 		bl	HAL_RTCEx_WakeUpTimerEventCallback
 2098              	.LVL141:
1144:Drivers/STM32F4xx_HAL_Driver/Src/stm32f4xx_hal_rtc_ex.c ****   }
 2099              		.loc 1 1144 5 view .LVU704
 2100 0020 2268     		ldr	r2, [r4]
 2101 0022 D368     		ldr	r3, [r2, #12]
 2102 0024 DBB2     		uxtb	r3, r3
 2103 0026 63F49063 		orn	r3, r3, #1152
ARM GAS  /tmp/ccKeTRIy.s 			page 60


 2104 002a D360     		str	r3, [r2, #12]
 2105 002c EFE7     		b	.L124
 2106              	.L128:
 2107 002e 00BF     		.align	2
 2108              	.L127:
 2109 0030 003C0140 		.word	1073822720
 2110              		.cfi_endproc
 2111              	.LFE148:
 2113              		.section	.text.HAL_RTCEx_PollForWakeUpTimerEvent,"ax",%progbits
 2114              		.align	1
 2115              		.global	HAL_RTCEx_PollForWakeUpTimerEvent
 2116              		.syntax unified
 2117              		.thumb
 2118              		.thumb_func
 2119              		.fpu fpv4-sp-d16
 2121              	HAL_RTCEx_PollForWakeUpTimerEvent:
 2122              	.LVL142:
 2123              	.LFB150:
1169:Drivers/STM32F4xx_HAL_Driver/Src/stm32f4xx_hal_rtc_ex.c **** 
1170:Drivers/STM32F4xx_HAL_Driver/Src/stm32f4xx_hal_rtc_ex.c **** /**
1171:Drivers/STM32F4xx_HAL_Driver/Src/stm32f4xx_hal_rtc_ex.c ****   * @brief  Handles Wakeup Timer Polling.
1172:Drivers/STM32F4xx_HAL_Driver/Src/stm32f4xx_hal_rtc_ex.c ****   * @param  hrtc pointer to a RTC_HandleTypeDef structure that contains
1173:Drivers/STM32F4xx_HAL_Driver/Src/stm32f4xx_hal_rtc_ex.c ****   *                the configuration information for RTC.
1174:Drivers/STM32F4xx_HAL_Driver/Src/stm32f4xx_hal_rtc_ex.c ****   * @param  Timeout Timeout duration
1175:Drivers/STM32F4xx_HAL_Driver/Src/stm32f4xx_hal_rtc_ex.c ****   * @retval HAL status
1176:Drivers/STM32F4xx_HAL_Driver/Src/stm32f4xx_hal_rtc_ex.c ****   */
1177:Drivers/STM32F4xx_HAL_Driver/Src/stm32f4xx_hal_rtc_ex.c **** HAL_StatusTypeDef HAL_RTCEx_PollForWakeUpTimerEvent(RTC_HandleTypeDef *hrtc, uint32_t Timeout)
1178:Drivers/STM32F4xx_HAL_Driver/Src/stm32f4xx_hal_rtc_ex.c **** {
 2124              		.loc 1 1178 1 view -0
 2125              		.cfi_startproc
 2126              		@ args = 0, pretend = 0, frame = 0
 2127              		@ frame_needed = 0, uses_anonymous_args = 0
 2128              		.loc 1 1178 1 is_stmt 0 view .LVU706
 2129 0000 70B5     		push	{r4, r5, r6, lr}
 2130              	.LCFI27:
 2131              		.cfi_def_cfa_offset 16
 2132              		.cfi_offset 4, -16
 2133              		.cfi_offset 5, -12
 2134              		.cfi_offset 6, -8
 2135              		.cfi_offset 14, -4
 2136 0002 0446     		mov	r4, r0
 2137 0004 0D46     		mov	r5, r1
1179:Drivers/STM32F4xx_HAL_Driver/Src/stm32f4xx_hal_rtc_ex.c ****   uint32_t tickstart = 0U;
 2138              		.loc 1 1179 3 is_stmt 1 view .LVU707
 2139              	.LVL143:
1180:Drivers/STM32F4xx_HAL_Driver/Src/stm32f4xx_hal_rtc_ex.c **** 
1181:Drivers/STM32F4xx_HAL_Driver/Src/stm32f4xx_hal_rtc_ex.c ****   /* Get tick */
1182:Drivers/STM32F4xx_HAL_Driver/Src/stm32f4xx_hal_rtc_ex.c ****   tickstart = HAL_GetTick();
 2140              		.loc 1 1182 3 view .LVU708
 2141              		.loc 1 1182 15 is_stmt 0 view .LVU709
 2142 0006 FFF7FEFF 		bl	HAL_GetTick
 2143              	.LVL144:
 2144              		.loc 1 1182 15 view .LVU710
 2145 000a 0646     		mov	r6, r0
 2146              	.LVL145:
1183:Drivers/STM32F4xx_HAL_Driver/Src/stm32f4xx_hal_rtc_ex.c **** 
1184:Drivers/STM32F4xx_HAL_Driver/Src/stm32f4xx_hal_rtc_ex.c ****   while (__HAL_RTC_WAKEUPTIMER_GET_FLAG(hrtc, RTC_FLAG_WUTF) == 0U)
ARM GAS  /tmp/ccKeTRIy.s 			page 61


 2147              		.loc 1 1184 3 is_stmt 1 view .LVU711
 2148              	.L131:
 2149              		.loc 1 1184 9 view .LVU712
 2150              		.loc 1 1184 10 is_stmt 0 view .LVU713
 2151 000c 2368     		ldr	r3, [r4]
 2152 000e DA68     		ldr	r2, [r3, #12]
 2153              		.loc 1 1184 9 view .LVU714
 2154 0010 12F4806F 		tst	r2, #1024
 2155 0014 0BD1     		bne	.L136
1185:Drivers/STM32F4xx_HAL_Driver/Src/stm32f4xx_hal_rtc_ex.c ****   {
1186:Drivers/STM32F4xx_HAL_Driver/Src/stm32f4xx_hal_rtc_ex.c ****     if (Timeout != HAL_MAX_DELAY)
 2156              		.loc 1 1186 5 is_stmt 1 view .LVU715
 2157              		.loc 1 1186 8 is_stmt 0 view .LVU716
 2158 0016 B5F1FF3F 		cmp	r5, #-1
 2159 001a F7D0     		beq	.L131
1187:Drivers/STM32F4xx_HAL_Driver/Src/stm32f4xx_hal_rtc_ex.c ****     {
1188:Drivers/STM32F4xx_HAL_Driver/Src/stm32f4xx_hal_rtc_ex.c ****       if ((Timeout == 0U) || ((HAL_GetTick() - tickstart) > Timeout))
 2160              		.loc 1 1188 7 is_stmt 1 view .LVU717
 2161              		.loc 1 1188 10 is_stmt 0 view .LVU718
 2162 001c 25B1     		cbz	r5, .L132
 2163              		.loc 1 1188 32 discriminator 1 view .LVU719
 2164 001e FFF7FEFF 		bl	HAL_GetTick
 2165              	.LVL146:
 2166              		.loc 1 1188 46 discriminator 1 view .LVU720
 2167 0022 801B     		subs	r0, r0, r6
 2168              		.loc 1 1188 27 discriminator 1 view .LVU721
 2169 0024 A842     		cmp	r0, r5
 2170 0026 F1D9     		bls	.L131
 2171              	.L132:
1189:Drivers/STM32F4xx_HAL_Driver/Src/stm32f4xx_hal_rtc_ex.c ****       {
1190:Drivers/STM32F4xx_HAL_Driver/Src/stm32f4xx_hal_rtc_ex.c ****         hrtc->State = HAL_RTC_STATE_TIMEOUT;
 2172              		.loc 1 1190 9 is_stmt 1 view .LVU722
 2173              		.loc 1 1190 21 is_stmt 0 view .LVU723
 2174 0028 0320     		movs	r0, #3
 2175 002a 6077     		strb	r0, [r4, #29]
1191:Drivers/STM32F4xx_HAL_Driver/Src/stm32f4xx_hal_rtc_ex.c ****         return HAL_TIMEOUT;
 2176              		.loc 1 1191 9 is_stmt 1 view .LVU724
 2177              		.loc 1 1191 16 is_stmt 0 view .LVU725
 2178 002c 07E0     		b	.L133
 2179              	.L136:
1192:Drivers/STM32F4xx_HAL_Driver/Src/stm32f4xx_hal_rtc_ex.c ****       }
1193:Drivers/STM32F4xx_HAL_Driver/Src/stm32f4xx_hal_rtc_ex.c ****     }
1194:Drivers/STM32F4xx_HAL_Driver/Src/stm32f4xx_hal_rtc_ex.c ****   }
1195:Drivers/STM32F4xx_HAL_Driver/Src/stm32f4xx_hal_rtc_ex.c **** 
1196:Drivers/STM32F4xx_HAL_Driver/Src/stm32f4xx_hal_rtc_ex.c ****   /* Clear the Wakeup timer Flag */
1197:Drivers/STM32F4xx_HAL_Driver/Src/stm32f4xx_hal_rtc_ex.c ****   __HAL_RTC_WAKEUPTIMER_CLEAR_FLAG(hrtc, RTC_FLAG_WUTF);
 2180              		.loc 1 1197 3 is_stmt 1 view .LVU726
 2181 002e DA68     		ldr	r2, [r3, #12]
 2182 0030 D2B2     		uxtb	r2, r2
 2183 0032 62F49062 		orn	r2, r2, #1152
 2184 0036 DA60     		str	r2, [r3, #12]
1198:Drivers/STM32F4xx_HAL_Driver/Src/stm32f4xx_hal_rtc_ex.c **** 
1199:Drivers/STM32F4xx_HAL_Driver/Src/stm32f4xx_hal_rtc_ex.c ****   /* Change RTC state */
1200:Drivers/STM32F4xx_HAL_Driver/Src/stm32f4xx_hal_rtc_ex.c ****   hrtc->State = HAL_RTC_STATE_READY;
 2185              		.loc 1 1200 3 view .LVU727
 2186              		.loc 1 1200 15 is_stmt 0 view .LVU728
 2187 0038 0123     		movs	r3, #1
ARM GAS  /tmp/ccKeTRIy.s 			page 62


 2188 003a 6377     		strb	r3, [r4, #29]
1201:Drivers/STM32F4xx_HAL_Driver/Src/stm32f4xx_hal_rtc_ex.c **** 
1202:Drivers/STM32F4xx_HAL_Driver/Src/stm32f4xx_hal_rtc_ex.c ****   return HAL_OK;
 2189              		.loc 1 1202 3 is_stmt 1 view .LVU729
 2190              		.loc 1 1202 10 is_stmt 0 view .LVU730
 2191 003c 0020     		movs	r0, #0
 2192              	.L133:
1203:Drivers/STM32F4xx_HAL_Driver/Src/stm32f4xx_hal_rtc_ex.c **** }
 2193              		.loc 1 1203 1 view .LVU731
 2194 003e 70BD     		pop	{r4, r5, r6, pc}
 2195              		.loc 1 1203 1 view .LVU732
 2196              		.cfi_endproc
 2197              	.LFE150:
 2199              		.section	.text.HAL_RTCEx_BKUPWrite,"ax",%progbits
 2200              		.align	1
 2201              		.global	HAL_RTCEx_BKUPWrite
 2202              		.syntax unified
 2203              		.thumb
 2204              		.thumb_func
 2205              		.fpu fpv4-sp-d16
 2207              	HAL_RTCEx_BKUPWrite:
 2208              	.LVL147:
 2209              	.LFB151:
1204:Drivers/STM32F4xx_HAL_Driver/Src/stm32f4xx_hal_rtc_ex.c **** 
1205:Drivers/STM32F4xx_HAL_Driver/Src/stm32f4xx_hal_rtc_ex.c **** /**
1206:Drivers/STM32F4xx_HAL_Driver/Src/stm32f4xx_hal_rtc_ex.c ****   * @}
1207:Drivers/STM32F4xx_HAL_Driver/Src/stm32f4xx_hal_rtc_ex.c ****   */
1208:Drivers/STM32F4xx_HAL_Driver/Src/stm32f4xx_hal_rtc_ex.c **** 
1209:Drivers/STM32F4xx_HAL_Driver/Src/stm32f4xx_hal_rtc_ex.c **** /** @defgroup RTCEx_Exported_Functions_Group3 Extended Peripheral Control functions
1210:Drivers/STM32F4xx_HAL_Driver/Src/stm32f4xx_hal_rtc_ex.c ****   * @brief    Extended Peripheral Control functions
1211:Drivers/STM32F4xx_HAL_Driver/Src/stm32f4xx_hal_rtc_ex.c ****   *
1212:Drivers/STM32F4xx_HAL_Driver/Src/stm32f4xx_hal_rtc_ex.c **** @verbatim
1213:Drivers/STM32F4xx_HAL_Driver/Src/stm32f4xx_hal_rtc_ex.c ****  ===============================================================================
1214:Drivers/STM32F4xx_HAL_Driver/Src/stm32f4xx_hal_rtc_ex.c ****               ##### Extended Peripheral Control functions #####
1215:Drivers/STM32F4xx_HAL_Driver/Src/stm32f4xx_hal_rtc_ex.c ****  ===============================================================================
1216:Drivers/STM32F4xx_HAL_Driver/Src/stm32f4xx_hal_rtc_ex.c ****     [..]
1217:Drivers/STM32F4xx_HAL_Driver/Src/stm32f4xx_hal_rtc_ex.c ****     This subsection provides functions allowing to
1218:Drivers/STM32F4xx_HAL_Driver/Src/stm32f4xx_hal_rtc_ex.c ****       (+) Write a data in a specified RTC Backup data register
1219:Drivers/STM32F4xx_HAL_Driver/Src/stm32f4xx_hal_rtc_ex.c ****       (+) Read a data in a specified RTC Backup data register
1220:Drivers/STM32F4xx_HAL_Driver/Src/stm32f4xx_hal_rtc_ex.c ****       (+) Set the Coarse calibration parameters.
1221:Drivers/STM32F4xx_HAL_Driver/Src/stm32f4xx_hal_rtc_ex.c ****       (+) Deactivate the Coarse calibration parameters
1222:Drivers/STM32F4xx_HAL_Driver/Src/stm32f4xx_hal_rtc_ex.c ****       (+) Set the Smooth calibration parameters.
1223:Drivers/STM32F4xx_HAL_Driver/Src/stm32f4xx_hal_rtc_ex.c ****       (+) Configure the Synchronization Shift Control Settings.
1224:Drivers/STM32F4xx_HAL_Driver/Src/stm32f4xx_hal_rtc_ex.c ****       (+) Configure the Calibration Pinout (RTC_CALIB) Selection (1Hz or 512Hz).
1225:Drivers/STM32F4xx_HAL_Driver/Src/stm32f4xx_hal_rtc_ex.c ****       (+) Deactivate the Calibration Pinout (RTC_CALIB) Selection (1Hz or 512Hz).
1226:Drivers/STM32F4xx_HAL_Driver/Src/stm32f4xx_hal_rtc_ex.c ****       (+) Enable the RTC reference clock detection.
1227:Drivers/STM32F4xx_HAL_Driver/Src/stm32f4xx_hal_rtc_ex.c ****       (+) Disable the RTC reference clock detection.
1228:Drivers/STM32F4xx_HAL_Driver/Src/stm32f4xx_hal_rtc_ex.c ****       (+) Enable the Bypass Shadow feature.
1229:Drivers/STM32F4xx_HAL_Driver/Src/stm32f4xx_hal_rtc_ex.c ****       (+) Disable the Bypass Shadow feature.
1230:Drivers/STM32F4xx_HAL_Driver/Src/stm32f4xx_hal_rtc_ex.c **** 
1231:Drivers/STM32F4xx_HAL_Driver/Src/stm32f4xx_hal_rtc_ex.c **** @endverbatim
1232:Drivers/STM32F4xx_HAL_Driver/Src/stm32f4xx_hal_rtc_ex.c ****   * @{
1233:Drivers/STM32F4xx_HAL_Driver/Src/stm32f4xx_hal_rtc_ex.c ****   */
1234:Drivers/STM32F4xx_HAL_Driver/Src/stm32f4xx_hal_rtc_ex.c **** 
1235:Drivers/STM32F4xx_HAL_Driver/Src/stm32f4xx_hal_rtc_ex.c **** /**
1236:Drivers/STM32F4xx_HAL_Driver/Src/stm32f4xx_hal_rtc_ex.c ****   * @brief  Writes a data in a specified RTC Backup data register.
1237:Drivers/STM32F4xx_HAL_Driver/Src/stm32f4xx_hal_rtc_ex.c ****   * @param  hrtc pointer to a RTC_HandleTypeDef structure that contains
ARM GAS  /tmp/ccKeTRIy.s 			page 63


1238:Drivers/STM32F4xx_HAL_Driver/Src/stm32f4xx_hal_rtc_ex.c ****   *                the configuration information for RTC.
1239:Drivers/STM32F4xx_HAL_Driver/Src/stm32f4xx_hal_rtc_ex.c ****   * @param  BackupRegister RTC Backup data Register number.
1240:Drivers/STM32F4xx_HAL_Driver/Src/stm32f4xx_hal_rtc_ex.c ****   *          This parameter can be: RTC_BKP_DRx (where x can be from 0 to 19)
1241:Drivers/STM32F4xx_HAL_Driver/Src/stm32f4xx_hal_rtc_ex.c ****   *                                 to specify the register.
1242:Drivers/STM32F4xx_HAL_Driver/Src/stm32f4xx_hal_rtc_ex.c ****   * @param  Data Data to be written in the specified RTC Backup data register.
1243:Drivers/STM32F4xx_HAL_Driver/Src/stm32f4xx_hal_rtc_ex.c ****   * @retval None
1244:Drivers/STM32F4xx_HAL_Driver/Src/stm32f4xx_hal_rtc_ex.c ****   */
1245:Drivers/STM32F4xx_HAL_Driver/Src/stm32f4xx_hal_rtc_ex.c **** void HAL_RTCEx_BKUPWrite(RTC_HandleTypeDef *hrtc, uint32_t BackupRegister, uint32_t Data)
1246:Drivers/STM32F4xx_HAL_Driver/Src/stm32f4xx_hal_rtc_ex.c **** {
 2210              		.loc 1 1246 1 is_stmt 1 view -0
 2211              		.cfi_startproc
 2212              		@ args = 0, pretend = 0, frame = 0
 2213              		@ frame_needed = 0, uses_anonymous_args = 0
 2214              		@ link register save eliminated.
1247:Drivers/STM32F4xx_HAL_Driver/Src/stm32f4xx_hal_rtc_ex.c ****   uint32_t tmp = 0U;
 2215              		.loc 1 1247 3 view .LVU734
1248:Drivers/STM32F4xx_HAL_Driver/Src/stm32f4xx_hal_rtc_ex.c **** 
1249:Drivers/STM32F4xx_HAL_Driver/Src/stm32f4xx_hal_rtc_ex.c ****   /* Check the parameters */
1250:Drivers/STM32F4xx_HAL_Driver/Src/stm32f4xx_hal_rtc_ex.c ****   assert_param(IS_RTC_BKP(BackupRegister));
 2216              		.loc 1 1250 3 view .LVU735
1251:Drivers/STM32F4xx_HAL_Driver/Src/stm32f4xx_hal_rtc_ex.c **** 
1252:Drivers/STM32F4xx_HAL_Driver/Src/stm32f4xx_hal_rtc_ex.c ****   tmp = (uint32_t) & (hrtc->Instance->BKP0R);
 2217              		.loc 1 1252 3 view .LVU736
 2218              		.loc 1 1252 27 is_stmt 0 view .LVU737
 2219 0000 0368     		ldr	r3, [r0]
 2220              		.loc 1 1252 20 view .LVU738
 2221 0002 5033     		adds	r3, r3, #80
 2222              	.LVL148:
1253:Drivers/STM32F4xx_HAL_Driver/Src/stm32f4xx_hal_rtc_ex.c ****   tmp += (BackupRegister * 4U);
 2223              		.loc 1 1253 3 is_stmt 1 view .LVU739
1254:Drivers/STM32F4xx_HAL_Driver/Src/stm32f4xx_hal_rtc_ex.c **** 
1255:Drivers/STM32F4xx_HAL_Driver/Src/stm32f4xx_hal_rtc_ex.c ****   /* Write the specified register */
1256:Drivers/STM32F4xx_HAL_Driver/Src/stm32f4xx_hal_rtc_ex.c ****   *(__IO uint32_t *)tmp = (uint32_t)Data;
 2224              		.loc 1 1256 3 view .LVU740
 2225              		.loc 1 1256 25 is_stmt 0 view .LVU741
 2226 0004 43F82120 		str	r2, [r3, r1, lsl #2]
1257:Drivers/STM32F4xx_HAL_Driver/Src/stm32f4xx_hal_rtc_ex.c **** }
 2227              		.loc 1 1257 1 view .LVU742
 2228 0008 7047     		bx	lr
 2229              		.cfi_endproc
 2230              	.LFE151:
 2232              		.section	.text.HAL_RTCEx_BKUPRead,"ax",%progbits
 2233              		.align	1
 2234              		.global	HAL_RTCEx_BKUPRead
 2235              		.syntax unified
 2236              		.thumb
 2237              		.thumb_func
 2238              		.fpu fpv4-sp-d16
 2240              	HAL_RTCEx_BKUPRead:
 2241              	.LVL149:
 2242              	.LFB152:
1258:Drivers/STM32F4xx_HAL_Driver/Src/stm32f4xx_hal_rtc_ex.c **** 
1259:Drivers/STM32F4xx_HAL_Driver/Src/stm32f4xx_hal_rtc_ex.c **** /**
1260:Drivers/STM32F4xx_HAL_Driver/Src/stm32f4xx_hal_rtc_ex.c ****   * @brief  Reads data from the specified RTC Backup data Register.
1261:Drivers/STM32F4xx_HAL_Driver/Src/stm32f4xx_hal_rtc_ex.c ****   * @param  hrtc pointer to a RTC_HandleTypeDef structure that contains
1262:Drivers/STM32F4xx_HAL_Driver/Src/stm32f4xx_hal_rtc_ex.c ****   *                the configuration information for RTC.
1263:Drivers/STM32F4xx_HAL_Driver/Src/stm32f4xx_hal_rtc_ex.c ****   * @param  BackupRegister RTC Backup data Register number.
ARM GAS  /tmp/ccKeTRIy.s 			page 64


1264:Drivers/STM32F4xx_HAL_Driver/Src/stm32f4xx_hal_rtc_ex.c ****   *          This parameter can be: RTC_BKP_DRx (where x can be from 0 to 19)
1265:Drivers/STM32F4xx_HAL_Driver/Src/stm32f4xx_hal_rtc_ex.c ****   *                                 to specify the register.
1266:Drivers/STM32F4xx_HAL_Driver/Src/stm32f4xx_hal_rtc_ex.c ****   * @retval Read value
1267:Drivers/STM32F4xx_HAL_Driver/Src/stm32f4xx_hal_rtc_ex.c ****   */
1268:Drivers/STM32F4xx_HAL_Driver/Src/stm32f4xx_hal_rtc_ex.c **** uint32_t HAL_RTCEx_BKUPRead(RTC_HandleTypeDef *hrtc, uint32_t BackupRegister)
1269:Drivers/STM32F4xx_HAL_Driver/Src/stm32f4xx_hal_rtc_ex.c **** {
 2243              		.loc 1 1269 1 is_stmt 1 view -0
 2244              		.cfi_startproc
 2245              		@ args = 0, pretend = 0, frame = 0
 2246              		@ frame_needed = 0, uses_anonymous_args = 0
 2247              		@ link register save eliminated.
1270:Drivers/STM32F4xx_HAL_Driver/Src/stm32f4xx_hal_rtc_ex.c ****   uint32_t tmp = 0U;
 2248              		.loc 1 1270 3 view .LVU744
1271:Drivers/STM32F4xx_HAL_Driver/Src/stm32f4xx_hal_rtc_ex.c **** 
1272:Drivers/STM32F4xx_HAL_Driver/Src/stm32f4xx_hal_rtc_ex.c ****   /* Check the parameters */
1273:Drivers/STM32F4xx_HAL_Driver/Src/stm32f4xx_hal_rtc_ex.c ****   assert_param(IS_RTC_BKP(BackupRegister));
 2249              		.loc 1 1273 3 view .LVU745
1274:Drivers/STM32F4xx_HAL_Driver/Src/stm32f4xx_hal_rtc_ex.c **** 
1275:Drivers/STM32F4xx_HAL_Driver/Src/stm32f4xx_hal_rtc_ex.c ****   tmp = (uint32_t) & (hrtc->Instance->BKP0R);
 2250              		.loc 1 1275 3 view .LVU746
 2251              		.loc 1 1275 27 is_stmt 0 view .LVU747
 2252 0000 0368     		ldr	r3, [r0]
 2253              		.loc 1 1275 20 view .LVU748
 2254 0002 5033     		adds	r3, r3, #80
 2255              	.LVL150:
1276:Drivers/STM32F4xx_HAL_Driver/Src/stm32f4xx_hal_rtc_ex.c ****   tmp += (BackupRegister * 4U);
 2256              		.loc 1 1276 3 is_stmt 1 view .LVU749
1277:Drivers/STM32F4xx_HAL_Driver/Src/stm32f4xx_hal_rtc_ex.c **** 
1278:Drivers/STM32F4xx_HAL_Driver/Src/stm32f4xx_hal_rtc_ex.c ****   /* Read the specified register */
1279:Drivers/STM32F4xx_HAL_Driver/Src/stm32f4xx_hal_rtc_ex.c ****   return (*(__IO uint32_t *)tmp);
 2257              		.loc 1 1279 3 view .LVU750
 2258              		.loc 1 1279 11 is_stmt 0 view .LVU751
 2259 0004 53F82100 		ldr	r0, [r3, r1, lsl #2]
 2260              	.LVL151:
1280:Drivers/STM32F4xx_HAL_Driver/Src/stm32f4xx_hal_rtc_ex.c **** }
 2261              		.loc 1 1280 1 view .LVU752
 2262 0008 7047     		bx	lr
 2263              		.cfi_endproc
 2264              	.LFE152:
 2266              		.section	.text.HAL_RTCEx_SetCoarseCalib,"ax",%progbits
 2267              		.align	1
 2268              		.global	HAL_RTCEx_SetCoarseCalib
 2269              		.syntax unified
 2270              		.thumb
 2271              		.thumb_func
 2272              		.fpu fpv4-sp-d16
 2274              	HAL_RTCEx_SetCoarseCalib:
 2275              	.LVL152:
 2276              	.LFB153:
1281:Drivers/STM32F4xx_HAL_Driver/Src/stm32f4xx_hal_rtc_ex.c **** 
1282:Drivers/STM32F4xx_HAL_Driver/Src/stm32f4xx_hal_rtc_ex.c **** /**
1283:Drivers/STM32F4xx_HAL_Driver/Src/stm32f4xx_hal_rtc_ex.c ****   * @brief  Sets the Coarse calibration parameters.
1284:Drivers/STM32F4xx_HAL_Driver/Src/stm32f4xx_hal_rtc_ex.c ****   * @param  hrtc pointer to a RTC_HandleTypeDef structure that contains
1285:Drivers/STM32F4xx_HAL_Driver/Src/stm32f4xx_hal_rtc_ex.c ****   *                the configuration information for RTC.
1286:Drivers/STM32F4xx_HAL_Driver/Src/stm32f4xx_hal_rtc_ex.c ****   * @param  CalibSign Specifies the sign of the coarse calibration value.
1287:Drivers/STM32F4xx_HAL_Driver/Src/stm32f4xx_hal_rtc_ex.c ****   *          This parameter can be  one of the following values:
1288:Drivers/STM32F4xx_HAL_Driver/Src/stm32f4xx_hal_rtc_ex.c ****   *             @arg RTC_CALIBSIGN_POSITIVE: The value sign is positive
ARM GAS  /tmp/ccKeTRIy.s 			page 65


1289:Drivers/STM32F4xx_HAL_Driver/Src/stm32f4xx_hal_rtc_ex.c ****   *             @arg RTC_CALIBSIGN_NEGATIVE: The value sign is negative
1290:Drivers/STM32F4xx_HAL_Driver/Src/stm32f4xx_hal_rtc_ex.c ****   * @param  Value value of coarse calibration expressed in ppm (coded on 5 bits).
1291:Drivers/STM32F4xx_HAL_Driver/Src/stm32f4xx_hal_rtc_ex.c ****   *
1292:Drivers/STM32F4xx_HAL_Driver/Src/stm32f4xx_hal_rtc_ex.c ****   * @note   This Calibration value should be between 0 and 63 when using negative
1293:Drivers/STM32F4xx_HAL_Driver/Src/stm32f4xx_hal_rtc_ex.c ****   *         sign with a 2-ppm step.
1294:Drivers/STM32F4xx_HAL_Driver/Src/stm32f4xx_hal_rtc_ex.c ****   *
1295:Drivers/STM32F4xx_HAL_Driver/Src/stm32f4xx_hal_rtc_ex.c ****   * @note   This Calibration value should be between 0 and 126 when using positive
1296:Drivers/STM32F4xx_HAL_Driver/Src/stm32f4xx_hal_rtc_ex.c ****   *         sign with a 4-ppm step.
1297:Drivers/STM32F4xx_HAL_Driver/Src/stm32f4xx_hal_rtc_ex.c ****   * @retval HAL status
1298:Drivers/STM32F4xx_HAL_Driver/Src/stm32f4xx_hal_rtc_ex.c ****   */
1299:Drivers/STM32F4xx_HAL_Driver/Src/stm32f4xx_hal_rtc_ex.c **** HAL_StatusTypeDef HAL_RTCEx_SetCoarseCalib(RTC_HandleTypeDef *hrtc, uint32_t CalibSign, uint32_t Va
1300:Drivers/STM32F4xx_HAL_Driver/Src/stm32f4xx_hal_rtc_ex.c **** {
 2277              		.loc 1 1300 1 is_stmt 1 view -0
 2278              		.cfi_startproc
 2279              		@ args = 0, pretend = 0, frame = 0
 2280              		@ frame_needed = 0, uses_anonymous_args = 0
1301:Drivers/STM32F4xx_HAL_Driver/Src/stm32f4xx_hal_rtc_ex.c ****   HAL_StatusTypeDef status;
 2281              		.loc 1 1301 3 view .LVU754
1302:Drivers/STM32F4xx_HAL_Driver/Src/stm32f4xx_hal_rtc_ex.c **** 
1303:Drivers/STM32F4xx_HAL_Driver/Src/stm32f4xx_hal_rtc_ex.c ****   /* Check the parameters */
1304:Drivers/STM32F4xx_HAL_Driver/Src/stm32f4xx_hal_rtc_ex.c ****   assert_param(IS_RTC_CALIB_SIGN(CalibSign));
 2282              		.loc 1 1304 3 view .LVU755
1305:Drivers/STM32F4xx_HAL_Driver/Src/stm32f4xx_hal_rtc_ex.c ****   assert_param(IS_RTC_CALIB_VALUE(Value));
 2283              		.loc 1 1305 3 view .LVU756
1306:Drivers/STM32F4xx_HAL_Driver/Src/stm32f4xx_hal_rtc_ex.c **** 
1307:Drivers/STM32F4xx_HAL_Driver/Src/stm32f4xx_hal_rtc_ex.c ****   /* Process Locked */
1308:Drivers/STM32F4xx_HAL_Driver/Src/stm32f4xx_hal_rtc_ex.c ****   __HAL_LOCK(hrtc);
 2284              		.loc 1 1308 3 view .LVU757
 2285              		.loc 1 1308 3 view .LVU758
 2286 0000 037F     		ldrb	r3, [r0, #28]	@ zero_extendqisi2
 2287 0002 012B     		cmp	r3, #1
 2288 0004 25D0     		beq	.L143
1300:Drivers/STM32F4xx_HAL_Driver/Src/stm32f4xx_hal_rtc_ex.c ****   HAL_StatusTypeDef status;
 2289              		.loc 1 1300 1 is_stmt 0 discriminator 2 view .LVU759
 2290 0006 70B5     		push	{r4, r5, r6, lr}
 2291              	.LCFI28:
 2292              		.cfi_def_cfa_offset 16
 2293              		.cfi_offset 4, -16
 2294              		.cfi_offset 5, -12
 2295              		.cfi_offset 6, -8
 2296              		.cfi_offset 14, -4
 2297 0008 0446     		mov	r4, r0
 2298 000a 0E46     		mov	r6, r1
 2299 000c 1546     		mov	r5, r2
 2300              		.loc 1 1308 3 is_stmt 1 discriminator 2 view .LVU760
 2301 000e 0123     		movs	r3, #1
 2302 0010 0377     		strb	r3, [r0, #28]
 2303              		.loc 1 1308 3 discriminator 2 view .LVU761
1309:Drivers/STM32F4xx_HAL_Driver/Src/stm32f4xx_hal_rtc_ex.c **** 
1310:Drivers/STM32F4xx_HAL_Driver/Src/stm32f4xx_hal_rtc_ex.c ****   hrtc->State = HAL_RTC_STATE_BUSY;
 2304              		.loc 1 1310 3 discriminator 2 view .LVU762
 2305              		.loc 1 1310 15 is_stmt 0 discriminator 2 view .LVU763
 2306 0012 0223     		movs	r3, #2
 2307 0014 4377     		strb	r3, [r0, #29]
1311:Drivers/STM32F4xx_HAL_Driver/Src/stm32f4xx_hal_rtc_ex.c **** 
1312:Drivers/STM32F4xx_HAL_Driver/Src/stm32f4xx_hal_rtc_ex.c ****   /* Disable the write protection for RTC registers */
1313:Drivers/STM32F4xx_HAL_Driver/Src/stm32f4xx_hal_rtc_ex.c ****   __HAL_RTC_WRITEPROTECTION_DISABLE(hrtc);
ARM GAS  /tmp/ccKeTRIy.s 			page 66


 2308              		.loc 1 1313 3 is_stmt 1 discriminator 2 view .LVU764
 2309              		.loc 1 1313 3 discriminator 2 view .LVU765
 2310 0016 0368     		ldr	r3, [r0]
 2311 0018 CA22     		movs	r2, #202
 2312              	.LVL153:
 2313              		.loc 1 1313 3 is_stmt 0 discriminator 2 view .LVU766
 2314 001a 5A62     		str	r2, [r3, #36]
 2315              		.loc 1 1313 3 is_stmt 1 discriminator 2 view .LVU767
 2316 001c 0368     		ldr	r3, [r0]
 2317 001e 5322     		movs	r2, #83
 2318 0020 5A62     		str	r2, [r3, #36]
 2319              		.loc 1 1313 3 discriminator 2 view .LVU768
1314:Drivers/STM32F4xx_HAL_Driver/Src/stm32f4xx_hal_rtc_ex.c **** 
1315:Drivers/STM32F4xx_HAL_Driver/Src/stm32f4xx_hal_rtc_ex.c ****   /* Enter Initialization mode */
1316:Drivers/STM32F4xx_HAL_Driver/Src/stm32f4xx_hal_rtc_ex.c ****   status = RTC_EnterInitMode(hrtc);
 2320              		.loc 1 1316 3 discriminator 2 view .LVU769
 2321              		.loc 1 1316 12 is_stmt 0 discriminator 2 view .LVU770
 2322 0022 FFF7FEFF 		bl	RTC_EnterInitMode
 2323              	.LVL154:
1317:Drivers/STM32F4xx_HAL_Driver/Src/stm32f4xx_hal_rtc_ex.c **** 
1318:Drivers/STM32F4xx_HAL_Driver/Src/stm32f4xx_hal_rtc_ex.c ****   if (status == HAL_OK)
 2324              		.loc 1 1318 3 is_stmt 1 discriminator 2 view .LVU771
 2325              		.loc 1 1318 6 is_stmt 0 discriminator 2 view .LVU772
 2326 0026 40B1     		cbz	r0, .L148
 2327              	.LVL155:
 2328              	.L141:
1319:Drivers/STM32F4xx_HAL_Driver/Src/stm32f4xx_hal_rtc_ex.c ****   {
1320:Drivers/STM32F4xx_HAL_Driver/Src/stm32f4xx_hal_rtc_ex.c ****     /* Enable the Coarse Calibration */
1321:Drivers/STM32F4xx_HAL_Driver/Src/stm32f4xx_hal_rtc_ex.c ****     __HAL_RTC_COARSE_CALIB_ENABLE(hrtc);
1322:Drivers/STM32F4xx_HAL_Driver/Src/stm32f4xx_hal_rtc_ex.c **** 
1323:Drivers/STM32F4xx_HAL_Driver/Src/stm32f4xx_hal_rtc_ex.c ****     /* Set the coarse calibration value */
1324:Drivers/STM32F4xx_HAL_Driver/Src/stm32f4xx_hal_rtc_ex.c ****     hrtc->Instance->CALIBR = (uint32_t)(CalibSign | Value);
1325:Drivers/STM32F4xx_HAL_Driver/Src/stm32f4xx_hal_rtc_ex.c **** 
1326:Drivers/STM32F4xx_HAL_Driver/Src/stm32f4xx_hal_rtc_ex.c ****     /* Exit Initialization mode */
1327:Drivers/STM32F4xx_HAL_Driver/Src/stm32f4xx_hal_rtc_ex.c ****     status = RTC_ExitInitMode(hrtc);
1328:Drivers/STM32F4xx_HAL_Driver/Src/stm32f4xx_hal_rtc_ex.c ****   }
1329:Drivers/STM32F4xx_HAL_Driver/Src/stm32f4xx_hal_rtc_ex.c **** 
1330:Drivers/STM32F4xx_HAL_Driver/Src/stm32f4xx_hal_rtc_ex.c ****   if (status == HAL_OK)
 2329              		.loc 1 1330 3 is_stmt 1 view .LVU773
 2330              		.loc 1 1330 6 is_stmt 0 view .LVU774
 2331 0028 08B9     		cbnz	r0, .L142
1331:Drivers/STM32F4xx_HAL_Driver/Src/stm32f4xx_hal_rtc_ex.c ****   {
1332:Drivers/STM32F4xx_HAL_Driver/Src/stm32f4xx_hal_rtc_ex.c ****     hrtc->State = HAL_RTC_STATE_READY;
 2332              		.loc 1 1332 5 is_stmt 1 view .LVU775
 2333              		.loc 1 1332 17 is_stmt 0 view .LVU776
 2334 002a 0123     		movs	r3, #1
 2335 002c 6377     		strb	r3, [r4, #29]
 2336              	.L142:
1333:Drivers/STM32F4xx_HAL_Driver/Src/stm32f4xx_hal_rtc_ex.c ****   }
1334:Drivers/STM32F4xx_HAL_Driver/Src/stm32f4xx_hal_rtc_ex.c **** 
1335:Drivers/STM32F4xx_HAL_Driver/Src/stm32f4xx_hal_rtc_ex.c ****   /* Enable the write protection for RTC registers */
1336:Drivers/STM32F4xx_HAL_Driver/Src/stm32f4xx_hal_rtc_ex.c ****   __HAL_RTC_WRITEPROTECTION_ENABLE(hrtc);
 2337              		.loc 1 1336 3 is_stmt 1 view .LVU777
 2338              		.loc 1 1336 3 view .LVU778
 2339 002e 2368     		ldr	r3, [r4]
 2340 0030 FF22     		movs	r2, #255
 2341 0032 5A62     		str	r2, [r3, #36]
ARM GAS  /tmp/ccKeTRIy.s 			page 67


 2342              		.loc 1 1336 3 view .LVU779
1337:Drivers/STM32F4xx_HAL_Driver/Src/stm32f4xx_hal_rtc_ex.c **** 
1338:Drivers/STM32F4xx_HAL_Driver/Src/stm32f4xx_hal_rtc_ex.c ****   /* Process Unlocked */
1339:Drivers/STM32F4xx_HAL_Driver/Src/stm32f4xx_hal_rtc_ex.c ****   __HAL_UNLOCK(hrtc);
 2343              		.loc 1 1339 3 view .LVU780
 2344              		.loc 1 1339 3 view .LVU781
 2345 0034 0023     		movs	r3, #0
 2346 0036 2377     		strb	r3, [r4, #28]
 2347              		.loc 1 1339 3 view .LVU782
1340:Drivers/STM32F4xx_HAL_Driver/Src/stm32f4xx_hal_rtc_ex.c **** 
1341:Drivers/STM32F4xx_HAL_Driver/Src/stm32f4xx_hal_rtc_ex.c ****   return status;
 2348              		.loc 1 1341 3 view .LVU783
1342:Drivers/STM32F4xx_HAL_Driver/Src/stm32f4xx_hal_rtc_ex.c **** }
 2349              		.loc 1 1342 1 is_stmt 0 view .LVU784
 2350 0038 70BD     		pop	{r4, r5, r6, pc}
 2351              	.LVL156:
 2352              	.L148:
1321:Drivers/STM32F4xx_HAL_Driver/Src/stm32f4xx_hal_rtc_ex.c **** 
 2353              		.loc 1 1321 5 is_stmt 1 view .LVU785
 2354 003a 2268     		ldr	r2, [r4]
 2355 003c 9368     		ldr	r3, [r2, #8]
 2356 003e 43F08003 		orr	r3, r3, #128
 2357 0042 9360     		str	r3, [r2, #8]
1324:Drivers/STM32F4xx_HAL_Driver/Src/stm32f4xx_hal_rtc_ex.c **** 
 2358              		.loc 1 1324 5 view .LVU786
1324:Drivers/STM32F4xx_HAL_Driver/Src/stm32f4xx_hal_rtc_ex.c **** 
 2359              		.loc 1 1324 9 is_stmt 0 view .LVU787
 2360 0044 2368     		ldr	r3, [r4]
1324:Drivers/STM32F4xx_HAL_Driver/Src/stm32f4xx_hal_rtc_ex.c **** 
 2361              		.loc 1 1324 51 view .LVU788
 2362 0046 3543     		orrs	r5, r5, r6
 2363              	.LVL157:
1324:Drivers/STM32F4xx_HAL_Driver/Src/stm32f4xx_hal_rtc_ex.c **** 
 2364              		.loc 1 1324 28 view .LVU789
 2365 0048 9D61     		str	r5, [r3, #24]
1327:Drivers/STM32F4xx_HAL_Driver/Src/stm32f4xx_hal_rtc_ex.c ****   }
 2366              		.loc 1 1327 5 is_stmt 1 view .LVU790
1327:Drivers/STM32F4xx_HAL_Driver/Src/stm32f4xx_hal_rtc_ex.c ****   }
 2367              		.loc 1 1327 14 is_stmt 0 view .LVU791
 2368 004a 2046     		mov	r0, r4
 2369              	.LVL158:
1327:Drivers/STM32F4xx_HAL_Driver/Src/stm32f4xx_hal_rtc_ex.c ****   }
 2370              		.loc 1 1327 14 view .LVU792
 2371 004c FFF7FEFF 		bl	RTC_ExitInitMode
 2372              	.LVL159:
1327:Drivers/STM32F4xx_HAL_Driver/Src/stm32f4xx_hal_rtc_ex.c ****   }
 2373              		.loc 1 1327 14 view .LVU793
 2374 0050 EAE7     		b	.L141
 2375              	.LVL160:
 2376              	.L143:
 2377              	.LCFI29:
 2378              		.cfi_def_cfa_offset 0
 2379              		.cfi_restore 4
 2380              		.cfi_restore 5
 2381              		.cfi_restore 6
 2382              		.cfi_restore 14
1308:Drivers/STM32F4xx_HAL_Driver/Src/stm32f4xx_hal_rtc_ex.c **** 
ARM GAS  /tmp/ccKeTRIy.s 			page 68


 2383              		.loc 1 1308 3 view .LVU794
 2384 0052 0220     		movs	r0, #2
 2385              	.LVL161:
 2386              		.loc 1 1342 1 view .LVU795
 2387 0054 7047     		bx	lr
 2388              		.cfi_endproc
 2389              	.LFE153:
 2391              		.section	.text.HAL_RTCEx_DeactivateCoarseCalib,"ax",%progbits
 2392              		.align	1
 2393              		.global	HAL_RTCEx_DeactivateCoarseCalib
 2394              		.syntax unified
 2395              		.thumb
