ARM GAS  /tmp/ccRGlI6g.s 			page 1


   1              		.cpu cortex-m3
   2              		.eabi_attribute 20, 1
   3              		.eabi_attribute 21, 1
   4              		.eabi_attribute 23, 3
   5              		.eabi_attribute 24, 1
   6              		.eabi_attribute 25, 1
   7              		.eabi_attribute 26, 1
   8              		.eabi_attribute 30, 1
   9              		.eabi_attribute 34, 1
  10              		.eabi_attribute 18, 4
  11              		.file	"main.c"
  12              		.text
  13              	.Ltext0:
  14              		.cfi_sections	.debug_frame
  15              		.section	.rodata.main.str1.4,"aMS",%progbits,1
  16              		.align	2
  17              	.LC0:
  18 0000 47455420 		.ascii	"GET https://api.seniverse.com/v3/weather/now.json?k"
  18      68747470 
  18      733A2F2F 
  18      6170692E 
  18      73656E69 
  19 0033 65793D53 		.ascii	"ey=SBk0nHXcaAPbDC9L9&location=zhengzhou&language=zh"
  19      426B306E 
  19      48586361 
  19      41506244 
  19      43394C39 
  20 0066 2D48616E 		.ascii	"-Hans&unit=c\015\012\000"
  20      7326756E 
  20      69743D63 
  20      0D0A00
  21              		.section	.text.main,"ax",%progbits
  22              		.align	1
  23              		.global	main
  24              		.arch armv7-m
  25              		.syntax unified
  26              		.thumb
  27              		.thumb_func
  28              		.fpu softvfp
  30              	main:
  31              	.LFB32:
  32              		.file 1 "./User/Src/main.c"
   1:./User/Src/main.c **** /**		 
   2:./User/Src/main.c ****  * @Date:               2022.3.16 
   3:./User/Src/main.c ****  * @Revision:           V1.0
   4:./User/Src/main.c ****  * @Writer:             ÁÇπÁÅØÂ§ßÂ∏à
   5:./User/Src/main.c ****  * @Affiliated unitÔºö   ÈªÑÊ≤≥ÁßëÊäÄÂ≠¶Èô¢
   6:./User/Src/main.c ****  * @Description:        Âü∫‰∫éSTM32F103ÁöÑÂõ∫‰ª∂Â∫ìÂ∑•Á®ãÊ®°Êùø
   7:./User/Src/main.c ****  * @Email:              im_leihao@163.com
   8:./User/Src/main.c ****  * @gitee:              https://github.com/zleihao
   9:./User/Src/main.c ****  */
  10:./User/Src/main.c **** #include "stm32f10x.h"
  11:./User/Src/main.c **** #include "bsp_usart.h"
  12:./User/Src/main.c **** #include "bsp_SysTick.h"
  13:./User/Src/main.c **** #include "stm32f10x_it.h"
  14:./User/Src/main.c **** #include "bsp_esp8266.h"
  15:./User/Src/main.c **** #include "bsp_esp8266_test.h"
ARM GAS  /tmp/ccRGlI6g.s 			page 2


  16:./User/Src/main.c **** #include "core_delay.h"
  17:./User/Src/main.c **** #include "string.h"
  18:./User/Src/main.c **** #include "bsp_key.h"
  19:./User/Src/main.c **** 
  20:./User/Src/main.c **** /**
  21:./User/Src/main.c ****   * @brief  ‰∏ªÂáΩÊï∞
  22:./User/Src/main.c ****   * @param  Êó†
  23:./User/Src/main.c ****   * @retval Êó†
  24:./User/Src/main.c ****   */
  25:./User/Src/main.c **** 	
  26:./User/Src/main.c **** int main ( void )
  27:./User/Src/main.c **** {
  33              		.loc 1 27 1 view -0
  34              		.cfi_startproc
  35              		@ Volatile: function does not return.
  36              		@ args = 0, pretend = 0, frame = 0
  37              		@ frame_needed = 0, uses_anonymous_args = 0
  38 0000 08B5     		push	{r3, lr}
  39              	.LCFI0:
  40              		.cfi_def_cfa_offset 8
  41              		.cfi_offset 3, -8
  42              		.cfi_offset 14, -4
  28:./User/Src/main.c **** 
  29:./User/Src/main.c **** 	/* ÂàùÂßãÂåñ */
  30:./User/Src/main.c **** 	USART_Config ();                                                      //ÂàùÂßãÂåñ‰∏≤Âè£1
  43              		.loc 1 30 2 view .LVU1
  44 0002 FFF7FEFF 		bl	USART_Config
  45              	.LVL0:
  31:./User/Src/main.c **** 	CPU_TS_TmrInit();                                                     //ÂàùÂßãÂåñDWTËÆ°Êï∞Âô®ÔºåÁî
  46              		.loc 1 31 2 view .LVU2
  47 0006 FFF7FEFF 		bl	CPU_TS_TmrInit
  48              	.LVL1:
  32:./User/Src/main.c **** 	ESP8266_Init ();                                                      //ÂàùÂßãÂåñWiFiÊ®°Âùó‰ΩøÁî®Á
  49              		.loc 1 32 2 view .LVU3
  50 000a FFF7FEFF 		bl	ESP8266_Init
  51              	.LVL2:
  33:./User/Src/main.c **** 	Key_GPIO_Config();
  52              		.loc 1 33 2 view .LVU4
  53 000e FFF7FEFF 		bl	Key_GPIO_Config
  54              	.LVL3:
  34:./User/Src/main.c **** 	  
  35:./User/Src/main.c **** 	ESP8266_StaTcpClient_Unvarnish_ConfigTest();                          //ÂØπESP8266ËøõË°åÈÖçÁΩÆ
  55              		.loc 1 35 2 view .LVU5
  56 0012 FFF7FEFF 		bl	ESP8266_StaTcpClient_Unvarnish_ConfigTest
  57              	.LVL4:
  58 0016 05E0     		b	.L3
  59              	.L5:
  36:./User/Src/main.c **** 
  37:./User/Src/main.c ****   
  38:./User/Src/main.c ****   	while ( 1 )
  39:./User/Src/main.c ****   	{
  40:./User/Src/main.c **** 		//Êåâ‰∏ãÊåâÈîÆÂêëÂøÉÁü•Â§©Ê∞îÂèëÈÄÅËØ∑Ê±Ç
  41:./User/Src/main.c **** 		//ESP8266 Êé•Êî∂Âà∞ÁöÑÊï∞ÊçÆÂ≠òÂÇ®Âú®Êï∞ÁªÑ strEsp8266_Fram_Record .Data_RX_BUF ‰∏≠,ÁßªÊ≠•Âà∞ bsp
  42:./User/Src/main.c **** 		if (Key_Scan(KEY1_GPIO_PORT,KEY1_GPIO_PIN) == KEY_ON) {
  43:./User/Src/main.c **** 			macESP8266_Usart(REQUEST_DATA);
  60              		.loc 1 43 4 view .LVU6
  61 0018 0649     		ldr	r1, .L6
ARM GAS  /tmp/ccRGlI6g.s 			page 3


  62 001a 0748     		ldr	r0, .L6+4
  63 001c FFF7FEFF 		bl	USART_printf
  64              	.LVL5:
  65              	.L2:
  44:./User/Src/main.c **** 		}
  45:./User/Src/main.c **** 
  46:./User/Src/main.c **** 		ESP8266_CheckRecvDataTest();
  66              		.loc 1 46 3 view .LVU7
  67 0020 FFF7FEFF 		bl	ESP8266_CheckRecvDataTest
  68              	.LVL6:
  38:./User/Src/main.c ****   	{
  69              		.loc 1 38 10 view .LVU8
  70              	.L3:
  38:./User/Src/main.c ****   	{
  71              		.loc 1 38 4 view .LVU9
  42:./User/Src/main.c **** 			macESP8266_Usart(REQUEST_DATA);
  72              		.loc 1 42 3 view .LVU10
  42:./User/Src/main.c **** 			macESP8266_Usart(REQUEST_DATA);
  73              		.loc 1 42 7 is_stmt 0 view .LVU11
  74 0024 0121     		movs	r1, #1
  75 0026 0548     		ldr	r0, .L6+8
  76 0028 FFF7FEFF 		bl	Key_Scan
  77              	.LVL7:
  42:./User/Src/main.c **** 			macESP8266_Usart(REQUEST_DATA);
  78              		.loc 1 42 6 view .LVU12
  79 002c 0128     		cmp	r0, #1
  80 002e F3D0     		beq	.L5
  81 0030 F6E7     		b	.L2
  82              	.L7:
  83 0032 00BF     		.align	2
  84              	.L6:
  85 0034 00000000 		.word	.LC0
  86 0038 00440040 		.word	1073759232
  87 003c 00080140 		.word	1073809408
  88              		.cfi_endproc
  89              	.LFE32:
  91              		.text
  92              	.Letext0:
  93              		.file 2 "/home/hao/Documents/gcc-arm-none-eabi/arm-none-eabi/include/machine/_default_types.h"
  94              		.file 3 "/home/hao/Documents/gcc-arm-none-eabi/arm-none-eabi/include/sys/_stdint.h"
  95              		.file 4 "./Libraries/CMSIS/stm32f10x.h"
  96              		.file 5 "./Hardware/usart/bsp_usart.h"
  97              		.file 6 "./Hardware/dwt_delay/core_delay.h"
  98              		.file 7 "./Hardware/ESP8266/bsp_esp8266.h"
  99              		.file 8 "./Hardware/Key/bsp_key.h"
 100              		.file 9 "./Hardware/ESP8266/bsp_esp8266_test.h"
 101              		.file 10 "./Hardware/Common/common.h"
ARM GAS  /tmp/ccRGlI6g.s 			page 4


DEFINED SYMBOLS
                            *ABS*:0000000000000000 main.c
     /tmp/ccRGlI6g.s:16     .rodata.main.str1.4:0000000000000000 $d
     /tmp/ccRGlI6g.s:22     .text.main:0000000000000000 $t
     /tmp/ccRGlI6g.s:30     .text.main:0000000000000000 main
     /tmp/ccRGlI6g.s:85     .text.main:0000000000000034 $d

UNDEFINED SYMBOLS
USART_Config
CPU_TS_TmrInit
ESP8266_Init
Key_GPIO_Config
ESP8266_StaTcpClient_Unvarnish_ConfigTest
USART_printf
ESP8266_CheckRecvDataTest
Key_Scan
